(dp0
S'clipper'
p1
(lp2
(lp3
I-1
aI-1
aI-1
aI-1
aI-1
aI-1
aa(lp4
I-1
aI-1
aI-1
aI-1
aI-1
aI-1
aa(lp5
I-1
aI-1
aI-1
aI-1
aI-1
aI-1
aa(lp6
I-1
aI-1
aI-1
aI-1
aI-1
aI-1
aa(lp7
I-1
aI-1
aI-1
aI-1
aI-1
aI-1
aa(lp8
I-1
aI-1
aI-1
aI-1
aI-1
aI-1
aa(lp9
I-1
aI-1
aI-1
aI-1
aI-1
aI-1
aa(lp10
I-1
aI-1
aI-1
aI-1
aI-1
aI-1
aa(lp11
I-1
aI-1
aI-1
aI-1
aI-1
aI-1
aa(lp12
I-1
aI-1
aI-1
aI-1
aI-1
aI-1
aa(lp13
I-1
aI-1
aI-1
aI-1
aI-1
aI-1
aa(lp14
I-1
aI-1
aI-1
aI-1
aI-1
aI-1
aa(lp15
I-1
aI-1
aI-1
aI-1
aI-1
aI-1
aa(lp16
I-1
aI-1
aI-1
aI-1
aI-1
aI-1
aa(lp17
I-1
aI-1
aI-1
aI-1
aI-1
aI-1
aa(lp18
I-1
aI-1
aI-1
aI-1
aI-1
aI-1
aa(lp19
I-1
aI-1
aI-1
aI-1
aI-1
aI-1
aa(lp20
I-1
aI-1
aI-1
aI-1
aI-1
aI-1
aa(lp21
I-1
aI-1
aI-1
aI-1
aI-1
aI-1
aa(lp22
I-1
aI-1
aI-1
aI-1
aI-1
aI-1
aa(lp23
I-1
aI-1
aI-1
aI-1
aI-1
aI-1
aa(lp24
I-1
aI-1
aI-1
aI-1
aI-1
aI-1
aa(lp25
I-1
aI-1
aI-1
aI-1
aI-1
aI-1
aa(lp26
I-1
aI-1
aI-1
aI-1
aI-1
aI-1
aa(lp27
I-1
aI-1
aI-1
aI-1
aI-1
aI-1
aa(lp28
I-1
aI-1
aI-1
aI-1
aI-1
aI-1
aa(lp29
I-1
aI-1
aI-1
aI-1
aI-1
aI-1
aa(lp30
I-1
aI-1
aI-1
aI-1
aI-1
aI-1
aa(lp31
I-1
aI-1
aI-1
aI-1
aI-1
aI-1
aa(lp32
I-1
aI-1
aI-1
aI-1
aI-1
aI-1
aa(lp33
I-1
aI-1
aI-1
aI-1
aI-1
aI-1
aa(lp34
I-1
aI-1
aI-1
aI-1
aI-1
aI-1
aa(lp35
I-1
aI-1
aI-1
aI-1
aI-1
aI-1
aa(lp36
I-1
aI-1
aI-1
aI-1
aI-1
aI-1
aa(lp37
I-1
aI-1
aI-1
aI-1
aI-1
aI-1
aa(lp38
I-1
aI-1
aI-1
aI-1
aI-1
aI-1
aa(lp39
I-1
aI-1
aI-1
aI-1
aI-1
aI-1
aa(lp40
I-1
aI-1
aI-1
aI-1
aI-1
aI-1
aa(lp41
I-1
aI-1
aI-1
aI-1
aI-1
aI-1
aa(lp42
I-1
aI-1
aI-1
aI-1
aI-1
aI-1
aa(lp43
I-1
aI-1
aI-1
aI-1
aI-1
aI-1
aa(lp44
I-1
aI-1
aI-1
aI-1
aI-1
aI-1
aa(lp45
I-1
aI-1
aI-1
aI-1
aI-1
aI-1
aa(lp46
I-1
aI-1
aI-1
aI-1
aI-1
aI-1
aa(lp47
I-1
aI-1
aI-1
aI-1
aI-1
aI-1
aa(lp48
I-1
aI-1
aI-1
aI-1
aI-1
aI-1
aa(lp49
I-1
aI-1
aI-1
aI-1
aI-1
aI-1
aa(lp50
I-1
aI-1
aI-1
aI-1
aI-1
aI-1
aa(lp51
I-1
aI-1
aI-1
aI-1
aI-1
aI-1
aa(lp52
I-1
aI-1
aI-1
aI-1
aI-1
aI-1
aa(lp53
I-1
aI-1
aI-1
aI-1
aI-1
aI-1
aa(lp54
I-1
aI-1
aI-1
aI-1
aI-1
aI-1
aa(lp55
I-1
aI-1
aI-1
aI-1
aI-1
aI-1
aa(lp56
I-1
aI-1
aI-1
aI-1
aI-1
aI-1
aa(lp57
I-1
aI-1
aI-1
aI-1
aI-1
aI-1
aa(lp58
I-1
aI-1
aI-1
aI-1
aI-1
aI-1
aa(lp59
I-1
aI-1
aI-1
aI-1
aI-1
aI-1
aa(lp60
I-1
aI-1
aI-1
aI-1
aI-1
aI-1
aa(lp61
I-1
aI-1
aI-1
aI-1
aI-1
aI-1
aa(lp62
I-1
aI-1
aI-1
aI-1
aI-1
aI-1
aa(lp63
I-1
aI-1
aI-1
aI-1
aI-1
aI-1
aa(lp64
I-1
aI-1
aI-1
aI-1
aI-1
aI-1
aa(lp65
I-1
aI-1
aI-1
aI-1
aI-1
aI-1
aa(lp66
I-1
aI-1
aI-1
aI-1
aI-1
aI-1
aa(lp67
I-1
aI-1
aI-1
aI-1
aI-1
aI-1
aa(lp68
I-1
aI-1
aI-1
aI-1
aI-1
aI-1
aa(lp69
I-1
aI-1
aI-1
aI-1
aI-1
aI-1
aa(lp70
I-1
aI-1
aI-1
aI-1
aI-1
aI-1
aa(lp71
I-1
aI-1
aI-1
aI-1
aI-1
aI-1
aa(lp72
I-1
aI-1
aI-1
aI-1
aI-1
aI-1
aa(lp73
I-1
aI-1
aI-1
aI-1
aI-1
aI-1
aa(lp74
I-1
aI-1
aI-1
aI-1
aI-1
aI-1
aa(lp75
I-1
aI-1
aI-1
aI-1
aI-1
aI-1
aa(lp76
I-1
aI-1
aI-1
aI-1
aI-1
aI-1
aa(lp77
I-1
aI-1
aI-1
aI-1
aI-1
aI-1
aa(lp78
I-1
aI-1
aI-1
aI-1
aI-1
aI-1
aa(lp79
I-1
aI-1
aI-1
aI-1
aI-1
aI-1
aa(lp80
I-1
aI-1
aI-1
aI-1
aI-1
aI-1
aa(lp81
I-1
aI-1
aI-1
aI-1
aI-1
aI-1
aa(lp82
I-1
aI-1
aI-1
aI-1
aI-1
aI-1
aa(lp83
I-1
aI-1
aI-1
aI-1
aI-1
aI-1
aa(lp84
I-1
aI-1
aI-1
aI-1
aI-1
aI-1
aa(lp85
I-1
aI-1
aI-1
aI-1
aI-1
aI-1
aa(lp86
I-1
aI-1
aI-1
aI-1
aI-1
aI-1
aa(lp87
I-1
aI-1
aI-1
aI-1
aI-1
aI-1
aa(lp88
I-1
aI-1
aI-1
aI-1
aI-1
aI-1
aa(lp89
I-1
aI-1
aI-1
aI-1
aI-1
aI-1
aa(lp90
I-1
aI-1
aI-1
aI-1
aI-1
aI-1
aa(lp91
I-1
aI-1
aI-1
aI-1
aI-1
aI-1
aa(lp92
I-1
aI-1
aI-1
aI-1
aI-1
aI-1
aa(lp93
I-1
aI-1
aI-1
aI-1
aI-1
aI-1
aa(lp94
I-1
aI-1
aI-1
aI-1
aI-1
aI-1
aa(lp95
I-1
aI-1
aI-1
aI-1
aI-1
aI-1
aa(lp96
I-1
aI-1
aI-1
aI-1
aI-1
aI-1
aa(lp97
I-1
aI-1
aI-1
aI-1
aI-1
aI-1
aa(lp98
I-1
aI-1
aI-1
aI-1
aI-1
aI-1
aa(lp99
I-1
aI-1
aI-1
aI-1
aI-1
aI-1
aa(lp100
I-1
aI-1
aI-1
aI-1
aI-1
aI-1
aa(lp101
I-1
aI-1
aI-1
aI-1
aI-1
aI-1
aa(lp102
I-1
aI-1
aI-1
aI-1
aI-1
aI-1
aa(lp103
I-1
aI-1
aI-1
aI-1
aI-1
aI-1
aa(lp104
I-1
aI-1
aI-1
aI-1
aI-1
aI-1
aa(lp105
I-1
aI-1
aI-1
aI-1
aI-1
aI-1
aa(lp106
I-1
aI-1
aI-1
aI-1
aI-1
aI-1
aa(lp107
I-1
aI-1
aI-1
aI-1
aI-1
aI-1
aa(lp108
I-1
aI-1
aI-1
aI-1
aI-1
aI-1
aa(lp109
I-1
aI-1
aI-1
aI-1
aI-1
aI-1
aa(lp110
I-1
aI-1
aI-1
aI-1
aI-1
aI-1
aa(lp111
I-1
aI-1
aI-1
aI-1
aI-1
aI-1
aa(lp112
I-1
aI-1
aI-1
aI-1
aI-1
aI-1
aa(lp113
I-1
aI-1
aI-1
aI-1
aI-1
aI-1
aa(lp114
I-1
aI-1
aI-1
aI-1
aI-1
aI-1
aa(lp115
I-1
aI-1
aI-1
aI-1
aI-1
aI-1
aa(lp116
I-1
aI-1
aI-1
aI-1
aI-1
aI-1
aa(lp117
I-1
aI-1
aI-1
aI-1
aI-1
aI-1
aa(lp118
I-1
aI-1
aI-1
aI-1
aI-1
aI-1
aa(lp119
I-1
aI-1
aI-1
aI-1
aI-1
aI-1
aa(lp120
I-1
aI-1
aI-1
aI-1
aI-1
aI-1
aa(lp121
I-1
aI-1
aI-1
aI-1
aI-1
aI-1
aa(lp122
I-1
aI-1
aI-1
aI-1
aI-1
aI-1
aa(lp123
I-1
aI-1
aI-1
aI-1
aI-1
aI-1
aa(lp124
I-1
aI-1
aI-1
aI-1
aI-1
aI-1
aa(lp125
I-1
aI-1
aI-1
aI-1
aI-1
aI-1
aa(lp126
I-1
aI-1
aI-1
aI-1
aI-1
aI-1
aa(lp127
I-1
aI-1
aI-1
aI-1
aI-1
aI-1
aa(lp128
I-1
aI-1
aI-1
aI-1
aI-1
aI-1
aa(lp129
I-1
aI-1
aI-1
aI-1
aI-1
aI-1
aa(lp130
I-1
aI-1
aI-1
aI-1
aI-1
aI-1
aa(lp131
I-1
aI-1
aI-1
aI-1
aI-1
aI-1
aa(lp132
I-1
aI-1
aI-1
aI-1
aI-1
aI-1
aa(lp133
I-1
aI-1
aI-1
aI-1
aI-1
aI-1
aa(lp134
I-1
aI-1
aI-1
aI-1
aI-1
aI-1
aa(lp135
I-1
aI-1
aI-1
aI-1
aI-1
aI-1
aa(lp136
I-1
aI-1
aI-1
aI-1
aI-1
aI-1
aa(lp137
I-1
aI-1
aI-1
aI-1
aI-1
aI-1
aa(lp138
I-1
aI-1
aI-1
aI-1
aI-1
aI-1
aa(lp139
I-1
aI-1
aI-1
aI-1
aI-1
aI-1
aa(lp140
I-1
aI-1
aI-1
aI-1
aI-1
aI-1
aa(lp141
I-1
aI-1
aI-1
aI-1
aI-1
aI-1
aa(lp142
I-1
aI-1
aI-1
aI-1
aI-1
aI-1
aa(lp143
I-1
aI-1
aI-1
aI-1
aI-1
aI-1
aa(lp144
I-1
aI-1
aI-1
aI-1
aI-1
aI-1
aa(lp145
I-1
aI-1
aI-1
aI-1
aI-1
aI-1
aa(lp146
I-1
aI-1
aI-1
aI-1
aI-1
aI-1
aa(lp147
I-1
aI-1
aI-1
aI-1
aI-1
aI-1
aa(lp148
I-1
aI-1
aI-1
aI-1
aI-1
aI-1
aa(lp149
I-1
aI-1
aI-1
aI-1
aI-1
aI-1
aa(lp150
I-1
aI-1
aI-1
aI-1
aI-1
aI-1
aa(lp151
I-1
aI-1
aI-1
aI-1
aI-1
aI-1
aa(lp152
I-1
aI-1
aI-1
aI-1
aI-1
aI-1
aa(lp153
I-1
aI-1
aI-1
aI-1
aI-1
aI-1
aa(lp154
I-1
aI-1
aI-1
aI-1
aI-1
aI-1
aa(lp155
I-1
aI-1
aI-1
aI-1
aI-1
aI-1
aa(lp156
I-1
aI-1
aI-1
aI-1
aI-1
aI-1
aa(lp157
I-1
aI-1
aI-1
aI-1
aI-1
aI-1
aa(lp158
I-1
aI-1
aI-1
aI-1
aI-1
aI-1
aa(lp159
I-1
aI-1
aI-1
aI-1
aI-1
aI-1
aa(lp160
I-1
aI-1
aI-1
aI-1
aI-1
aI-1
aa(lp161
I-1
aI-1
aI-1
aI-1
aI-1
aI-1
aa(lp162
I-1
aI-1
aI-1
aI-1
aI-1
aI-1
aa(lp163
I-1
aI-1
aI-1
aI-1
aI-1
aI-1
aa(lp164
I-1
aI-1
aI-1
aI-1
aI-1
aI-1
aa(lp165
I-1
aI-1
aI-1
aI-1
aI-1
aI-1
aa(lp166
I-1
aI-1
aI-1
aI-1
aI-1
aI-1
aa(lp167
I-1
aI-1
aI-1
aI-1
aI-1
aI-1
aa(lp168
I-1
aI-1
aI-1
aI-1
aI-1
aI-1
aa(lp169
I-1
aI-1
aI-1
aI-1
aI-1
aI-1
aa(lp170
I-1
aI-1
aI-1
aI-1
aI-1
aI-1
aa(lp171
I-1
aI-1
aI-1
aI-1
aI-1
aI-1
aa(lp172
I-1
aI-1
aI-1
aI-1
aI-1
aI-1
aa(lp173
I-1
aI-1
aI-1
aI-1
aI-1
aI-1
aasS'division'
p174
(lp175
(lp176
I-1
aI-1
aI-1
aI-1
aI-1
aI-1
aa(lp177
I-1
aI-1
aI-1
aI-1
aI-1
aI-1
aa(lp178
I-1
aI-1
aI-1
aI-1
aI-1
aI-1
aa(lp179
I-1
aI-1
aI-1
aI-1
aI-1
aI-1
aa(lp180
I-1
aI-1
aI-1
aI-1
aI-1
aI-1
aa(lp181
I-1
aI-1
aI-1
aI-1
aI-1
aI-1
aa(lp182
I-1
aI-1
aI-1
aI-1
aI-1
aI-1
aa(lp183
I-1
aI-1
aI-1
aI-1
aI-1
aI-1
aa(lp184
I-1
aI-1
aI-1
aI-1
aI-1
aI-1
aa(lp185
I-1
aI-1
aI-1
aI-1
aI-1
aI-1
aa(lp186
I-1
aI-1
aI-1
aI-1
aI-1
aI-1
aa(lp187
I-1
aI-1
aI-1
aI-1
aI-1
aI-1
aa(lp188
I-1
aI-1
aI-1
aI-1
aI-1
aI-1
aa(lp189
I-1
aI-1
aI-1
aI-1
aI-1
aI-1
aa(lp190
I-1
aI-1
aI-1
aI-1
aI-1
aI-1
aa(lp191
I-1
aI-1
aI-1
aI-1
aI-1
aI-1
aa(lp192
I-1
aI-1
aI-1
aI-1
aI-1
aI-1
aa(lp193
I-1
aI-1
aI-1
aI-1
aI-1
aI-1
aa(lp194
I-1
aI-1
aI-1
aI-1
aI-1
aI-1
aa(lp195
I-1
aI-1
aI-1
aI-1
aI-1
aI-1
aa(lp196
I-1
aI-1
aI-1
aI-1
aI-1
aI-1
aa(lp197
I-1
aI-1
aI-1
aI-1
aI-1
aI-1
aa(lp198
I-1
aI-1
aI-1
aI-1
aI-1
aI-1
aa(lp199
I-1
aI-1
aI-1
aI-1
aI-1
aI-1
aa(lp200
I-1
aI-1
aI-1
aI-1
aI-1
aI-1
aa(lp201
I-1
aI-1
aI-1
aI-1
aI-1
aI-1
aa(lp202
I-1
aI-1
aI-1
aI-1
aI-1
aI-1
aa(lp203
I-1
aI-1
aI-1
aI-1
aI-1
aI-1
aa(lp204
I-1
aI-1
aI-1
aI-1
aI-1
aI-1
aa(lp205
I-1
aI-1
aI-1
aI-1
aI-1
aI-1
aa(lp206
I-1
aI-1
aI-1
aI-1
aI-1
aI-1
aa(lp207
I-1
aI-1
aI-1
aI-1
aI-1
aI-1
aa(lp208
I-1
aI-1
aI-1
aI-1
aI-1
aI-1
aa(lp209
I-1
aI-1
aI-1
aI-1
aI-1
aI-1
aa(lp210
I-1
aI-1
aI-1
aI-1
aI-1
aI-1
aa(lp211
I-1
aI-1
aI-1
aI-1
aI-1
aI-1
aa(lp212
I-1
aI-1
aI-1
aI-1
aI-1
aI-1
aa(lp213
I-1
aI-1
aI-1
aI-1
aI-1
aI-1
aa(lp214
I-1
aI-1
aI-1
aI-1
aI-1
aI-1
aa(lp215
I-1
aI-1
aI-1
aI-1
aI-1
aI-1
aa(lp216
I-1
aI-1
aI-1
aI-1
aI-1
aI-1
aa(lp217
I-1
aI-1
aI-1
aI-1
aI-1
aI-1
aa(lp218
I-1
aI-1
aI-1
aI-1
aI-1
aI-1
aa(lp219
I-1
aI-1
aI-1
aI-1
aI-1
aI-1
aa(lp220
I-1
aI-1
aI-1
aI-1
aI-1
aI-1
aa(lp221
I-1
aI-1
aI-1
aI-1
aI-1
aI-1
aa(lp222
I-1
aI-1
aI-1
aI-1
aI-1
aI-1
aa(lp223
I-1
aI-1
aI-1
aI-1
aI-1
aI-1
aa(lp224
I-1
aI-1
aI-1
aI-1
aI-1
aI-1
aa(lp225
I-1
aI-1
aI-1
aI-1
aI-1
aI-1
aa(lp226
I-1
aI-1
aI-1
aI-1
aI-1
aI-1
aa(lp227
I-1
aI-1
aI-1
aI-1
aI-1
aI-1
aa(lp228
I-1
aI-1
aI-1
aI-1
aI-1
aI-1
aa(lp229
I-1
aI-1
aI-1
aI-1
aI-1
aI-1
aa(lp230
I-1
aI-1
aI-1
aI-1
aI-1
aI-1
aa(lp231
I-1
aI-1
aI-1
aI-1
aI-1
aI-1
aa(lp232
I-1
aI-1
aI-1
aI-1
aI-1
aI-1
aa(lp233
I-1
aI-1
aI-1
aI-1
aI-1
aI-1
aa(lp234
I-1
aI-1
aI-1
aI-1
aI-1
aI-1
aa(lp235
I-1
aI-1
aI-1
aI-1
aI-1
aI-1
aa(lp236
I-1
aI-1
aI-1
aI-1
aI-1
aI-1
aa(lp237
I-1
aI-1
aI-1
aI-1
aI-1
aI-1
aa(lp238
I-1
aI-1
aI-1
aI-1
aI-1
aI-1
aa(lp239
I-1
aI-1
aI-1
aI-1
aI-1
aI-1
aa(lp240
I-1
aI-1
aI-1
aI-1
aI-1
aI-1
aa(lp241
I-1
aI-1
aI-1
aI-1
aI-1
aI-1
aa(lp242
I-1
aI-1
aI-1
aI-1
aI-1
aI-1
aa(lp243
I-1
aI-1
aI-1
aI-1
aI-1
aI-1
aa(lp244
I-1
aI-1
aI-1
aI-1
aI-1
aI-1
aa(lp245
I-1
aI-1
aI-1
aI-1
aI-1
aI-1
aa(lp246
I-1
aI-1
aI-1
aI-1
aI-1
aI-1
aa(lp247
I-1
aI-1
aI-1
aI-1
aI-1
aI-1
aa(lp248
I-1
aI-1
aI-1
aI-1
aI-1
aI-1
aa(lp249
I-1
aI-1
aI-1
aI-1
aI-1
aI-1
aa(lp250
I-1
aI-1
aI-1
aI-1
aI-1
aI-1
aa(lp251
I-1
aI-1
aI-1
aI-1
aI-1
aI-1
aa(lp252
I-1
aI-1
aI-1
aI-1
aI-1
aI-1
aa(lp253
I-1
aI-1
aI-1
aI-1
aI-1
aI-1
aa(lp254
I-1
aI-1
aI-1
aI-1
aI-1
aI-1
aa(lp255
I-1
aI-1
aI-1
aI-1
aI-1
aI-1
aa(lp256
I-1
aI-1
aI-1
aI-1
aI-1
aI-1
aa(lp257
I-1
aI-1
aI-1
aI-1
aI-1
aI-1
aa(lp258
I-1
aI-1
aI-1
aI-1
aI-1
aI-1
aa(lp259
I-1
aI-1
aI-1
aI-1
aI-1
aI-1
aa(lp260
I-1
aI-1
aI-1
aI-1
aI-1
aI-1
aa(lp261
I-1
aI-1
aI-1
aI-1
aI-1
aI-1
aa(lp262
I-1
aI-1
aI-1
aI-1
aI-1
aI-1
aa(lp263
I-1
aI-1
aI-1
aI-1
aI-1
aI-1
aa(lp264
I-1
aI-1
aI-1
aI-1
aI-1
aI-1
aa(lp265
I-1
aI-1
aI-1
aI-1
aI-1
aI-1
aa(lp266
I-1
aI-1
aI-1
aI-1
aI-1
aI-1
aa(lp267
I-1
aI-1
aI-1
aI-1
aI-1
aI-1
aa(lp268
I-1
aI-1
aI-1
aI-1
aI-1
aI-1
aa(lp269
I-1
aI-1
aI-1
aI-1
aI-1
aI-1
aa(lp270
I-1
aI-1
aI-1
aI-1
aI-1
aI-1
aa(lp271
I-1
aI-1
aI-1
aI-1
aI-1
aI-1
aa(lp272
I-1
aI-1
aI-1
aI-1
aI-1
aI-1
aa(lp273
I-1
aI-1
aI-1
aI-1
aI-1
aI-1
aa(lp274
I-1
aI-1
aI-1
aI-1
aI-1
aI-1
aa(lp275
I-1
aI-1
aI-1
aI-1
aI-1
aI-1
aa(lp276
I-1
aI-1
aI-1
aI-1
aI-1
aI-1
aa(lp277
I-1
aI-1
aI-1
aI-1
aI-1
aI-1
aa(lp278
I-1
aI-1
aI-1
aI-1
aI-1
aI-1
aa(lp279
I-1
aI-1
aI-1
aI-1
aI-1
aI-1
aa(lp280
I-1
aI-1
aI-1
aI-1
aI-1
aI-1
aa(lp281
I-1
aI-1
aI-1
aI-1
aI-1
aI-1
aa(lp282
I-1
aI-1
aI-1
aI-1
aI-1
aI-1
aa(lp283
I-1
aI-1
aI-1
aI-1
aI-1
aI-1
aa(lp284
I-1
aI-1
aI-1
aI-1
aI-1
aI-1
aa(lp285
I-1
aI-1
aI-1
aI-1
aI-1
aI-1
aa(lp286
I-1
aI-1
aI-1
aI-1
aI-1
aI-1
aa(lp287
I-1
aI-1
aI-1
aI-1
aI-1
aI-1
aa(lp288
I-1
aI-1
aI-1
aI-1
aI-1
aI-1
aa(lp289
I-1
aI-1
aI-1
aI-1
aI-1
aI-1
aa(lp290
I-1
aI-1
aI-1
aI-1
aI-1
aI-1
aa(lp291
I-1
aI-1
aI-1
aI-1
aI-1
aI-1
aa(lp292
I-1
aI-1
aI-1
aI-1
aI-1
aI-1
aa(lp293
I-1
aI-1
aI-1
aI-1
aI-1
aI-1
aa(lp294
I-1
aI-1
aI-1
aI-1
aI-1
aI-1
aa(lp295
I-1
aI-1
aI-1
aI-1
aI-1
aI-1
aasS'israeli'
p296
(lp297
(lp298
I-1
aI-1
aI-1
aI-1
aI-1
aI-1
aa(lp299
I-1
aI-1
aI-1
aI-1
aI-1
aI-1
aa(lp300
I-1
aI-1
aI-1
aI-1
aI-1
aI-1
aa(lp301
I-1
aI-1
aI-1
aI-1
aI-1
aI-1
aa(lp302
I-1
aI-1
aI-1
aI-1
aI-1
aI-1
aa(lp303
I-1
aI-1
aI-1
aI-1
aI-1
aI-1
aa(lp304
I-1
aI-1
aI-1
aI-1
aI-1
aI-1
aa(lp305
I-1
aI-1
aI-1
aI-1
aI-1
aI-1
aa(lp306
I-1
aI-1
aI-1
aI-1
aI-1
aI-1
aa(lp307
I-1
aI-1
aI-1
aI-1
aI-1
aI-1
aa(lp308
I-1
aI-1
aI-1
aI-1
aI-1
aI-1
aa(lp309
I-1
aI-1
aI-1
aI-1
aI-1
aI-1
aa(lp310
I-1
aI-1
aI-1
aI-1
aI-1
aI-1
aa(lp311
I-1
aI-1
aI-1
aI-1
aI-1
aI-1
aa(lp312
I-1
aI-1
aI-1
aI-1
aI-1
aI-1
aa(lp313
I-1
aI-1
aI-1
aI-1
aI-1
aI-1
aa(lp314
I-1
aI-1
aI-1
aI-1
aI-1
aI-1
aa(lp315
I-1
aI-1
aI-1
aI-1
aI-1
aI-1
aasS'government'
p316
(lp317
(lp318
I-1
aI-1
aI-1
aI-1
aI-1
aI-1
aa(lp319
I-1
aI-1
aI-1
aI-1
aI-1
aI-1
aa(lp320
I-1
aI-1
aI-1
aI-1
aI-1
aI-1
aa(lp321
I-1
aI-1
aI-1
aI-1
aI-1
aI-1
aa(lp322
I-1
aI-1
aI-1
aI-1
aI-1
aI-1
aa(lp323
I-1
aI-1
aI-1
aI-1
aI-1
aI-1
aa(lp324
I-1
aI-1
aI-1
aI-1
aI-1
aI-1
aa(lp325
I-1
aI-1
aI-1
aI-1
aI-1
aI-1
aa(lp326
I-1
aI-1
aI-1
aI-1
aI-1
aI-1
aa(lp327
I-1
aI-1
aI-1
aI-1
aI-1
aI-1
aa(lp328
I-1
aI-1
aI-1
aI-1
aI-1
aI-1
aa(lp329
I-1
aI-1
aI-1
aI-1
aI-1
aI-1
aa(lp330
I-1
aI-1
aI-1
aI-1
aI-1
aI-1
aa(lp331
I-1
aI-1
aI-1
aI-1
aI-1
aI-1
aa(lp332
I-1
aI-1
aI-1
aI-1
aI-1
aI-1
aa(lp333
I-1
aI-1
aI-1
aI-1
aI-1
aI-1
aa(lp334
I-1
aI-1
aI-1
aI-1
aI-1
aI-1
aa(lp335
I-1
aI-1
aI-1
aI-1
aI-1
aI-1
aa(lp336
I-1
aI-1
aI-1
aI-1
aI-1
aI-1
aa(lp337
I-1
aI-1
aI-1
aI-1
aI-1
aI-1
aa(lp338
I-1
aI-1
aI-1
aI-1
aI-1
aI-1
aa(lp339
I-1
aI-1
aI-1
aI-1
aI-1
aI-1
aa(lp340
I-1
aI-1
aI-1
aI-1
aI-1
aI-1
aa(lp341
I-1
aI-1
aI-1
aI-1
aI-1
aI-1
aa(lp342
I-1
aI-1
aI-1
aI-1
aI-1
aI-1
aa(lp343
I-1
aI-1
aI-1
aI-1
aI-1
aI-1
aa(lp344
I-1
aI-1
aI-1
aI-1
aI-1
aI-1
aa(lp345
I-1
aI-1
aI-1
aI-1
aI-1
aI-1
aa(lp346
I-1
aI-1
aI-1
aI-1
aI-1
aI-1
aa(lp347
I-1
aI-1
aI-1
aI-1
aI-1
aI-1
aa(lp348
I-1
aI-1
aI-1
aI-1
aI-1
aI-1
aa(lp349
I-1
aI-1
aI-1
aI-1
aI-1
aI-1
aa(lp350
I-1
aI-1
aI-1
aI-1
aI-1
aI-1
aa(lp351
I-1
aI-1
aI-1
aI-1
aI-1
aI-1
aa(lp352
I-1
aI-1
aI-1
aI-1
aI-1
aI-1
aa(lp353
I-1
aI-1
aI-1
aI-1
aI-1
aI-1
aa(lp354
I-1
aI-1
aI-1
aI-1
aI-1
aI-1
aa(lp355
I-1
aI-1
aI-1
aI-1
aI-1
aI-1
aa(lp356
I-1
aI-1
aI-1
aI-1
aI-1
aI-1
aa(lp357
I-1
aI-1
aI-1
aI-1
aI-1
aI-1
aa(lp358
I-1
aI-1
aI-1
aI-1
aI-1
aI-1
aa(lp359
I-1
aI-1
aI-1
aI-1
aI-1
aI-1
aa(lp360
I-1
aI-1
aI-1
aI-1
aI-1
aI-1
aa(lp361
I-1
aI-1
aI-1
aI-1
aI-1
aI-1
aa(lp362
I-1
aI-1
aI-1
aI-1
aI-1
aI-1
aa(lp363
I-1
aI-1
aI-1
aI-1
aI-1
aI-1
aa(lp364
I-1
aI-1
aI-1
aI-1
aI-1
aI-1
aa(lp365
I-1
aI-1
aI-1
aI-1
aI-1
aI-1
aa(lp366
I-1
aI-1
aI-1
aI-1
aI-1
aI-1
aa(lp367
I-1
aI-1
aI-1
aI-1
aI-1
aI-1
aa(lp368
I-1
aI-1
aI-1
aI-1
aI-1
aI-1
aa(lp369
I-1
aI-1
aI-1
aI-1
aI-1
aI-1
aa(lp370
I-1
aI-1
aI-1
aI-1
aI-1
aI-1
aa(lp371
I-1
aI-1
aI-1
aI-1
aI-1
aI-1
aa(lp372
I-1
aI-1
aI-1
aI-1
aI-1
aI-1
aa(lp373
I-1
aI-1
aI-1
aI-1
aI-1
aI-1
aa(lp374
I-1
aI-1
aI-1
aI-1
aI-1
aI-1
aa(lp375
I-1
aI-1
aI-1
aI-1
aI-1
aI-1
aa(lp376
I-1
aI-1
aI-1
aI-1
aI-1
aI-1
aa(lp377
I-1
aI-1
aI-1
aI-1
aI-1
aI-1
aa(lp378
I-1
aI-1
aI-1
aI-1
aI-1
aI-1
aa(lp379
I-1
aI-1
aI-1
aI-1
aI-1
aI-1
aa(lp380
I-1
aI-1
aI-1
aI-1
aI-1
aI-1
aa(lp381
I-1
aI-1
aI-1
aI-1
aI-1
aI-1
aa(lp382
I-1
aI-1
aI-1
aI-1
aI-1
aI-1
aa(lp383
I-1
aI-1
aI-1
aI-1
aI-1
aI-1
aa(lp384
I-1
aI-1
aI-1
aI-1
aI-1
aI-1
aa(lp385
I-1
aI-1
aI-1
aI-1
aI-1
aI-1
aa(lp386
I-1
aI-1
aI-1
aI-1
aI-1
aI-1
aa(lp387
I-1
aI-1
aI-1
aI-1
aI-1
aI-1
aa(lp388
I-1
aI-1
aI-1
aI-1
aI-1
aI-1
aa(lp389
I-1
aI-1
aI-1
aI-1
aI-1
aI-1
aa(lp390
I-1
aI-1
aI-1
aI-1
aI-1
aI-1
aa(lp391
I-1
aI-1
aI-1
aI-1
aI-1
aI-1
aa(lp392
I-1
aI-1
aI-1
aI-1
aI-1
aI-1
aa(lp393
I-1
aI-1
aI-1
aI-1
aI-1
aI-1
aa(lp394
I-1
aI-1
aI-1
aI-1
aI-1
aI-1
aa(lp395
I-1
aI-1
aI-1
aI-1
aI-1
aI-1
aa(lp396
I-1
aI-1
aI-1
aI-1
aI-1
aI-1
aa(lp397
I-1
aI-1
aI-1
aI-1
aI-1
aI-1
aa(lp398
I-1
aI-1
aI-1
aI-1
aI-1
aI-1
aa(lp399
I-1
aI-1
aI-1
aI-1
aI-1
aI-1
aa(lp400
I-1
aI-1
aI-1
aI-1
aI-1
aI-1
aa(lp401
I-1
aI-1
aI-1
aI-1
aI-1
aI-1
aa(lp402
I-1
aI-1
aI-1
aI-1
aI-1
aI-1
aa(lp403
I-1
aI-1
aI-1
aI-1
aI-1
aI-1
aa(lp404
I-1
aI-1
aI-1
aI-1
aI-1
aI-1
aa(lp405
I-1
aI-1
aI-1
aI-1
aI-1
aI-1
aa(lp406
I-1
aI-1
aI-1
aI-1
aI-1
aI-1
aa(lp407
I-1
aI-1
aI-1
aI-1
aI-1
aI-1
aa(lp408
I-1
aI-1
aI-1
aI-1
aI-1
aI-1
aa(lp409
I-1
aI-1
aI-1
aI-1
aI-1
aI-1
aa(lp410
I-1
aI-1
aI-1
aI-1
aI-1
aI-1
aa(lp411
I-1
aI-1
aI-1
aI-1
aI-1
aI-1
aa(lp412
I-1
aI-1
aI-1
aI-1
aI-1
aI-1
aa(lp413
I-1
aI-1
aI-1
aI-1
aI-1
aI-1
aa(lp414
I-1
aI-1
aI-1
aI-1
aI-1
aI-1
aa(lp415
I-1
aI-1
aI-1
aI-1
aI-1
aI-1
aa(lp416
I-1
aI-1
aI-1
aI-1
aI-1
aI-1
aa(lp417
I-1
aI-1
aI-1
aI-1
aI-1
aI-1
aa(lp418
I-1
aI-1
aI-1
aI-1
aI-1
aI-1
aa(lp419
I-1
aI-1
aI-1
aI-1
aI-1
aI-1
aa(lp420
I-1
aI-1
aI-1
aI-1
aI-1
aI-1
aa(lp421
I-1
aI-1
aI-1
aI-1
aI-1
aI-1
aa(lp422
I-1
aI-1
aI-1
aI-1
aI-1
aI-1
aa(lp423
I-1
aI-1
aI-1
aI-1
aI-1
aI-1
aa(lp424
I-1
aI-1
aI-1
aI-1
aI-1
aI-1
aa(lp425
I-1
aI-1
aI-1
aI-1
aI-1
aI-1
aa(lp426
I-1
aI-1
aI-1
aI-1
aI-1
aI-1
aa(lp427
I-1
aI-1
aI-1
aI-1
aI-1
aI-1
aa(lp428
I-1
aI-1
aI-1
aI-1
aI-1
aI-1
aa(lp429
I-1
aI-1
aI-1
aI-1
aI-1
aI-1
aa(lp430
I-1
aI-1
aI-1
aI-1
aI-1
aI-1
aa(lp431
I-1
aI-1
aI-1
aI-1
aI-1
aI-1
aa(lp432
I-1
aI-1
aI-1
aI-1
aI-1
aI-1
aa(lp433
I-1
aI-1
aI-1
aI-1
aI-1
aI-1
aa(lp434
I-1
aI-1
aI-1
aI-1
aI-1
aI-1
aa(lp435
I-1
aI-1
aI-1
aI-1
aI-1
aI-1
aa(lp436
I-1
aI-1
aI-1
aI-1
aI-1
aI-1
aa(lp437
I-1
aI-1
aI-1
aI-1
aI-1
aI-1
aa(lp438
I-1
aI-1
aI-1
aI-1
aI-1
aI-1
aa(lp439
I-1
aI-1
aI-1
aI-1
aI-1
aI-1
aa(lp440
I-1
aI-1
aI-1
aI-1
aI-1
aI-1
aa(lp441
I-1
aI-1
aI-1
aI-1
aI-1
aI-1
aa(lp442
I-1
aI-1
aI-1
aI-1
aI-1
aI-1
aa(lp443
I-1
aI-1
aI-1
aI-1
aI-1
aI-1
aa(lp444
I-1
aI-1
aI-1
aI-1
aI-1
aI-1
aa(lp445
I-1
aI-1
aI-1
aI-1
aI-1
aI-1
aa(lp446
I-1
aI-1
aI-1
aI-1
aI-1
aI-1
aa(lp447
I-1
aI-1
aI-1
aI-1
aI-1
aI-1
aa(lp448
I-1
aI-1
aI-1
aI-1
aI-1
aI-1
aa(lp449
I-1
aI-1
aI-1
aI-1
aI-1
aI-1
aa(lp450
I-1
aI-1
aI-1
aI-1
aI-1
aI-1
aa(lp451
I-1
aI-1
aI-1
aI-1
aI-1
aI-1
aa(lp452
I-1
aI-1
aI-1
aI-1
aI-1
aI-1
aa(lp453
I-1
aI-1
aI-1
aI-1
aI-1
aI-1
aa(lp454
I-1
aI-1
aI-1
aI-1
aI-1
aI-1
aa(lp455
I-1
aI-1
aI-1
aI-1
aI-1
aI-1
aa(lp456
I-1
aI-1
aI-1
aI-1
aI-1
aI-1
aa(lp457
I-1
aI-1
aI-1
aI-1
aI-1
aI-1
aa(lp458
I-1
aI-1
aI-1
aI-1
aI-1
aI-1
aa(lp459
I-1
aI-1
aI-1
aI-1
aI-1
aI-1
aa(lp460
I-1
aI-1
aI-1
aI-1
aI-1
aI-1
aa(lp461
I-1
aI-1
aI-1
aI-1
aI-1
aI-1
aa(lp462
I-1
aI-1
aI-1
aI-1
aI-1
aI-1
aa(lp463
I-1
aI-1
aI-1
aI-1
aI-1
aI-1
aa(lp464
I-1
aI-1
aI-1
aI-1
aI-1
aI-1
aa(lp465
I-1
aI-1
aI-1
aI-1
aI-1
aI-1
aa(lp466
I-1
aI-1
aI-1
aI-1
aI-1
aI-1
aa(lp467
I-1
aI-1
aI-1
aI-1
aI-1
aI-1
aa(lp468
I-1
aI-1
aI-1
aI-1
aI-1
aI-1
aa(lp469
I-1
aI-1
aI-1
aI-1
aI-1
aI-1
aa(lp470
I-1
aI-1
aI-1
aI-1
aI-1
aI-1
aa(lp471
I-1
aI-1
aI-1
aI-1
aI-1
aI-1
aa(lp472
I-1
aI-1
aI-1
aI-1
aI-1
aI-1
aa(lp473
I-1
aI-1
aI-1
aI-1
aI-1
aI-1
aa(lp474
I-1
aI-1
aI-1
aI-1
aI-1
aI-1
aa(lp475
I-1
aI-1
aI-1
aI-1
aI-1
aI-1
aa(lp476
I-1
aI-1
aI-1
aI-1
aI-1
aI-1
aa(lp477
I-1
aI-1
aI-1
aI-1
aI-1
aI-1
aa(lp478
I-1
aI-1
aI-1
aI-1
aI-1
aI-1
aa(lp479
I-1
aI-1
aI-1
aI-1
aI-1
aI-1
aa(lp480
I-1
aI-1
aI-1
aI-1
aI-1
aI-1
aa(lp481
I-1
aI-1
aI-1
aI-1
aI-1
aI-1
aa(lp482
I-1
aI-1
aI-1
aI-1
aI-1
aI-1
aa(lp483
I-1
aI-1
aI-1
aI-1
aI-1
aI-1
aa(lp484
I-1
aI-1
aI-1
aI-1
aI-1
aI-1
aa(lp485
I-1
aI-1
aI-1
aI-1
aI-1
aI-1
aa(lp486
I-1
aI-1
aI-1
aI-1
aI-1
aI-1
aa(lp487
I-1
aI-1
aI-1
aI-1
aI-1
aI-1
aa(lp488
I-1
aI-1
aI-1
aI-1
aI-1
aI-1
aa(lp489
I-1
aI-1
aI-1
aI-1
aI-1
aI-1
aa(lp490
I-1
aI-1
aI-1
aI-1
aI-1
aI-1
aa(lp491
I-1
aI-1
aI-1
aI-1
aI-1
aI-1
aa(lp492
I-1
aI-1
aI-1
aI-1
aI-1
aI-1
aa(lp493
I-1
aI-1
aI-1
aI-1
aI-1
aI-1
aa(lp494
I-1
aI-1
aI-1
aI-1
aI-1
aI-1
aa(lp495
I-1
aI-1
aI-1
aI-1
aI-1
aI-1
aa(lp496
I-1
aI-1
aI-1
aI-1
aI-1
aI-1
aa(lp497
I-1
aI-1
aI-1
aI-1
aI-1
aI-1
aa(lp498
I-1
aI-1
aI-1
aI-1
aI-1
aI-1
aa(lp499
I-1
aI-1
aI-1
aI-1
aI-1
aI-1
aa(lp500
I-1
aI-1
aI-1
aI-1
aI-1
aI-1
aa(lp501
I-1
aI-1
aI-1
aI-1
aI-1
aI-1
aa(lp502
I-1
aI-1
aI-1
aI-1
aI-1
aI-1
aa(lp503
I-1
aI-1
aI-1
aI-1
aI-1
aI-1
aa(lp504
I-1
aI-1
aI-1
aI-1
aI-1
aI-1
aa(lp505
I-1
aI-1
aI-1
aI-1
aI-1
aI-1
aa(lp506
I-1
aI-1
aI-1
aI-1
aI-1
aI-1
aa(lp507
I-1
aI-1
aI-1
aI-1
aI-1
aI-1
aa(lp508
I-1
aI-1
aI-1
aI-1
aI-1
aI-1
aa(lp509
I-1
aI-1
aI-1
aI-1
aI-1
aI-1
aa(lp510
I-1
aI-1
aI-1
aI-1
aI-1
aI-1
aa(lp511
I-1
aI-1
aI-1
aI-1
aI-1
aI-1
aa(lp512
I-1
aI-1
aI-1
aI-1
aI-1
aI-1
aa(lp513
I-1
aI-1
aI-1
aI-1
aI-1
aI-1
aa(lp514
I-1
aI-1
aI-1
aI-1
aI-1
aI-1
aa(lp515
I-1
aI-1
aI-1
aI-1
aI-1
aI-1
aa(lp516
I-1
aI-1
aI-1
aI-1
aI-1
aI-1
aa(lp517
I-1
aI-1
aI-1
aI-1
aI-1
aI-1
aa(lp518
I-1
aI-1
aI-1
aI-1
aI-1
aI-1
aa(lp519
I-1
aI-1
aI-1
aI-1
aI-1
aI-1
aa(lp520
I-1
aI-1
aI-1
aI-1
aI-1
aI-1
aa(lp521
I-1
aI-1
aI-1
aI-1
aI-1
aI-1
aa(lp522
I-1
aI-1
aI-1
aI-1
aI-1
aI-1
aa(lp523
I-1
aI-1
aI-1
aI-1
aI-1
aI-1
aa(lp524
I-1
aI-1
aI-1
aI-1
aI-1
aI-1
aa(lp525
I-1
aI-1
aI-1
aI-1
aI-1
aI-1
aa(lp526
I-1
aI-1
aI-1
aI-1
aI-1
aI-1
aa(lp527
I-1
aI-1
aI-1
aI-1
aI-1
aI-1
aa(lp528
I-1
aI-1
aI-1
aI-1
aI-1
aI-1
aa(lp529
I-1
aI-1
aI-1
aI-1
aI-1
aI-1
aa(lp530
I-1
aI-1
aI-1
aI-1
aI-1
aI-1
aa(lp531
I-1
aI-1
aI-1
aI-1
aI-1
aI-1
aa(lp532
I-1
aI-1
aI-1
aI-1
aI-1
aI-1
aa(lp533
I-1
aI-1
aI-1
aI-1
aI-1
aI-1
aa(lp534
I-1
aI-1
aI-1
aI-1
aI-1
aI-1
aa(lp535
I-1
aI-1
aI-1
aI-1
aI-1
aI-1
aa(lp536
I-1
aI-1
aI-1
aI-1
aI-1
aI-1
aa(lp537
I-1
aI-1
aI-1
aI-1
aI-1
aI-1
aa(lp538
I-1
aI-1
aI-1
aI-1
aI-1
aI-1
aa(lp539
I-1
aI-1
aI-1
aI-1
aI-1
aI-1
aa(lp540
I-1
aI-1
aI-1
aI-1
aI-1
aI-1
aa(lp541
I-1
aI-1
aI-1
aI-1
aI-1
aI-1
aa(lp542
I-1
aI-1
aI-1
aI-1
aI-1
aI-1
aa(lp543
I-1
aI-1
aI-1
aI-1
aI-1
aI-1
aa(lp544
I-1
aI-1
aI-1
aI-1
aI-1
aI-1
aa(lp545
I-1
aI-1
aI-1
aI-1
aI-1
aI-1
aa(lp546
I-1
aI-1
aI-1
aI-1
aI-1
aI-1
aa(lp547
I-1
aI-1
aI-1
aI-1
aI-1
aI-1
aa(lp548
I-1
aI-1
aI-1
aI-1
aI-1
aI-1
aa(lp549
I-1
aI-1
aI-1
aI-1
aI-1
aI-1
aa(lp550
I-1
aI-1
aI-1
aI-1
aI-1
aI-1
aa(lp551
I-1
aI-1
aI-1
aI-1
aI-1
aI-1
aa(lp552
I-1
aI-1
aI-1
aI-1
aI-1
aI-1
aa(lp553
I-1
aI-1
aI-1
aI-1
aI-1
aI-1
aa(lp554
I-1
aI-1
aI-1
aI-1
aI-1
aI-1
aa(lp555
I-1
aI-1
aI-1
aI-1
aI-1
aI-1
aa(lp556
I-1
aI-1
aI-1
aI-1
aI-1
aI-1
aa(lp557
I-1
aI-1
aI-1
aI-1
aI-1
aI-1
aa(lp558
I-1
aI-1
aI-1
aI-1
aI-1
aI-1
aa(lp559
I-1
aI-1
aI-1
aI-1
aI-1
aI-1
aa(lp560
I-1
aI-1
aI-1
aI-1
aI-1
aI-1
aa(lp561
I-1
aI-1
aI-1
aI-1
aI-1
aI-1
aa(lp562
I-1
aI-1
aI-1
aI-1
aI-1
aI-1
aa(lp563
I-1
aI-1
aI-1
aI-1
aI-1
aI-1
aa(lp564
I-1
aI-1
aI-1
aI-1
aI-1
aI-1
aa(lp565
I-1
aI-1
aI-1
aI-1
aI-1
aI-1
aa(lp566
I-1
aI-1
aI-1
aI-1
aI-1
aI-1
aa(lp567
I-1
aI-1
aI-1
aI-1
aI-1
aI-1
aa(lp568
I-1
aI-1
aI-1
aI-1
aI-1
aI-1
aa(lp569
I-1
aI-1
aI-1
aI-1
aI-1
aI-1
aa(lp570
I-1
aI-1
aI-1
aI-1
aI-1
aI-1
aa(lp571
I-1
aI-1
aI-1
aI-1
aI-1
aI-1
aa(lp572
I-1
aI-1
aI-1
aI-1
aI-1
aI-1
aa(lp573
I-1
aI-1
aI-1
aI-1
aI-1
aI-1
aa(lp574
I-1
aI-1
aI-1
aI-1
aI-1
aI-1
aa(lp575
I-1
aI-1
aI-1
aI-1
aI-1
aI-1
aa(lp576
I-1
aI-1
aI-1
aI-1
aI-1
aI-1
aa(lp577
I-1
aI-1
aI-1
aI-1
aI-1
aI-1
aa(lp578
I-1
aI-1
aI-1
aI-1
aI-1
aI-1
aa(lp579
I-1
aI-1
aI-1
aI-1
aI-1
aI-1
aa(lp580
I-1
aI-1
aI-1
aI-1
aI-1
aI-1
aa(lp581
I-1
aI-1
aI-1
aI-1
aI-1
aI-1
aa(lp582
I-1
aI-1
aI-1
aI-1
aI-1
aI-1
aa(lp583
I-1
aI-1
aI-1
aI-1
aI-1
aI-1
aa(lp584
I-1
aI-1
aI-1
aI-1
aI-1
aI-1
aa(lp585
I-1
aI-1
aI-1
aI-1
aI-1
aI-1
aa(lp586
I-1
aI-1
aI-1
aI-1
aI-1
aI-1
aa(lp587
I-1
aI-1
aI-1
aI-1
aI-1
aI-1
aa(lp588
I-1
aI-1
aI-1
aI-1
aI-1
aI-1
aa(lp589
I-1
aI-1
aI-1
aI-1
aI-1
aI-1
aa(lp590
I-1
aI-1
aI-1
aI-1
aI-1
aI-1
aa(lp591
I-1
aI-1
aI-1
aI-1
aI-1
aI-1
aa(lp592
I-1
aI-1
aI-1
aI-1
aI-1
aI-1
aa(lp593
I-1
aI-1
aI-1
aI-1
aI-1
aI-1
aa(lp594
I-1
aI-1
aI-1
aI-1
aI-1
aI-1
aa(lp595
I-1
aI-1
aI-1
aI-1
aI-1
aI-1
aa(lp596
I-1
aI-1
aI-1
aI-1
aI-1
aI-1
aa(lp597
I-1
aI-1
aI-1
aI-1
aI-1
aI-1
aa(lp598
I-1
aI-1
aI-1
aI-1
aI-1
aI-1
aa(lp599
I-1
aI-1
aI-1
aI-1
aI-1
aI-1
aa(lp600
I-1
aI-1
aI-1
aI-1
aI-1
aI-1
aa(lp601
I-1
aI-1
aI-1
aI-1
aI-1
aI-1
aa(lp602
I-1
aI-1
aI-1
aI-1
aI-1
aI-1
aa(lp603
I-1
aI-1
aI-1
aI-1
aI-1
aI-1
aa(lp604
I-1
aI-1
aI-1
aI-1
aI-1
aI-1
aa(lp605
I-1
aI-1
aI-1
aI-1
aI-1
aI-1
aa(lp606
I-1
aI-1
aI-1
aI-1
aI-1
aI-1
aa(lp607
I-1
aI-1
aI-1
aI-1
aI-1
aI-1
aa(lp608
I-1
aI-1
aI-1
aI-1
aI-1
aI-1
aa(lp609
I-1
aI-1
aI-1
aI-1
aI-1
aI-1
aa(lp610
I-1
aI-1
aI-1
aI-1
aI-1
aI-1
aa(lp611
I-1
aI-1
aI-1
aI-1
aI-1
aI-1
aa(lp612
I-1
aI-1
aI-1
aI-1
aI-1
aI-1
aa(lp613
I-1
aI-1
aI-1
aI-1
aI-1
aI-1
aa(lp614
I-1
aI-1
aI-1
aI-1
aI-1
aI-1
aa(lp615
I-1
aI-1
aI-1
aI-1
aI-1
aI-1
aa(lp616
I-1
aI-1
aI-1
aI-1
aI-1
aI-1
aa(lp617
I-1
aI-1
aI-1
aI-1
aI-1
aI-1
aa(lp618
I-1
aI-1
aI-1
aI-1
aI-1
aI-1
aa(lp619
I-1
aI-1
aI-1
aI-1
aI-1
aI-1
aa(lp620
I-1
aI-1
aI-1
aI-1
aI-1
aI-1
aa(lp621
I-1
aI-1
aI-1
aI-1
aI-1
aI-1
aa(lp622
I-1
aI-1
aI-1
aI-1
aI-1
aI-1
aa(lp623
I-1
aI-1
aI-1
aI-1
aI-1
aI-1
aa(lp624
I-1
aI-1
aI-1
aI-1
aI-1
aI-1
aa(lp625
I-1
aI-1
aI-1
aI-1
aI-1
aI-1
aa(lp626
I-1
aI-1
aI-1
aI-1
aI-1
aI-1
aa(lp627
I-1
aI-1
aI-1
aI-1
aI-1
aI-1
aa(lp628
I-1
aI-1
aI-1
aI-1
aI-1
aI-1
aa(lp629
I-1
aI-1
aI-1
aI-1
aI-1
aI-1
aa(lp630
I-1
aI-1
aI-1
aI-1
aI-1
aI-1
aa(lp631
I-1
aI-1
aI-1
aI-1
aI-1
aI-1
aa(lp632
I-1
aI-1
aI-1
aI-1
aI-1
aI-1
aa(lp633
I-1
aI-1
aI-1
aI-1
aI-1
aI-1
aa(lp634
I-1
aI-1
aI-1
aI-1
aI-1
aI-1
aa(lp635
I-1
aI-1
aI-1
aI-1
aI-1
aI-1
aa(lp636
I-1
aI-1
aI-1
aI-1
aI-1
aI-1
aa(lp637
I-1
aI-1
aI-1
aI-1
aI-1
aI-1
aa(lp638
I-1
aI-1
aI-1
aI-1
aI-1
aI-1
aa(lp639
I-1
aI-1
aI-1
aI-1
aI-1
aI-1
aa(lp640
I-1
aI-1
aI-1
aI-1
aI-1
aI-1
aa(lp641
I-1
aI-1
aI-1
aI-1
aI-1
aI-1
aa(lp642
I-1
aI-1
aI-1
aI-1
aI-1
aI-1
aa(lp643
I-1
aI-1
aI-1
aI-1
aI-1
aI-1
aa(lp644
I-1
aI-1
aI-1
aI-1
aI-1
aI-1
aa(lp645
I-1
aI-1
aI-1
aI-1
aI-1
aI-1
aa(lp646
I-1
aI-1
aI-1
aI-1
aI-1
aI-1
aa(lp647
I-1
aI-1
aI-1
aI-1
aI-1
aI-1
aa(lp648
I-1
aI-1
aI-1
aI-1
aI-1
aI-1
aa(lp649
I-1
aI-1
aI-1
aI-1
aI-1
aI-1
aa(lp650
I-1
aI-1
aI-1
aI-1
aI-1
aI-1
aa(lp651
I-1
aI-1
aI-1
aI-1
aI-1
aI-1
aa(lp652
I-1
aI-1
aI-1
aI-1
aI-1
aI-1
aa(lp653
I-1
aI-1
aI-1
aI-1
aI-1
aI-1
aa(lp654
I-1
aI-1
aI-1
aI-1
aI-1
aI-1
aa(lp655
I-1
aI-1
aI-1
aI-1
aI-1
aI-1
aa(lp656
I-1
aI-1
aI-1
aI-1
aI-1
aI-1
aa(lp657
I-1
aI-1
aI-1
aI-1
aI-1
aI-1
aa(lp658
I-1
aI-1
aI-1
aI-1
aI-1
aI-1
aa(lp659
I-1
aI-1
aI-1
aI-1
aI-1
aI-1
aa(lp660
I-1
aI-1
aI-1
aI-1
aI-1
aI-1
aa(lp661
I-1
aI-1
aI-1
aI-1
aI-1
aI-1
aa(lp662
I-1
aI-1
aI-1
aI-1
aI-1
aI-1
aa(lp663
I-1
aI-1
aI-1
aI-1
aI-1
aI-1
aa(lp664
I-1
aI-1
aI-1
aI-1
aI-1
aI-1
aa(lp665
I-1
aI-1
aI-1
aI-1
aI-1
aI-1
aa(lp666
I-1
aI-1
aI-1
aI-1
aI-1
aI-1
aa(lp667
I-1
aI-1
aI-1
aI-1
aI-1
aI-1
aa(lp668
I-1
aI-1
aI-1
aI-1
aI-1
aI-1
aa(lp669
I-1
aI-1
aI-1
aI-1
aI-1
aI-1
aa(lp670
I-1
aI-1
aI-1
aI-1
aI-1
aI-1
aa(lp671
I-1
aI-1
aI-1
aI-1
aI-1
aI-1
aa(lp672
I-1
aI-1
aI-1
aI-1
aI-1
aI-1
aa(lp673
I-1
aI-1
aI-1
aI-1
aI-1
aI-1
aa(lp674
I-1
aI-1
aI-1
aI-1
aI-1
aI-1
aa(lp675
I-1
aI-1
aI-1
aI-1
aI-1
aI-1
aa(lp676
I-1
aI-1
aI-1
aI-1
aI-1
aI-1
aa(lp677
I-1
aI-1
aI-1
aI-1
aI-1
aI-1
aa(lp678
I-1
aI-1
aI-1
aI-1
aI-1
aI-1
aa(lp679
I-1
aI-1
aI-1
aI-1
aI-1
aI-1
aa(lp680
I-1
aI-1
aI-1
aI-1
aI-1
aI-1
aa(lp681
I-1
aI-1
aI-1
aI-1
aI-1
aI-1
aa(lp682
I-1
aI-1
aI-1
aI-1
aI-1
aI-1
aa(lp683
I-1
aI-1
aI-1
aI-1
aI-1
aI-1
aa(lp684
I-1
aI-1
aI-1
aI-1
aI-1
aI-1
aa(lp685
I-1
aI-1
aI-1
aI-1
aI-1
aI-1
aa(lp686
I-1
aI-1
aI-1
aI-1
aI-1
aI-1
aa(lp687
I-1
aI-1
aI-1
aI-1
aI-1
aI-1
aa(lp688
I-1
aI-1
aI-1
aI-1
aI-1
aI-1
aa(lp689
I-1
aI-1
aI-1
aI-1
aI-1
aI-1
aa(lp690
I-1
aI-1
aI-1
aI-1
aI-1
aI-1
aa(lp691
I-1
aI-1
aI-1
aI-1
aI-1
aI-1
aa(lp692
I-1
aI-1
aI-1
aI-1
aI-1
aI-1
aa(lp693
I-1
aI-1
aI-1
aI-1
aI-1
aI-1
aa(lp694
I-1
aI-1
aI-1
aI-1
aI-1
aI-1
aa(lp695
I-1
aI-1
aI-1
aI-1
aI-1
aI-1
aa(lp696
I-1
aI-1
aI-1
aI-1
aI-1
aI-1
aa(lp697
I-1
aI-1
aI-1
aI-1
aI-1
aI-1
aa(lp698
I-1
aI-1
aI-1
aI-1
aI-1
aI-1
aa(lp699
I-1
aI-1
aI-1
aI-1
aI-1
aI-1
aa(lp700
I-1
aI-1
aI-1
aI-1
aI-1
aI-1
aa(lp701
I-1
aI-1
aI-1
aI-1
aI-1
aI-1
aa(lp702
I-1
aI-1
aI-1
aI-1
aI-1
aI-1
aa(lp703
I-1
aI-1
aI-1
aI-1
aI-1
aI-1
aa(lp704
I-1
aI-1
aI-1
aI-1
aI-1
aI-1
aa(lp705
I-1
aI-1
aI-1
aI-1
aI-1
aI-1
aa(lp706
I-1
aI-1
aI-1
aI-1
aI-1
aI-1
aa(lp707
I-1
aI-1
aI-1
aI-1
aI-1
aI-1
aa(lp708
I-1
aI-1
aI-1
aI-1
aI-1
aI-1
aa(lp709
I-1
aI-1
aI-1
aI-1
aI-1
aI-1
aa(lp710
I-1
aI-1
aI-1
aI-1
aI-1
aI-1
aa(lp711
I-1
aI-1
aI-1
aI-1
aI-1
aI-1
aa(lp712
I-1
aI-1
aI-1
aI-1
aI-1
aI-1
aa(lp713
I-1
aI-1
aI-1
aI-1
aI-1
aI-1
aa(lp714
I-1
aI-1
aI-1
aI-1
aI-1
aI-1
aa(lp715
I-1
aI-1
aI-1
aI-1
aI-1
aI-1
aa(lp716
I-1
aI-1
aI-1
aI-1
aI-1
aI-1
aa(lp717
I-1
aI-1
aI-1
aI-1
aI-1
aI-1
aa(lp718
I-1
aI-1
aI-1
aI-1
aI-1
aI-1
aa(lp719
I-1
aI-1
aI-1
aI-1
aI-1
aI-1
aa(lp720
I-1
aI-1
aI-1
aI-1
aI-1
aI-1
aa(lp721
I-1
aI-1
aI-1
aI-1
aI-1
aI-1
aa(lp722
I-1
aI-1
aI-1
aI-1
aI-1
aI-1
aa(lp723
I-1
aI-1
aI-1
aI-1
aI-1
aI-1
aa(lp724
I-1
aI-1
aI-1
aI-1
aI-1
aI-1
aa(lp725
I-1
aI-1
aI-1
aI-1
aI-1
aI-1
aa(lp726
I-1
aI-1
aI-1
aI-1
aI-1
aI-1
aa(lp727
I-1
aI-1
aI-1
aI-1
aI-1
aI-1
aa(lp728
I-1
aI-1
aI-1
aI-1
aI-1
aI-1
aa(lp729
I-1
aI-1
aI-1
aI-1
aI-1
aI-1
aa(lp730
I-1
aI-1
aI-1
aI-1
aI-1
aI-1
aa(lp731
I-1
aI-1
aI-1
aI-1
aI-1
aI-1
aa(lp732
I-1
aI-1
aI-1
aI-1
aI-1
aI-1
aa(lp733
I-1
aI-1
aI-1
aI-1
aI-1
aI-1
aa(lp734
I-1
aI-1
aI-1
aI-1
aI-1
aI-1
aa(lp735
I-1
aI-1
aI-1
aI-1
aI-1
aI-1
aa(lp736
I-1
aI-1
aI-1
aI-1
aI-1
aI-1
aa(lp737
I-1
aI-1
aI-1
aI-1
aI-1
aI-1
aa(lp738
I-1
aI-1
aI-1
aI-1
aI-1
aI-1
aa(lp739
I-1
aI-1
aI-1
aI-1
aI-1
aI-1
aa(lp740
I-1
aI-1
aI-1
aI-1
aI-1
aI-1
aa(lp741
I-1
aI-1
aI-1
aI-1
aI-1
aI-1
aa(lp742
I-1
aI-1
aI-1
aI-1
aI-1
aI-1
aa(lp743
I-1
aI-1
aI-1
aI-1
aI-1
aI-1
aa(lp744
I-1
aI-1
aI-1
aI-1
aI-1
aI-1
aa(lp745
I-1
aI-1
aI-1
aI-1
aI-1
aI-1
aa(lp746
I-1
aI-1
aI-1
aI-1
aI-1
aI-1
aa(lp747
I-1
aI-1
aI-1
aI-1
aI-1
aI-1
aa(lp748
I-1
aI-1
aI-1
aI-1
aI-1
aI-1
aa(lp749
I-1
aI-1
aI-1
aI-1
aI-1
aI-1
aa(lp750
I-1
aI-1
aI-1
aI-1
aI-1
aI-1
aa(lp751
I-1
aI-1
aI-1
aI-1
aI-1
aI-1
aa(lp752
I-1
aI-1
aI-1
aI-1
aI-1
aI-1
aa(lp753
I-1
aI-1
aI-1
aI-1
aI-1
aI-1
aa(lp754
I-1
aI-1
aI-1
aI-1
aI-1
aI-1
aa(lp755
I-1
aI-1
aI-1
aI-1
aI-1
aI-1
aa(lp756
I-1
aI-1
aI-1
aI-1
aI-1
aI-1
aa(lp757
I-1
aI-1
aI-1
aI-1
aI-1
aI-1
aa(lp758
I-1
aI-1
aI-1
aI-1
aI-1
aI-1
aa(lp759
I-1
aI-1
aI-1
aI-1
aI-1
aI-1
aa(lp760
I-1
aI-1
aI-1
aI-1
aI-1
aI-1
aa(lp761
I-1
aI-1
aI-1
aI-1
aI-1
aI-1
aa(lp762
I-1
aI-1
aI-1
aI-1
aI-1
aI-1
aa(lp763
I-1
aI-1
aI-1
aI-1
aI-1
aI-1
aa(lp764
I-1
aI-1
aI-1
aI-1
aI-1
aI-1
aa(lp765
I-1
aI-1
aI-1
aI-1
aI-1
aI-1
aa(lp766
I-1
aI-1
aI-1
aI-1
aI-1
aI-1
aa(lp767
I-1
aI-1
aI-1
aI-1
aI-1
aI-1
aa(lp768
I-1
aI-1
aI-1
aI-1
aI-1
aI-1
aa(lp769
I-1
aI-1
aI-1
aI-1
aI-1
aI-1
aa(lp770
I-1
aI-1
aI-1
aI-1
aI-1
aI-1
aa(lp771
I-1
aI-1
aI-1
aI-1
aI-1
aI-1
aa(lp772
I-1
aI-1
aI-1
aI-1
aI-1
aI-1
aa(lp773
I-1
aI-1
aI-1
aI-1
aI-1
aI-1
aa(lp774
I-1
aI-1
aI-1
aI-1
aI-1
aI-1
aa(lp775
I-1
aI-1
aI-1
aI-1
aI-1
aI-1
aa(lp776
I-1
aI-1
aI-1
aI-1
aI-1
aI-1
aa(lp777
I-1
aI-1
aI-1
aI-1
aI-1
aI-1
aa(lp778
I-1
aI-1
aI-1
aI-1
aI-1
aI-1
aa(lp779
I-1
aI-1
aI-1
aI-1
aI-1
aI-1
aa(lp780
I-1
aI-1
aI-1
aI-1
aI-1
aI-1
aa(lp781
I-1
aI-1
aI-1
aI-1
aI-1
aI-1
aa(lp782
I-1
aI-1
aI-1
aI-1
aI-1
aI-1
aa(lp783
I-1
aI-1
aI-1
aI-1
aI-1
aI-1
aa(lp784
I-1
aI-1
aI-1
aI-1
aI-1
aI-1
aa(lp785
I-1
aI-1
aI-1
aI-1
aI-1
aI-1
aa(lp786
I-1
aI-1
aI-1
aI-1
aI-1
aI-1
aa(lp787
I-1
aI-1
aI-1
aI-1
aI-1
aI-1
aa(lp788
I-1
aI-1
aI-1
aI-1
aI-1
aI-1
aa(lp789
I-1
aI-1
aI-1
aI-1
aI-1
aI-1
aa(lp790
I-1
aI-1
aI-1
aI-1
aI-1
aI-1
aa(lp791
I-1
aI-1
aI-1
aI-1
aI-1
aI-1
aa(lp792
I-1
aI-1
aI-1
aI-1
aI-1
aI-1
aa(lp793
I-1
aI-1
aI-1
aI-1
aI-1
aI-1
aa(lp794
I-1
aI-1
aI-1
aI-1
aI-1
aI-1
aa(lp795
I-1
aI-1
aI-1
aI-1
aI-1
aI-1
aa(lp796
I-1
aI-1
aI-1
aI-1
aI-1
aI-1
aa(lp797
I-1
aI-1
aI-1
aI-1
aI-1
aI-1
aa(lp798
I-1
aI-1
aI-1
aI-1
aI-1
aI-1
aa(lp799
I-1
aI-1
aI-1
aI-1
aI-1
aI-1
aa(lp800
I-1
aI-1
aI-1
aI-1
aI-1
aI-1
aa(lp801
I-1
aI-1
aI-1
aI-1
aI-1
aI-1
aa(lp802
I-1
aI-1
aI-1
aI-1
aI-1
aI-1
aa(lp803
I-1
aI-1
aI-1
aI-1
aI-1
aI-1
aa(lp804
I-1
aI-1
aI-1
aI-1
aI-1
aI-1
aa(lp805
I-1
aI-1
aI-1
aI-1
aI-1
aI-1
aa(lp806
I-1
aI-1
aI-1
aI-1
aI-1
aI-1
aa(lp807
I-1
aI-1
aI-1
aI-1
aI-1
aI-1
aa(lp808
I-1
aI-1
aI-1
aI-1
aI-1
aI-1
aa(lp809
I-1
aI-1
aI-1
aI-1
aI-1
aI-1
aa(lp810
I-1
aI-1
aI-1
aI-1
aI-1
aI-1
aa(lp811
I-1
aI-1
aI-1
aI-1
aI-1
aI-1
aa(lp812
I-1
aI-1
aI-1
aI-1
aI-1
aI-1
aa(lp813
I-1
aI-1
aI-1
aI-1
aI-1
aI-1
aa(lp814
I-1
aI-1
aI-1
aI-1
aI-1
aI-1
aa(lp815
I-1
aI-1
aI-1
aI-1
aI-1
aI-1
aa(lp816
I-1
aI-1
aI-1
aI-1
aI-1
aI-1
aa(lp817
I-1
aI-1
aI-1
aI-1
aI-1
aI-1
aa(lp818
I-1
aI-1
aI-1
aI-1
aI-1
aI-1
aa(lp819
I-1
aI-1
aI-1
aI-1
aI-1
aI-1
aa(lp820
I-1
aI-1
aI-1
aI-1
aI-1
aI-1
aa(lp821
I-1
aI-1
aI-1
aI-1
aI-1
aI-1
aa(lp822
I-1
aI-1
aI-1
aI-1
aI-1
aI-1
aa(lp823
I-1
aI-1
aI-1
aI-1
aI-1
aI-1
aa(lp824
I-1
aI-1
aI-1
aI-1
aI-1
aI-1
aa(lp825
I-1
aI-1
aI-1
aI-1
aI-1
aI-1
aa(lp826
I-1
aI-1
aI-1
aI-1
aI-1
aI-1
aa(lp827
I-1
aI-1
aI-1
aI-1
aI-1
aI-1
aa(lp828
I-1
aI-1
aI-1
aI-1
aI-1
aI-1
aa(lp829
I-1
aI-1
aI-1
aI-1
aI-1
aI-1
aa(lp830
I-1
aI-1
aI-1
aI-1
aI-1
aI-1
aa(lp831
I-1
aI-1
aI-1
aI-1
aI-1
aI-1
aa(lp832
I-1
aI-1
aI-1
aI-1
aI-1
aI-1
aa(lp833
I-1
aI-1
aI-1
aI-1
aI-1
aI-1
aa(lp834
I-1
aI-1
aI-1
aI-1
aI-1
aI-1
aa(lp835
I-1
aI-1
aI-1
aI-1
aI-1
aI-1
aa(lp836
I-1
aI-1
aI-1
aI-1
aI-1
aI-1
aa(lp837
I-1
aI-1
aI-1
aI-1
aI-1
aI-1
aa(lp838
I-1
aI-1
aI-1
aI-1
aI-1
aI-1
aa(lp839
I-1
aI-1
aI-1
aI-1
aI-1
aI-1
aa(lp840
I-1
aI-1
aI-1
aI-1
aI-1
aI-1
aa(lp841
I-1
aI-1
aI-1
aI-1
aI-1
aI-1
aa(lp842
I-1
aI-1
aI-1
aI-1
aI-1
aI-1
aa(lp843
I-1
aI-1
aI-1
aI-1
aI-1
aI-1
aa(lp844
I-1
aI-1
aI-1
aI-1
aI-1
aI-1
aa(lp845
I-1
aI-1
aI-1
aI-1
aI-1
aI-1
aa(lp846
I-1
aI-1
aI-1
aI-1
aI-1
aI-1
aa(lp847
I-1
aI-1
aI-1
aI-1
aI-1
aI-1
aa(lp848
I-1
aI-1
aI-1
aI-1
aI-1
aI-1
aa(lp849
I-1
aI-1
aI-1
aI-1
aI-1
aI-1
aa(lp850
I-1
aI-1
aI-1
aI-1
aI-1
aI-1
aa(lp851
I-1
aI-1
aI-1
aI-1
aI-1
aI-1
aa(lp852
I-1
aI-1
aI-1
aI-1
aI-1
aI-1
aa(lp853
I-1
aI-1
aI-1
aI-1
aI-1
aI-1
aa(lp854
I-1
aI-1
aI-1
aI-1
aI-1
aI-1
aa(lp855
I-1
aI-1
aI-1
aI-1
aI-1
aI-1
aa(lp856
I-1
aI-1
aI-1
aI-1
aI-1
aI-1
aa(lp857
I-1
aI-1
aI-1
aI-1
aI-1
aI-1
aa(lp858
I-1
aI-1
aI-1
aI-1
aI-1
aI-1
aa(lp859
I-1
aI-1
aI-1
aI-1
aI-1
aI-1
aa(lp860
I-1
aI-1
aI-1
aI-1
aI-1
aI-1
aa(lp861
I-1
aI-1
aI-1
aI-1
aI-1
aI-1
aa(lp862
I-1
aI-1
aI-1
aI-1
aI-1
aI-1
aa(lp863
I-1
aI-1
aI-1
aI-1
aI-1
aI-1
aa(lp864
I-1
aI-1
aI-1
aI-1
aI-1
aI-1
aa(lp865
I-1
aI-1
aI-1
aI-1
aI-1
aI-1
aa(lp866
I-1
aI-1
aI-1
aI-1
aI-1
aI-1
aa(lp867
I-1
aI-1
aI-1
aI-1
aI-1
aI-1
aa(lp868
I-1
aI-1
aI-1
aI-1
aI-1
aI-1
aa(lp869
I-1
aI-1
aI-1
aI-1
aI-1
aI-1
aa(lp870
I-1
aI-1
aI-1
aI-1
aI-1
aI-1
aa(lp871
I-1
aI-1
aI-1
aI-1
aI-1
aI-1
aa(lp872
I-1
aI-1
aI-1
aI-1
aI-1
aI-1
aa(lp873
I-1
aI-1
aI-1
aI-1
aI-1
aI-1
aa(lp874
I-1
aI-1
aI-1
aI-1
aI-1
aI-1
aa(lp875
I-1
aI-1
aI-1
aI-1
aI-1
aI-1
aa(lp876
I-1
aI-1
aI-1
aI-1
aI-1
aI-1
aa(lp877
I-1
aI-1
aI-1
aI-1
aI-1
aI-1
aa(lp878
I-1
aI-1
aI-1
aI-1
aI-1
aI-1
aa(lp879
I-1
aI-1
aI-1
aI-1
aI-1
aI-1
aa(lp880
I-1
aI-1
aI-1
aI-1
aI-1
aI-1
aa(lp881
I-1
aI-1
aI-1
aI-1
aI-1
aI-1
aa(lp882
I-1
aI-1
aI-1
aI-1
aI-1
aI-1
aa(lp883
I-1
aI-1
aI-1
aI-1
aI-1
aI-1
aa(lp884
I-1
aI-1
aI-1
aI-1
aI-1
aI-1
aa(lp885
I-1
aI-1
aI-1
aI-1
aI-1
aI-1
aa(lp886
I-1
aI-1
aI-1
aI-1
aI-1
aI-1
aa(lp887
I-1
aI-1
aI-1
aI-1
aI-1
aI-1
aa(lp888
I-1
aI-1
aI-1
aI-1
aI-1
aI-1
aa(lp889
I-1
aI-1
aI-1
aI-1
aI-1
aI-1
aa(lp890
I-1
aI-1
aI-1
aI-1
aI-1
aI-1
aa(lp891
I-1
aI-1
aI-1
aI-1
aI-1
aI-1
aa(lp892
I-1
aI-1
aI-1
aI-1
aI-1
aI-1
aa(lp893
I-1
aI-1
aI-1
aI-1
aI-1
aI-1
aa(lp894
I-1
aI-1
aI-1
aI-1
aI-1
aI-1
aa(lp895
I-1
aI-1
aI-1
aI-1
aI-1
aI-1
aa(lp896
I-1
aI-1
aI-1
aI-1
aI-1
aI-1
aa(lp897
I-1
aI-1
aI-1
aI-1
aI-1
aI-1
aa(lp898
I-1
aI-1
aI-1
aI-1
aI-1
aI-1
aa(lp899
I-1
aI-1
aI-1
aI-1
aI-1
aI-1
aa(lp900
I-1
aI-1
aI-1
aI-1
aI-1
aI-1
aa(lp901
I-1
aI-1
aI-1
aI-1
aI-1
aI-1
aa(lp902
I-1
aI-1
aI-1
aI-1
aI-1
aI-1
aa(lp903
I-1
aI-1
aI-1
aI-1
aI-1
aI-1
aa(lp904
I-1
aI-1
aI-1
aI-1
aI-1
aI-1
aa(lp905
I-1
aI-1
aI-1
aI-1
aI-1
aI-1
aa(lp906
I-1
aI-1
aI-1
aI-1
aI-1
aI-1
aa(lp907
I-1
aI-1
aI-1
aI-1
aI-1
aI-1
aa(lp908
I-1
aI-1
aI-1
aI-1
aI-1
aI-1
aa(lp909
I-1
aI-1
aI-1
aI-1
aI-1
aI-1
aa(lp910
I-1
aI-1
aI-1
aI-1
aI-1
aI-1
aa(lp911
I-1
aI-1
aI-1
aI-1
aI-1
aI-1
aa(lp912
I-1
aI-1
aI-1
aI-1
aI-1
aI-1
aa(lp913
I-1
aI-1
aI-1
aI-1
aI-1
aI-1
aa(lp914
I-1
aI-1
aI-1
aI-1
aI-1
aI-1
aa(lp915
I-1
aI-1
aI-1
aI-1
aI-1
aI-1
aa(lp916
I-1
aI-1
aI-1
aI-1
aI-1
aI-1
aa(lp917
I-1
aI-1
aI-1
aI-1
aI-1
aI-1
aa(lp918
I-1
aI-1
aI-1
aI-1
aI-1
aI-1
aa(lp919
I-1
aI-1
aI-1
aI-1
aI-1
aI-1
aa(lp920
I-1
aI-1
aI-1
aI-1
aI-1
aI-1
aa(lp921
I-1
aI-1
aI-1
aI-1
aI-1
aI-1
aa(lp922
I-1
aI-1
aI-1
aI-1
aI-1
aI-1
aa(lp923
I-1
aI-1
aI-1
aI-1
aI-1
aI-1
aa(lp924
I-1
aI-1
aI-1
aI-1
aI-1
aI-1
aa(lp925
I-1
aI-1
aI-1
aI-1
aI-1
aI-1
aa(lp926
I-1
aI-1
aI-1
aI-1
aI-1
aI-1
aa(lp927
I-1
aI-1
aI-1
aI-1
aI-1
aI-1
aa(lp928
I-1
aI-1
aI-1
aI-1
aI-1
aI-1
aa(lp929
I-1
aI-1
aI-1
aI-1
aI-1
aI-1
aa(lp930
I-1
aI-1
aI-1
aI-1
aI-1
aI-1
aa(lp931
I-1
aI-1
aI-1
aI-1
aI-1
aI-1
aa(lp932
I-1
aI-1
aI-1
aI-1
aI-1
aI-1
aa(lp933
I-1
aI-1
aI-1
aI-1
aI-1
aI-1
aa(lp934
I-1
aI-1
aI-1
aI-1
aI-1
aI-1
aa(lp935
I-1
aI-1
aI-1
aI-1
aI-1
aI-1
aa(lp936
I-1
aI-1
aI-1
aI-1
aI-1
aI-1
aa(lp937
I-1
aI-1
aI-1
aI-1
aI-1
aI-1
aa(lp938
I-1
aI-1
aI-1
aI-1
aI-1
aI-1
aa(lp939
I-1
aI-1
aI-1
aI-1
aI-1
aI-1
aa(lp940
I-1
aI-1
aI-1
aI-1
aI-1
aI-1
aa(lp941
I-1
aI-1
aI-1
aI-1
aI-1
aI-1
aa(lp942
I-1
aI-1
aI-1
aI-1
aI-1
aI-1
aa(lp943
I-1
aI-1
aI-1
aI-1
aI-1
aI-1
aa(lp944
I-1
aI-1
aI-1
aI-1
aI-1
aI-1
aa(lp945
I-1
aI-1
aI-1
aI-1
aI-1
aI-1
aa(lp946
I-1
aI-1
aI-1
aI-1
aI-1
aI-1
aa(lp947
I-1
aI-1
aI-1
aI-1
aI-1
aI-1
aa(lp948
I-1
aI-1
aI-1
aI-1
aI-1
aI-1
aa(lp949
I-1
aI-1
aI-1
aI-1
aI-1
aI-1
aa(lp950
I-1
aI-1
aI-1
aI-1
aI-1
aI-1
aa(lp951
I-1
aI-1
aI-1
aI-1
aI-1
aI-1
aa(lp952
I-1
aI-1
aI-1
aI-1
aI-1
aI-1
aa(lp953
I-1
aI-1
aI-1
aI-1
aI-1
aI-1
aa(lp954
I-1
aI-1
aI-1
aI-1
aI-1
aI-1
aa(lp955
I-1
aI-1
aI-1
aI-1
aI-1
aI-1
aa(lp956
I-1
aI-1
aI-1
aI-1
aI-1
aI-1
aa(lp957
I-1
aI-1
aI-1
aI-1
aI-1
aI-1
aa(lp958
I-1
aI-1
aI-1
aI-1
aI-1
aI-1
aa(lp959
I-1
aI-1
aI-1
aI-1
aI-1
aI-1
aa(lp960
I-1
aI-1
aI-1
aI-1
aI-1
aI-1
aa(lp961
I-1
aI-1
aI-1
aI-1
aI-1
aI-1
aa(lp962
I-1
aI-1
aI-1
aI-1
aI-1
aI-1
aa(lp963
I-1
aI-1
aI-1
aI-1
aI-1
aI-1
aa(lp964
I-1
aI-1
aI-1
aI-1
aI-1
aI-1
aa(lp965
I-1
aI-1
aI-1
aI-1
aI-1
aI-1
aa(lp966
I-1
aI-1
aI-1
aI-1
aI-1
aI-1
aa(lp967
I-1
aI-1
aI-1
aI-1
aI-1
aI-1
aa(lp968
I-1
aI-1
aI-1
aI-1
aI-1
aI-1
aa(lp969
I-1
aI-1
aI-1
aI-1
aI-1
aI-1
aa(lp970
I-1
aI-1
aI-1
aI-1
aI-1
aI-1
aa(lp971
I-1
aI-1
aI-1
aI-1
aI-1
aI-1
aa(lp972
I-1
aI-1
aI-1
aI-1
aI-1
aI-1
aa(lp973
I-1
aI-1
aI-1
aI-1
aI-1
aI-1
aa(lp974
I-1
aI-1
aI-1
aI-1
aI-1
aI-1
aa(lp975
I-1
aI-1
aI-1
aI-1
aI-1
aI-1
aa(lp976
I-1
aI-1
aI-1
aI-1
aI-1
aI-1
aa(lp977
I-1
aI-1
aI-1
aI-1
aI-1
aI-1
aa(lp978
I-1
aI-1
aI-1
aI-1
aI-1
aI-1
aa(lp979
I-1
aI-1
aI-1
aI-1
aI-1
aI-1
aa(lp980
I-1
aI-1
aI-1
aI-1
aI-1
aI-1
aa(lp981
I-1
aI-1
aI-1
aI-1
aI-1
aI-1
aa(lp982
I-1
aI-1
aI-1
aI-1
aI-1
aI-1
aa(lp983
I-1
aI-1
aI-1
aI-1
aI-1
aI-1
aa(lp984
I-1
aI-1
aI-1
aI-1
aI-1
aI-1
aa(lp985
I-1
aI-1
aI-1
aI-1
aI-1
aI-1
aa(lp986
I-1
aI-1
aI-1
aI-1
aI-1
aI-1
aa(lp987
I-1
aI-1
aI-1
aI-1
aI-1
aI-1
aa(lp988
I-1
aI-1
aI-1
aI-1
aI-1
aI-1
aa(lp989
I-1
aI-1
aI-1
aI-1
aI-1
aI-1
aa(lp990
I-1
aI-1
aI-1
aI-1
aI-1
aI-1
aa(lp991
I-1
aI-1
aI-1
aI-1
aI-1
aI-1
aa(lp992
I-1
aI-1
aI-1
aI-1
aI-1
aI-1
aa(lp993
I-1
aI-1
aI-1
aI-1
aI-1
aI-1
aa(lp994
I-1
aI-1
aI-1
aI-1
aI-1
aI-1
aa(lp995
I-1
aI-1
aI-1
aI-1
aI-1
aI-1
aa(lp996
I-1
aI-1
aI-1
aI-1
aI-1
aI-1
aa(lp997
I-1
aI-1
aI-1
aI-1
aI-1
aI-1
aa(lp998
I-1
aI-1
aI-1
aI-1
aI-1
aI-1
aa(lp999
I-1
aI-1
aI-1
aI-1
aI-1
aI-1
aa(lp1000
I-1
aI-1
aI-1
aI-1
aI-1
aI-1
aa(lp1001
I-1
aI-1
aI-1
aI-1
aI-1
aI-1
aa(lp1002
I-1
aI-1
aI-1
aI-1
aI-1
aI-1
aa(lp1003
I-1
aI-1
aI-1
aI-1
aI-1
aI-1
aa(lp1004
I-1
aI-1
aI-1
aI-1
aI-1
aI-1
aa(lp1005
I-1
aI-1
aI-1
aI-1
aI-1
aI-1
aa(lp1006
I-1
aI-1
aI-1
aI-1
aI-1
aI-1
aasS'university'
p1007
(lp1008
(lp1009
I-1
aI-1
aI-1
aI-1
aI-1
aI-1
aa(lp1010
I-1
aI-1
aI-1
aI-1
aI-1
aI-1
aa(lp1011
I-1
aI-1
aI-1
aI-1
aI-1
aI-1
aa(lp1012
I-1
aI-1
aI-1
aI-1
aI-1
aI-1
aa(lp1013
I-1
aI-1
aI-1
aI-1
aI-1
aI-1
aa(lp1014
I-1
aI-1
aI-1
aI-1
aI-1
aI-1
aa(lp1015
I-1
aI-1
aI-1
aI-1
aI-1
aI-1
aa(lp1016
I-1
aI-1
aI-1
aI-1
aI-1
aI-1
aa(lp1017
I-1
aI-1
aI-1
aI-1
aI-1
aI-1
aa(lp1018
I-1
aI-1
aI-1
aI-1
aI-1
aI-1
aa(lp1019
I-1
aI-1
aI-1
aI-1
aI-1
aI-1
aa(lp1020
I-1
aI-1
aI-1
aI-1
aI-1
aI-1
aa(lp1021
I-1
aI-1
aI-1
aI-1
aI-1
aI-1
aa(lp1022
I-1
aI-1
aI-1
aI-1
aI-1
aI-1
aa(lp1023
I-1
aI-1
aI-1
aI-1
aI-1
aI-1
aa(lp1024
I-1
aI-1
aI-1
aI-1
aI-1
aI-1
aa(lp1025
I-1
aI-1
aI-1
aI-1
aI-1
aI-1
aa(lp1026
I-1
aI-1
aI-1
aI-1
aI-1
aI-1
aa(lp1027
I-1
aI-1
aI-1
aI-1
aI-1
aI-1
aa(lp1028
I-1
aI-1
aI-1
aI-1
aI-1
aI-1
aa(lp1029
I-1
aI-1
aI-1
aI-1
aI-1
aI-1
aa(lp1030
I-1
aI-1
aI-1
aI-1
aI-1
aI-1
aa(lp1031
I-1
aI-1
aI-1
aI-1
aI-1
aI-1
aa(lp1032
I-1
aI-1
aI-1
aI-1
aI-1
aI-1
aa(lp1033
I-1
aI-1
aI-1
aI-1
aI-1
aI-1
aa(lp1034
I-1
aI-1
aI-1
aI-1
aI-1
aI-1
aa(lp1035
I-1
aI-1
aI-1
aI-1
aI-1
aI-1
aa(lp1036
I-1
aI-1
aI-1
aI-1
aI-1
aI-1
aa(lp1037
I-1
aI-1
aI-1
aI-1
aI-1
aI-1
aa(lp1038
I-1
aI-1
aI-1
aI-1
aI-1
aI-1
aa(lp1039
I-1
aI-1
aI-1
aI-1
aI-1
aI-1
aa(lp1040
I-1
aI-1
aI-1
aI-1
aI-1
aI-1
aa(lp1041
I-1
aI-1
aI-1
aI-1
aI-1
aI-1
aa(lp1042
I-1
aI-1
aI-1
aI-1
aI-1
aI-1
aa(lp1043
I-1
aI-1
aI-1
aI-1
aI-1
aI-1
aa(lp1044
I-1
aI-1
aI-1
aI-1
aI-1
aI-1
aa(lp1045
I-1
aI-1
aI-1
aI-1
aI-1
aI-1
aa(lp1046
I-1
aI-1
aI-1
aI-1
aI-1
aI-1
aa(lp1047
I-1
aI-1
aI-1
aI-1
aI-1
aI-1
aa(lp1048
I-1
aI-1
aI-1
aI-1
aI-1
aI-1
aa(lp1049
I-1
aI-1
aI-1
aI-1
aI-1
aI-1
aa(lp1050
I-1
aI-1
aI-1
aI-1
aI-1
aI-1
aa(lp1051
I-1
aI-1
aI-1
aI-1
aI-1
aI-1
aa(lp1052
I-1
aI-1
aI-1
aI-1
aI-1
aI-1
aa(lp1053
I-1
aI-1
aI-1
aI-1
aI-1
aI-1
aa(lp1054
I-1
aI-1
aI-1
aI-1
aI-1
aI-1
aa(lp1055
I-1
aI-1
aI-1
aI-1
aI-1
aI-1
aa(lp1056
I-1
aI-1
aI-1
aI-1
aI-1
aI-1
aa(lp1057
I-1
aI-1
aI-1
aI-1
aI-1
aI-1
aa(lp1058
I-1
aI-1
aI-1
aI-1
aI-1
aI-1
aa(lp1059
I-1
aI-1
aI-1
aI-1
aI-1
aI-1
aa(lp1060
I-1
aI-1
aI-1
aI-1
aI-1
aI-1
aa(lp1061
I-1
aI-1
aI-1
aI-1
aI-1
aI-1
aa(lp1062
I-1
aI-1
aI-1
aI-1
aI-1
aI-1
aa(lp1063
I-1
aI-1
aI-1
aI-1
aI-1
aI-1
aa(lp1064
I-1
aI-1
aI-1
aI-1
aI-1
aI-1
aa(lp1065
I-1
aI-1
aI-1
aI-1
aI-1
aI-1
aa(lp1066
I-1
aI-1
aI-1
aI-1
aI-1
aI-1
aa(lp1067
I-1
aI-1
aI-1
aI-1
aI-1
aI-1
aa(lp1068
I-1
aI-1
aI-1
aI-1
aI-1
aI-1
aa(lp1069
I-1
aI-1
aI-1
aI-1
aI-1
aI-1
aa(lp1070
I-1
aI-1
aI-1
aI-1
aI-1
aI-1
aa(lp1071
I-1
aI-1
aI-1
aI-1
aI-1
aI-1
aa(lp1072
I-1
aI-1
aI-1
aI-1
aI-1
aI-1
aa(lp1073
I-1
aI-1
aI-1
aI-1
aI-1
aI-1
aa(lp1074
I-1
aI-1
aI-1
aI-1
aI-1
aI-1
aa(lp1075
I-1
aI-1
aI-1
aI-1
aI-1
aI-1
aa(lp1076
I-1
aI-1
aI-1
aI-1
aI-1
aI-1
aa(lp1077
I-1
aI-1
aI-1
aI-1
aI-1
aI-1
aa(lp1078
I-1
aI-1
aI-1
aI-1
aI-1
aI-1
aa(lp1079
I-1
aI-1
aI-1
aI-1
aI-1
aI-1
aa(lp1080
I-1
aI-1
aI-1
aI-1
aI-1
aI-1
aa(lp1081
I-1
aI-1
aI-1
aI-1
aI-1
aI-1
aa(lp1082
I-1
aI-1
aI-1
aI-1
aI-1
aI-1
aa(lp1083
I-1
aI-1
aI-1
aI-1
aI-1
aI-1
aa(lp1084
I-1
aI-1
aI-1
aI-1
aI-1
aI-1
aasS'turkish'
p1085
(lp1086
(lp1087
I-1
aI-1
aI-1
aI-1
aI-1
aI-1
aa(lp1088
I-1
aI-1
aI-1
aI-1
aI-1
aI-1
aa(lp1089
I-1
aI-1
aI-1
aI-1
aI-1
aI-1
aa(lp1090
I-1
aI-1
aI-1
aI-1
aI-1
aI-1
aasS'people'
p1091
(lp1092
(lp1093
I-1
aI-1
aI-1
aI-1
aI-1
aI-1
aa(lp1094
I-1
aI-1
aI-1
aI-1
aI-1
aI-1
aa(lp1095
I-1
aI-1
aI-1
aI-1
aI-1
aI-1
aa(lp1096
I-1
aI-1
aI-1
aI-1
aI-1
aI-1
aa(lp1097
I-1
aI-1
aI-1
aI-1
aI-1
aI-1
aa(lp1098
I-1
aI-1
aI-1
aI-1
aI-1
aI-1
aa(lp1099
I-1
aI-1
aI-1
aI-1
aI-1
aI-1
aa(lp1100
I-1
aI-1
aI-1
aI-1
aI-1
aI-1
aa(lp1101
I-1
aI-1
aI-1
aI-1
aI-1
aI-1
aa(lp1102
I-1
aI-1
aI-1
aI-1
aI-1
aI-1
aa(lp1103
I-1
aI-1
aI-1
aI-1
aI-1
aI-1
aa(lp1104
I-1
aI-1
aI-1
aI-1
aI-1
aI-1
aa(lp1105
I-1
aI-1
aI-1
aI-1
aI-1
aI-1
aa(lp1106
I-1
aI-1
aI-1
aI-1
aI-1
aI-1
aa(lp1107
I-1
aI-1
aI-1
aI-1
aI-1
aI-1
aa(lp1108
I-1
aI-1
aI-1
aI-1
aI-1
aI-1
aa(lp1109
I-1
aI-1
aI-1
aI-1
aI-1
aI-1
aa(lp1110
I-1
aI-1
aI-1
aI-1
aI-1
aI-1
aa(lp1111
I-1
aI-1
aI-1
aI-1
aI-1
aI-1
aa(lp1112
I-1
aI-1
aI-1
aI-1
aI-1
aI-1
aa(lp1113
I-1
aI-1
aI-1
aI-1
aI-1
aI-1
aa(lp1114
I-1
aI-1
aI-1
aI-1
aI-1
aI-1
aa(lp1115
I-1
aI-1
aI-1
aI-1
aI-1
aI-1
aa(lp1116
I-1
aI-1
aI-1
aI-1
aI-1
aI-1
aa(lp1117
I-1
aI-1
aI-1
aI-1
aI-1
aI-1
aa(lp1118
I-1
aI-1
aI-1
aI-1
aI-1
aI-1
aa(lp1119
I-1
aI-1
aI-1
aI-1
aI-1
aI-1
aa(lp1120
I-1
aI-1
aI-1
aI-1
aI-1
aI-1
aa(lp1121
I-1
aI-1
aI-1
aI-1
aI-1
aI-1
aa(lp1122
I-1
aI-1
aI-1
aI-1
aI-1
aI-1
aa(lp1123
I-1
aI-1
aI-1
aI-1
aI-1
aI-1
aa(lp1124
I-1
aI-1
aI-1
aI-1
aI-1
aI-1
aa(lp1125
I-1
aI-1
aI-1
aI-1
aI-1
aI-1
aa(lp1126
I-1
aI-1
aI-1
aI-1
aI-1
aI-1
aa(lp1127
I-1
aI-1
aI-1
aI-1
aI-1
aI-1
aa(lp1128
I-1
aI-1
aI-1
aI-1
aI-1
aI-1
aa(lp1129
I-1
aI-1
aI-1
aI-1
aI-1
aI-1
aa(lp1130
I-1
aI-1
aI-1
aI-1
aI-1
aI-1
aa(lp1131
I-1
aI-1
aI-1
aI-1
aI-1
aI-1
aa(lp1132
I-1
aI-1
aI-1
aI-1
aI-1
aI-1
aa(lp1133
I-1
aI-1
aI-1
aI-1
aI-1
aI-1
aa(lp1134
I-1
aI-1
aI-1
aI-1
aI-1
aI-1
aa(lp1135
I-1
aI-1
aI-1
aI-1
aI-1
aI-1
aa(lp1136
I-1
aI-1
aI-1
aI-1
aI-1
aI-1
aa(lp1137
I-1
aI-1
aI-1
aI-1
aI-1
aI-1
aa(lp1138
I-1
aI-1
aI-1
aI-1
aI-1
aI-1
aa(lp1139
I-1
aI-1
aI-1
aI-1
aI-1
aI-1
aa(lp1140
I-1
aI-1
aI-1
aI-1
aI-1
aI-1
aa(lp1141
I-1
aI-1
aI-1
aI-1
aI-1
aI-1
aa(lp1142
I-1
aI-1
aI-1
aI-1
aI-1
aI-1
aa(lp1143
I-1
aI-1
aI-1
aI-1
aI-1
aI-1
aa(lp1144
I-1
aI-1
aI-1
aI-1
aI-1
aI-1
aa(lp1145
I-1
aI-1
aI-1
aI-1
aI-1
aI-1
aa(lp1146
I-1
aI-1
aI-1
aI-1
aI-1
aI-1
aa(lp1147
I-1
aI-1
aI-1
aI-1
aI-1
aI-1
aa(lp1148
I-1
aI-1
aI-1
aI-1
aI-1
aI-1
aa(lp1149
I-1
aI-1
aI-1
aI-1
aI-1
aI-1
aa(lp1150
I-1
aI-1
aI-1
aI-1
aI-1
aI-1
aa(lp1151
I-1
aI-1
aI-1
aI-1
aI-1
aI-1
aa(lp1152
I-1
aI-1
aI-1
aI-1
aI-1
aI-1
aa(lp1153
I-1
aI-1
aI-1
aI-1
aI-1
aI-1
aa(lp1154
I-1
aI-1
aI-1
aI-1
aI-1
aI-1
aa(lp1155
I-1
aI-1
aI-1
aI-1
aI-1
aI-1
aa(lp1156
I-1
aI-1
aI-1
aI-1
aI-1
aI-1
aa(lp1157
I-1
aI-1
aI-1
aI-1
aI-1
aI-1
aa(lp1158
I-1
aI-1
aI-1
aI-1
aI-1
aI-1
aa(lp1159
I-1
aI-1
aI-1
aI-1
aI-1
aI-1
aa(lp1160
I-1
aI-1
aI-1
aI-1
aI-1
aI-1
aa(lp1161
I-1
aI-1
aI-1
aI-1
aI-1
aI-1
aa(lp1162
I-1
aI-1
aI-1
aI-1
aI-1
aI-1
aa(lp1163
I-1
aI-1
aI-1
aI-1
aI-1
aI-1
aa(lp1164
I-1
aI-1
aI-1
aI-1
aI-1
aI-1
aa(lp1165
I-1
aI-1
aI-1
aI-1
aI-1
aI-1
aa(lp1166
I-1
aI-1
aI-1
aI-1
aI-1
aI-1
aa(lp1167
I-1
aI-1
aI-1
aI-1
aI-1
aI-1
aa(lp1168
I-1
aI-1
aI-1
aI-1
aI-1
aI-1
aa(lp1169
I-1
aI-1
aI-1
aI-1
aI-1
aI-1
aa(lp1170
I-1
aI-1
aI-1
aI-1
aI-1
aI-1
aa(lp1171
I-1
aI-1
aI-1
aI-1
aI-1
aI-1
aa(lp1172
I-1
aI-1
aI-1
aI-1
aI-1
aI-1
aa(lp1173
I-1
aI-1
aI-1
aI-1
aI-1
aI-1
aa(lp1174
I-1
aI-1
aI-1
aI-1
aI-1
aI-1
aa(lp1175
I-1
aI-1
aI-1
aI-1
aI-1
aI-1
aa(lp1176
I-1
aI-1
aI-1
aI-1
aI-1
aI-1
aa(lp1177
I-1
aI-1
aI-1
aI-1
aI-1
aI-1
aa(lp1178
I-1
aI-1
aI-1
aI-1
aI-1
aI-1
aa(lp1179
I-1
aI-1
aI-1
aI-1
aI-1
aI-1
aa(lp1180
I-1
aI-1
aI-1
aI-1
aI-1
aI-1
aa(lp1181
I-1
aI-1
aI-1
aI-1
aI-1
aI-1
aa(lp1182
I-1
aI-1
aI-1
aI-1
aI-1
aI-1
aa(lp1183
I-1
aI-1
aI-1
aI-1
aI-1
aI-1
aa(lp1184
I-1
aI-1
aI-1
aI-1
aI-1
aI-1
aa(lp1185
I-1
aI-1
aI-1
aI-1
aI-1
aI-1
aa(lp1186
I-1
aI-1
aI-1
aI-1
aI-1
aI-1
aa(lp1187
I-1
aI-1
aI-1
aI-1
aI-1
aI-1
aa(lp1188
I-1
aI-1
aI-1
aI-1
aI-1
aI-1
aa(lp1189
I-1
aI-1
aI-1
aI-1
aI-1
aI-1
aa(lp1190
I-1
aI-1
aI-1
aI-1
aI-1
aI-1
aa(lp1191
I-1
aI-1
aI-1
aI-1
aI-1
aI-1
aa(lp1192
I-1
aI-1
aI-1
aI-1
aI-1
aI-1
aa(lp1193
I-1
aI-1
aI-1
aI-1
aI-1
aI-1
aa(lp1194
I-1
aI-1
aI-1
aI-1
aI-1
aI-1
aa(lp1195
I-1
aI-1
aI-1
aI-1
aI-1
aI-1
aa(lp1196
I-1
aI-1
aI-1
aI-1
aI-1
aI-1
aa(lp1197
I-1
aI-1
aI-1
aI-1
aI-1
aI-1
aa(lp1198
I-1
aI-1
aI-1
aI-1
aI-1
aI-1
aa(lp1199
I-1
aI-1
aI-1
aI-1
aI-1
aI-1
aa(lp1200
I-1
aI-1
aI-1
aI-1
aI-1
aI-1
aa(lp1201
I-1
aI-1
aI-1
aI-1
aI-1
aI-1
aa(lp1202
I-1
aI-1
aI-1
aI-1
aI-1
aI-1
aa(lp1203
I-1
aI-1
aI-1
aI-1
aI-1
aI-1
aa(lp1204
I-1
aI-1
aI-1
aI-1
aI-1
aI-1
aa(lp1205
I-1
aI-1
aI-1
aI-1
aI-1
aI-1
aa(lp1206
I-1
aI-1
aI-1
aI-1
aI-1
aI-1
aa(lp1207
I-1
aI-1
aI-1
aI-1
aI-1
aI-1
aa(lp1208
I-1
aI-1
aI-1
aI-1
aI-1
aI-1
aa(lp1209
I-1
aI-1
aI-1
aI-1
aI-1
aI-1
aa(lp1210
I-1
aI-1
aI-1
aI-1
aI-1
aI-1
aa(lp1211
I-1
aI-1
aI-1
aI-1
aI-1
aI-1
aa(lp1212
I-1
aI-1
aI-1
aI-1
aI-1
aI-1
aa(lp1213
I-1
aI-1
aI-1
aI-1
aI-1
aI-1
aa(lp1214
I-1
aI-1
aI-1
aI-1
aI-1
aI-1
aa(lp1215
I-1
aI-1
aI-1
aI-1
aI-1
aI-1
aa(lp1216
I-1
aI-1
aI-1
aI-1
aI-1
aI-1
aa(lp1217
I-1
aI-1
aI-1
aI-1
aI-1
aI-1
aa(lp1218
I-1
aI-1
aI-1
aI-1
aI-1
aI-1
aa(lp1219
I-1
aI-1
aI-1
aI-1
aI-1
aI-1
aa(lp1220
I-1
aI-1
aI-1
aI-1
aI-1
aI-1
aa(lp1221
I-1
aI-1
aI-1
aI-1
aI-1
aI-1
aa(lp1222
I-1
aI-1
aI-1
aI-1
aI-1
aI-1
aa(lp1223
I-1
aI-1
aI-1
aI-1
aI-1
aI-1
aa(lp1224
I-1
aI-1
aI-1
aI-1
aI-1
aI-1
aa(lp1225
I-1
aI-1
aI-1
aI-1
aI-1
aI-1
aa(lp1226
I-1
aI-1
aI-1
aI-1
aI-1
aI-1
aa(lp1227
I-1
aI-1
aI-1
aI-1
aI-1
aI-1
aa(lp1228
I-1
aI-1
aI-1
aI-1
aI-1
aI-1
aa(lp1229
I-1
aI-1
aI-1
aI-1
aI-1
aI-1
aa(lp1230
I-1
aI-1
aI-1
aI-1
aI-1
aI-1
aa(lp1231
I-1
aI-1
aI-1
aI-1
aI-1
aI-1
aa(lp1232
I-1
aI-1
aI-1
aI-1
aI-1
aI-1
aa(lp1233
I-1
aI-1
aI-1
aI-1
aI-1
aI-1
aa(lp1234
I-1
aI-1
aI-1
aI-1
aI-1
aI-1
aa(lp1235
I-1
aI-1
aI-1
aI-1
aI-1
aI-1
aa(lp1236
I-1
aI-1
aI-1
aI-1
aI-1
aI-1
aa(lp1237
I-1
aI-1
aI-1
aI-1
aI-1
aI-1
aa(lp1238
I-1
aI-1
aI-1
aI-1
aI-1
aI-1
aa(lp1239
I-1
aI-1
aI-1
aI-1
aI-1
aI-1
aa(lp1240
I-1
aI-1
aI-1
aI-1
aI-1
aI-1
aa(lp1241
I-1
aI-1
aI-1
aI-1
aI-1
aI-1
aa(lp1242
I-1
aI-1
aI-1
aI-1
aI-1
aI-1
aa(lp1243
I-1
aI-1
aI-1
aI-1
aI-1
aI-1
aa(lp1244
I-1
aI-1
aI-1
aI-1
aI-1
aI-1
aa(lp1245
I-1
aI-1
aI-1
aI-1
aI-1
aI-1
aa(lp1246
I-1
aI-1
aI-1
aI-1
aI-1
aI-1
aa(lp1247
I-1
aI-1
aI-1
aI-1
aI-1
aI-1
aa(lp1248
I-1
aI-1
aI-1
aI-1
aI-1
aI-1
aa(lp1249
I-1
aI-1
aI-1
aI-1
aI-1
aI-1
aa(lp1250
I-1
aI-1
aI-1
aI-1
aI-1
aI-1
aa(lp1251
I-1
aI-1
aI-1
aI-1
aI-1
aI-1
aa(lp1252
I-1
aI-1
aI-1
aI-1
aI-1
aI-1
aa(lp1253
I-1
aI-1
aI-1
aI-1
aI-1
aI-1
aa(lp1254
I-1
aI-1
aI-1
aI-1
aI-1
aI-1
aa(lp1255
I-1
aI-1
aI-1
aI-1
aI-1
aI-1
aa(lp1256
I-1
aI-1
aI-1
aI-1
aI-1
aI-1
aa(lp1257
I-1
aI-1
aI-1
aI-1
aI-1
aI-1
aa(lp1258
I-1
aI-1
aI-1
aI-1
aI-1
aI-1
aa(lp1259
I-1
aI-1
aI-1
aI-1
aI-1
aI-1
aa(lp1260
I-1
aI-1
aI-1
aI-1
aI-1
aI-1
aa(lp1261
I-1
aI-1
aI-1
aI-1
aI-1
aI-1
aa(lp1262
I-1
aI-1
aI-1
aI-1
aI-1
aI-1
aa(lp1263
I-1
aI-1
aI-1
aI-1
aI-1
aI-1
aa(lp1264
I-1
aI-1
aI-1
aI-1
aI-1
aI-1
aa(lp1265
I-1
aI-1
aI-1
aI-1
aI-1
aI-1
aa(lp1266
I-1
aI-1
aI-1
aI-1
aI-1
aI-1
aa(lp1267
I-1
aI-1
aI-1
aI-1
aI-1
aI-1
aa(lp1268
I-1
aI-1
aI-1
aI-1
aI-1
aI-1
aa(lp1269
I-1
aI-1
aI-1
aI-1
aI-1
aI-1
aa(lp1270
I-1
aI-1
aI-1
aI-1
aI-1
aI-1
aa(lp1271
I-1
aI-1
aI-1
aI-1
aI-1
aI-1
aa(lp1272
I-1
aI-1
aI-1
aI-1
aI-1
aI-1
aa(lp1273
I-1
aI-1
aI-1
aI-1
aI-1
aI-1
aa(lp1274
I-1
aI-1
aI-1
aI-1
aI-1
aI-1
aa(lp1275
I-1
aI-1
aI-1
aI-1
aI-1
aI-1
aa(lp1276
I-1
aI-1
aI-1
aI-1
aI-1
aI-1
aa(lp1277
I-1
aI-1
aI-1
aI-1
aI-1
aI-1
aa(lp1278
I-1
aI-1
aI-1
aI-1
aI-1
aI-1
aa(lp1279
I-1
aI-1
aI-1
aI-1
aI-1
aI-1
aa(lp1280
I-1
aI-1
aI-1
aI-1
aI-1
aI-1
aa(lp1281
I-1
aI-1
aI-1
aI-1
aI-1
aI-1
aa(lp1282
I-1
aI-1
aI-1
aI-1
aI-1
aI-1
aa(lp1283
I-1
aI-1
aI-1
aI-1
aI-1
aI-1
aa(lp1284
I-1
aI-1
aI-1
aI-1
aI-1
aI-1
aa(lp1285
I-1
aI-1
aI-1
aI-1
aI-1
aI-1
aa(lp1286
I-1
aI-1
aI-1
aI-1
aI-1
aI-1
aa(lp1287
I-1
aI-1
aI-1
aI-1
aI-1
aI-1
aa(lp1288
I-1
aI-1
aI-1
aI-1
aI-1
aI-1
aa(lp1289
I-1
aI-1
aI-1
aI-1
aI-1
aI-1
aa(lp1290
I-1
aI-1
aI-1
aI-1
aI-1
aI-1
aa(lp1291
I-1
aI-1
aI-1
aI-1
aI-1
aI-1
aa(lp1292
I-1
aI-1
aI-1
aI-1
aI-1
aI-1
aa(lp1293
I-1
aI-1
aI-1
aI-1
aI-1
aI-1
aa(lp1294
I-1
aI-1
aI-1
aI-1
aI-1
aI-1
aa(lp1295
I-1
aI-1
aI-1
aI-1
aI-1
aI-1
aa(lp1296
I-1
aI-1
aI-1
aI-1
aI-1
aI-1
aa(lp1297
I-1
aI-1
aI-1
aI-1
aI-1
aI-1
aa(lp1298
I-1
aI-1
aI-1
aI-1
aI-1
aI-1
aa(lp1299
I-1
aI-1
aI-1
aI-1
aI-1
aI-1
aa(lp1300
I-1
aI-1
aI-1
aI-1
aI-1
aI-1
aa(lp1301
I-1
aI-1
aI-1
aI-1
aI-1
aI-1
aa(lp1302
I-1
aI-1
aI-1
aI-1
aI-1
aI-1
aa(lp1303
I-1
aI-1
aI-1
aI-1
aI-1
aI-1
aa(lp1304
I-1
aI-1
aI-1
aI-1
aI-1
aI-1
aa(lp1305
I-1
aI-1
aI-1
aI-1
aI-1
aI-1
aa(lp1306
I-1
aI-1
aI-1
aI-1
aI-1
aI-1
aa(lp1307
I-1
aI-1
aI-1
aI-1
aI-1
aI-1
aa(lp1308
I-1
aI-1
aI-1
aI-1
aI-1
aI-1
aa(lp1309
I-1
aI-1
aI-1
aI-1
aI-1
aI-1
aa(lp1310
I-1
aI-1
aI-1
aI-1
aI-1
aI-1
aa(lp1311
I-1
aI-1
aI-1
aI-1
aI-1
aI-1
aa(lp1312
I-1
aI-1
aI-1
aI-1
aI-1
aI-1
aa(lp1313
I-1
aI-1
aI-1
aI-1
aI-1
aI-1
aa(lp1314
I-1
aI-1
aI-1
aI-1
aI-1
aI-1
aa(lp1315
I-1
aI-1
aI-1
aI-1
aI-1
aI-1
aa(lp1316
I-1
aI-1
aI-1
aI-1
aI-1
aI-1
aa(lp1317
I-1
aI-1
aI-1
aI-1
aI-1
aI-1
aa(lp1318
I-1
aI-1
aI-1
aI-1
aI-1
aI-1
aa(lp1319
I-1
aI-1
aI-1
aI-1
aI-1
aI-1
aa(lp1320
I-1
aI-1
aI-1
aI-1
aI-1
aI-1
aa(lp1321
I-1
aI-1
aI-1
aI-1
aI-1
aI-1
aa(lp1322
I-1
aI-1
aI-1
aI-1
aI-1
aI-1
aa(lp1323
I-1
aI-1
aI-1
aI-1
aI-1
aI-1
aa(lp1324
I-1
aI-1
aI-1
aI-1
aI-1
aI-1
aa(lp1325
I-1
aI-1
aI-1
aI-1
aI-1
aI-1
aa(lp1326
I-1
aI-1
aI-1
aI-1
aI-1
aI-1
aa(lp1327
I-1
aI-1
aI-1
aI-1
aI-1
aI-1
aa(lp1328
I-1
aI-1
aI-1
aI-1
aI-1
aI-1
aa(lp1329
I-1
aI-1
aI-1
aI-1
aI-1
aI-1
aa(lp1330
I-1
aI-1
aI-1
aI-1
aI-1
aI-1
aa(lp1331
I-1
aI-1
aI-1
aI-1
aI-1
aI-1
aa(lp1332
I-1
aI-1
aI-1
aI-1
aI-1
aI-1
aa(lp1333
I-1
aI-1
aI-1
aI-1
aI-1
aI-1
aa(lp1334
I-1
aI-1
aI-1
aI-1
aI-1
aI-1
aa(lp1335
I-1
aI-1
aI-1
aI-1
aI-1
aI-1
aa(lp1336
I-1
aI-1
aI-1
aI-1
aI-1
aI-1
aa(lp1337
I-1
aI-1
aI-1
aI-1
aI-1
aI-1
aa(lp1338
I-1
aI-1
aI-1
aI-1
aI-1
aI-1
aa(lp1339
I-1
aI-1
aI-1
aI-1
aI-1
aI-1
aa(lp1340
I-1
aI-1
aI-1
aI-1
aI-1
aI-1
aa(lp1341
I-1
aI-1
aI-1
aI-1
aI-1
aI-1
aa(lp1342
I-1
aI-1
aI-1
aI-1
aI-1
aI-1
aa(lp1343
I-1
aI-1
aI-1
aI-1
aI-1
aI-1
aa(lp1344
I-1
aI-1
aI-1
aI-1
aI-1
aI-1
aa(lp1345
I-1
aI-1
aI-1
aI-1
aI-1
aI-1
aa(lp1346
I-1
aI-1
aI-1
aI-1
aI-1
aI-1
aa(lp1347
I-1
aI-1
aI-1
aI-1
aI-1
aI-1
aa(lp1348
I-1
aI-1
aI-1
aI-1
aI-1
aI-1
aa(lp1349
I-1
aI-1
aI-1
aI-1
aI-1
aI-1
aa(lp1350
I-1
aI-1
aI-1
aI-1
aI-1
aI-1
aa(lp1351
I-1
aI-1
aI-1
aI-1
aI-1
aI-1
aa(lp1352
I-1
aI-1
aI-1
aI-1
aI-1
aI-1
aa(lp1353
I-1
aI-1
aI-1
aI-1
aI-1
aI-1
aa(lp1354
I-1
aI-1
aI-1
aI-1
aI-1
aI-1
aa(lp1355
I-1
aI-1
aI-1
aI-1
aI-1
aI-1
aa(lp1356
I-1
aI-1
aI-1
aI-1
aI-1
aI-1
aa(lp1357
I-1
aI-1
aI-1
aI-1
aI-1
aI-1
aa(lp1358
I-1
aI-1
aI-1
aI-1
aI-1
aI-1
aa(lp1359
I-1
aI-1
aI-1
aI-1
aI-1
aI-1
aa(lp1360
I-1
aI-1
aI-1
aI-1
aI-1
aI-1
aa(lp1361
I-1
aI-1
aI-1
aI-1
aI-1
aI-1
aa(lp1362
I-1
aI-1
aI-1
aI-1
aI-1
aI-1
aa(lp1363
I-1
aI-1
aI-1
aI-1
aI-1
aI-1
aa(lp1364
I-1
aI-1
aI-1
aI-1
aI-1
aI-1
aa(lp1365
I-1
aI-1
aI-1
aI-1
aI-1
aI-1
aa(lp1366
I-1
aI-1
aI-1
aI-1
aI-1
aI-1
aa(lp1367
I-1
aI-1
aI-1
aI-1
aI-1
aI-1
aa(lp1368
I-1
aI-1
aI-1
aI-1
aI-1
aI-1
aa(lp1369
I-1
aI-1
aI-1
aI-1
aI-1
aI-1
aa(lp1370
I-1
aI-1
aI-1
aI-1
aI-1
aI-1
aa(lp1371
I-1
aI-1
aI-1
aI-1
aI-1
aI-1
aa(lp1372
I-1
aI-1
aI-1
aI-1
aI-1
aI-1
aa(lp1373
I-1
aI-1
aI-1
aI-1
aI-1
aI-1
aa(lp1374
I-1
aI-1
aI-1
aI-1
aI-1
aI-1
aa(lp1375
I-1
aI-1
aI-1
aI-1
aI-1
aI-1
aa(lp1376
I-1
aI-1
aI-1
aI-1
aI-1
aI-1
aa(lp1377
I-1
aI-1
aI-1
aI-1
aI-1
aI-1
aa(lp1378
I-1
aI-1
aI-1
aI-1
aI-1
aI-1
aa(lp1379
I-1
aI-1
aI-1
aI-1
aI-1
aI-1
aa(lp1380
I-1
aI-1
aI-1
aI-1
aI-1
aI-1
aa(lp1381
I-1
aI-1
aI-1
aI-1
aI-1
aI-1
aa(lp1382
I-1
aI-1
aI-1
aI-1
aI-1
aI-1
aa(lp1383
I-1
aI-1
aI-1
aI-1
aI-1
aI-1
aa(lp1384
I-1
aI-1
aI-1
aI-1
aI-1
aI-1
aa(lp1385
I-1
aI-1
aI-1
aI-1
aI-1
aI-1
aa(lp1386
I-1
aI-1
aI-1
aI-1
aI-1
aI-1
aa(lp1387
I-1
aI-1
aI-1
aI-1
aI-1
aI-1
aa(lp1388
I-1
aI-1
aI-1
aI-1
aI-1
aI-1
aa(lp1389
I-1
aI-1
aI-1
aI-1
aI-1
aI-1
aa(lp1390
I-1
aI-1
aI-1
aI-1
aI-1
aI-1
aa(lp1391
I-1
aI-1
aI-1
aI-1
aI-1
aI-1
aa(lp1392
I-1
aI-1
aI-1
aI-1
aI-1
aI-1
aa(lp1393
I-1
aI-1
aI-1
aI-1
aI-1
aI-1
aa(lp1394
I-1
aI-1
aI-1
aI-1
aI-1
aI-1
aa(lp1395
I-1
aI-1
aI-1
aI-1
aI-1
aI-1
aa(lp1396
I-1
aI-1
aI-1
aI-1
aI-1
aI-1
aa(lp1397
I-1
aI-1
aI-1
aI-1
aI-1
aI-1
aa(lp1398
I-1
aI-1
aI-1
aI-1
aI-1
aI-1
aa(lp1399
I-1
aI-1
aI-1
aI-1
aI-1
aI-1
aa(lp1400
I-1
aI-1
aI-1
aI-1
aI-1
aI-1
aa(lp1401
I-1
aI-1
aI-1
aI-1
aI-1
aI-1
aa(lp1402
I-1
aI-1
aI-1
aI-1
aI-1
aI-1
aa(lp1403
I-1
aI-1
aI-1
aI-1
aI-1
aI-1
aa(lp1404
I-1
aI-1
aI-1
aI-1
aI-1
aI-1
aa(lp1405
I-1
aI-1
aI-1
aI-1
aI-1
aI-1
aa(lp1406
I-1
aI-1
aI-1
aI-1
aI-1
aI-1
aa(lp1407
I-1
aI-1
aI-1
aI-1
aI-1
aI-1
aa(lp1408
I-1
aI-1
aI-1
aI-1
aI-1
aI-1
aa(lp1409
I-1
aI-1
aI-1
aI-1
aI-1
aI-1
aa(lp1410
I-1
aI-1
aI-1
aI-1
aI-1
aI-1
aa(lp1411
I-1
aI-1
aI-1
aI-1
aI-1
aI-1
aa(lp1412
I-1
aI-1
aI-1
aI-1
aI-1
aI-1
aa(lp1413
I-1
aI-1
aI-1
aI-1
aI-1
aI-1
aa(lp1414
I-1
aI-1
aI-1
aI-1
aI-1
aI-1
aa(lp1415
I-1
aI-1
aI-1
aI-1
aI-1
aI-1
aa(lp1416
I-1
aI-1
aI-1
aI-1
aI-1
aI-1
aa(lp1417
I-1
aI-1
aI-1
aI-1
aI-1
aI-1
aa(lp1418
I-1
aI-1
aI-1
aI-1
aI-1
aI-1
aa(lp1419
I-1
aI-1
aI-1
aI-1
aI-1
aI-1
aa(lp1420
I-1
aI-1
aI-1
aI-1
aI-1
aI-1
aa(lp1421
I-1
aI-1
aI-1
aI-1
aI-1
aI-1
aa(lp1422
I-1
aI-1
aI-1
aI-1
aI-1
aI-1
aa(lp1423
I-1
aI-1
aI-1
aI-1
aI-1
aI-1
aa(lp1424
I-1
aI-1
aI-1
aI-1
aI-1
aI-1
aa(lp1425
I-1
aI-1
aI-1
aI-1
aI-1
aI-1
aa(lp1426
I-1
aI-1
aI-1
aI-1
aI-1
aI-1
aa(lp1427
I-1
aI-1
aI-1
aI-1
aI-1
aI-1
aa(lp1428
I-1
aI-1
aI-1
aI-1
aI-1
aI-1
aa(lp1429
I-1
aI-1
aI-1
aI-1
aI-1
aI-1
aa(lp1430
I-1
aI-1
aI-1
aI-1
aI-1
aI-1
aa(lp1431
I-1
aI-1
aI-1
aI-1
aI-1
aI-1
aa(lp1432
I-1
aI-1
aI-1
aI-1
aI-1
aI-1
aa(lp1433
I-1
aI-1
aI-1
aI-1
aI-1
aI-1
aa(lp1434
I-1
aI-1
aI-1
aI-1
aI-1
aI-1
aa(lp1435
I-1
aI-1
aI-1
aI-1
aI-1
aI-1
aa(lp1436
I-1
aI-1
aI-1
aI-1
aI-1
aI-1
aa(lp1437
I-1
aI-1
aI-1
aI-1
aI-1
aI-1
aa(lp1438
I-1
aI-1
aI-1
aI-1
aI-1
aI-1
aa(lp1439
I-1
aI-1
aI-1
aI-1
aI-1
aI-1
aa(lp1440
I-1
aI-1
aI-1
aI-1
aI-1
aI-1
aa(lp1441
I-1
aI-1
aI-1
aI-1
aI-1
aI-1
aa(lp1442
I-1
aI-1
aI-1
aI-1
aI-1
aI-1
aa(lp1443
I-1
aI-1
aI-1
aI-1
aI-1
aI-1
aa(lp1444
I-1
aI-1
aI-1
aI-1
aI-1
aI-1
aa(lp1445
I-1
aI-1
aI-1
aI-1
aI-1
aI-1
aa(lp1446
I-1
aI-1
aI-1
aI-1
aI-1
aI-1
aa(lp1447
I-1
aI-1
aI-1
aI-1
aI-1
aI-1
aa(lp1448
I-1
aI-1
aI-1
aI-1
aI-1
aI-1
aa(lp1449
I-1
aI-1
aI-1
aI-1
aI-1
aI-1
aa(lp1450
I-1
aI-1
aI-1
aI-1
aI-1
aI-1
aa(lp1451
I-1
aI-1
aI-1
aI-1
aI-1
aI-1
aa(lp1452
I-1
aI-1
aI-1
aI-1
aI-1
aI-1
aa(lp1453
I-1
aI-1
aI-1
aI-1
aI-1
aI-1
aa(lp1454
I-1
aI-1
aI-1
aI-1
aI-1
aI-1
aa(lp1455
I-1
aI-1
aI-1
aI-1
aI-1
aI-1
aa(lp1456
I-1
aI-1
aI-1
aI-1
aI-1
aI-1
aa(lp1457
I-1
aI-1
aI-1
aI-1
aI-1
aI-1
aa(lp1458
I-1
aI-1
aI-1
aI-1
aI-1
aI-1
aa(lp1459
I-1
aI-1
aI-1
aI-1
aI-1
aI-1
aa(lp1460
I-1
aI-1
aI-1
aI-1
aI-1
aI-1
aa(lp1461
I-1
aI-1
aI-1
aI-1
aI-1
aI-1
aa(lp1462
I-1
aI-1
aI-1
aI-1
aI-1
aI-1
aa(lp1463
I-1
aI-1
aI-1
aI-1
aI-1
aI-1
aa(lp1464
I-1
aI-1
aI-1
aI-1
aI-1
aI-1
aa(lp1465
I-1
aI-1
aI-1
aI-1
aI-1
aI-1
aa(lp1466
I-1
aI-1
aI-1
aI-1
aI-1
aI-1
aa(lp1467
I-1
aI-1
aI-1
aI-1
aI-1
aI-1
aa(lp1468
I-1
aI-1
aI-1
aI-1
aI-1
aI-1
aa(lp1469
I-1
aI-1
aI-1
aI-1
aI-1
aI-1
aa(lp1470
I-1
aI-1
aI-1
aI-1
aI-1
aI-1
aa(lp1471
I-1
aI-1
aI-1
aI-1
aI-1
aI-1
aa(lp1472
I-1
aI-1
aI-1
aI-1
aI-1
aI-1
aa(lp1473
I-1
aI-1
aI-1
aI-1
aI-1
aI-1
aa(lp1474
I-1
aI-1
aI-1
aI-1
aI-1
aI-1
aa(lp1475
I-1
aI-1
aI-1
aI-1
aI-1
aI-1
aa(lp1476
I-1
aI-1
aI-1
aI-1
aI-1
aI-1
aa(lp1477
I-1
aI-1
aI-1
aI-1
aI-1
aI-1
aa(lp1478
I-1
aI-1
aI-1
aI-1
aI-1
aI-1
aa(lp1479
I-1
aI-1
aI-1
aI-1
aI-1
aI-1
aa(lp1480
I-1
aI-1
aI-1
aI-1
aI-1
aI-1
aa(lp1481
I-1
aI-1
aI-1
aI-1
aI-1
aI-1
aa(lp1482
I-1
aI-1
aI-1
aI-1
aI-1
aI-1
aa(lp1483
I-1
aI-1
aI-1
aI-1
aI-1
aI-1
aa(lp1484
I-1
aI-1
aI-1
aI-1
aI-1
aI-1
aa(lp1485
I-1
aI-1
aI-1
aI-1
aI-1
aI-1
aa(lp1486
I-1
aI-1
aI-1
aI-1
aI-1
aI-1
aa(lp1487
I-1
aI-1
aI-1
aI-1
aI-1
aI-1
aa(lp1488
I-1
aI-1
aI-1
aI-1
aI-1
aI-1
aa(lp1489
I-1
aI-1
aI-1
aI-1
aI-1
aI-1
aa(lp1490
I-1
aI-1
aI-1
aI-1
aI-1
aI-1
aa(lp1491
I-1
aI-1
aI-1
aI-1
aI-1
aI-1
aa(lp1492
I-1
aI-1
aI-1
aI-1
aI-1
aI-1
aa(lp1493
I-1
aI-1
aI-1
aI-1
aI-1
aI-1
aa(lp1494
I-1
aI-1
aI-1
aI-1
aI-1
aI-1
aa(lp1495
I-1
aI-1
aI-1
aI-1
aI-1
aI-1
aa(lp1496
I-1
aI-1
aI-1
aI-1
aI-1
aI-1
aa(lp1497
I-1
aI-1
aI-1
aI-1
aI-1
aI-1
aa(lp1498
I-1
aI-1
aI-1
aI-1
aI-1
aI-1
aa(lp1499
I-1
aI-1
aI-1
aI-1
aI-1
aI-1
aa(lp1500
I-1
aI-1
aI-1
aI-1
aI-1
aI-1
aa(lp1501
I-1
aI-1
aI-1
aI-1
aI-1
aI-1
aa(lp1502
I-1
aI-1
aI-1
aI-1
aI-1
aI-1
aa(lp1503
I-1
aI-1
aI-1
aI-1
aI-1
aI-1
aa(lp1504
I-1
aI-1
aI-1
aI-1
aI-1
aI-1
aa(lp1505
I-1
aI-1
aI-1
aI-1
aI-1
aI-1
aa(lp1506
I-1
aI-1
aI-1
aI-1
aI-1
aI-1
aa(lp1507
I-1
aI-1
aI-1
aI-1
aI-1
aI-1
aa(lp1508
I-1
aI-1
aI-1
aI-1
aI-1
aI-1
aa(lp1509
I-1
aI-1
aI-1
aI-1
aI-1
aI-1
aa(lp1510
I-1
aI-1
aI-1
aI-1
aI-1
aI-1
aa(lp1511
I-1
aI-1
aI-1
aI-1
aI-1
aI-1
aa(lp1512
I-1
aI-1
aI-1
aI-1
aI-1
aI-1
aa(lp1513
I-1
aI-1
aI-1
aI-1
aI-1
aI-1
aa(lp1514
I-1
aI-1
aI-1
aI-1
aI-1
aI-1
aa(lp1515
I-1
aI-1
aI-1
aI-1
aI-1
aI-1
aa(lp1516
I-1
aI-1
aI-1
aI-1
aI-1
aI-1
aa(lp1517
I-1
aI-1
aI-1
aI-1
aI-1
aI-1
aa(lp1518
I-1
aI-1
aI-1
aI-1
aI-1
aI-1
aa(lp1519
I-1
aI-1
aI-1
aI-1
aI-1
aI-1
aa(lp1520
I-1
aI-1
aI-1
aI-1
aI-1
aI-1
aa(lp1521
I-1
aI-1
aI-1
aI-1
aI-1
aI-1
aa(lp1522
I-1
aI-1
aI-1
aI-1
aI-1
aI-1
aa(lp1523
I-1
aI-1
aI-1
aI-1
aI-1
aI-1
aa(lp1524
I-1
aI-1
aI-1
aI-1
aI-1
aI-1
aa(lp1525
I-1
aI-1
aI-1
aI-1
aI-1
aI-1
aa(lp1526
I-1
aI-1
aI-1
aI-1
aI-1
aI-1
aa(lp1527
I-1
aI-1
aI-1
aI-1
aI-1
aI-1
aa(lp1528
I-1
aI-1
aI-1
aI-1
aI-1
aI-1
aa(lp1529
I-1
aI-1
aI-1
aI-1
aI-1
aI-1
aa(lp1530
I-1
aI-1
aI-1
aI-1
aI-1
aI-1
aa(lp1531
I-1
aI-1
aI-1
aI-1
aI-1
aI-1
aa(lp1532
I-1
aI-1
aI-1
aI-1
aI-1
aI-1
aa(lp1533
I-1
aI-1
aI-1
aI-1
aI-1
aI-1
aa(lp1534
I-1
aI-1
aI-1
aI-1
aI-1
aI-1
aa(lp1535
I-1
aI-1
aI-1
aI-1
aI-1
aI-1
aa(lp1536
I-1
aI-1
aI-1
aI-1
aI-1
aI-1
aa(lp1537
I-1
aI-1
aI-1
aI-1
aI-1
aI-1
aa(lp1538
I-1
aI-1
aI-1
aI-1
aI-1
aI-1
aa(lp1539
I-1
aI-1
aI-1
aI-1
aI-1
aI-1
aa(lp1540
I-1
aI-1
aI-1
aI-1
aI-1
aI-1
aa(lp1541
I-1
aI-1
aI-1
aI-1
aI-1
aI-1
aa(lp1542
I-1
aI-1
aI-1
aI-1
aI-1
aI-1
aa(lp1543
I-1
aI-1
aI-1
aI-1
aI-1
aI-1
aa(lp1544
I-1
aI-1
aI-1
aI-1
aI-1
aI-1
aa(lp1545
I-1
aI-1
aI-1
aI-1
aI-1
aI-1
aa(lp1546
I-1
aI-1
aI-1
aI-1
aI-1
aI-1
aa(lp1547
I-1
aI-1
aI-1
aI-1
aI-1
aI-1
aa(lp1548
I-1
aI-1
aI-1
aI-1
aI-1
aI-1
aa(lp1549
I-1
aI-1
aI-1
aI-1
aI-1
aI-1
aa(lp1550
I-1
aI-1
aI-1
aI-1
aI-1
aI-1
aa(lp1551
I-1
aI-1
aI-1
aI-1
aI-1
aI-1
aa(lp1552
I-1
aI-1
aI-1
aI-1
aI-1
aI-1
aa(lp1553
I-1
aI-1
aI-1
aI-1
aI-1
aI-1
aa(lp1554
I-1
aI-1
aI-1
aI-1
aI-1
aI-1
aa(lp1555
I-1
aI-1
aI-1
aI-1
aI-1
aI-1
aa(lp1556
I-1
aI-1
aI-1
aI-1
aI-1
aI-1
aa(lp1557
I-1
aI-1
aI-1
aI-1
aI-1
aI-1
aa(lp1558
I-1
aI-1
aI-1
aI-1
aI-1
aI-1
aa(lp1559
I-1
aI-1
aI-1
aI-1
aI-1
aI-1
aa(lp1560
I-1
aI-1
aI-1
aI-1
aI-1
aI-1
aa(lp1561
I-1
aI-1
aI-1
aI-1
aI-1
aI-1
aa(lp1562
I-1
aI-1
aI-1
aI-1
aI-1
aI-1
aa(lp1563
I-1
aI-1
aI-1
aI-1
aI-1
aI-1
aa(lp1564
I-1
aI-1
aI-1
aI-1
aI-1
aI-1
aa(lp1565
I-1
aI-1
aI-1
aI-1
aI-1
aI-1
aa(lp1566
I-1
aI-1
aI-1
aI-1
aI-1
aI-1
aa(lp1567
I-1
aI-1
aI-1
aI-1
aI-1
aI-1
aa(lp1568
I-1
aI-1
aI-1
aI-1
aI-1
aI-1
aa(lp1569
I-1
aI-1
aI-1
aI-1
aI-1
aI-1
aa(lp1570
I-1
aI-1
aI-1
aI-1
aI-1
aI-1
aa(lp1571
I-1
aI-1
aI-1
aI-1
aI-1
aI-1
aa(lp1572
I-1
aI-1
aI-1
aI-1
aI-1
aI-1
aa(lp1573
I-1
aI-1
aI-1
aI-1
aI-1
aI-1
aa(lp1574
I-1
aI-1
aI-1
aI-1
aI-1
aI-1
aa(lp1575
I-1
aI-1
aI-1
aI-1
aI-1
aI-1
aa(lp1576
I-1
aI-1
aI-1
aI-1
aI-1
aI-1
aa(lp1577
I-1
aI-1
aI-1
aI-1
aI-1
aI-1
aa(lp1578
I-1
aI-1
aI-1
aI-1
aI-1
aI-1
aa(lp1579
I-1
aI-1
aI-1
aI-1
aI-1
aI-1
aa(lp1580
I-1
aI-1
aI-1
aI-1
aI-1
aI-1
aa(lp1581
I-1
aI-1
aI-1
aI-1
aI-1
aI-1
aa(lp1582
I-1
aI-1
aI-1
aI-1
aI-1
aI-1
aa(lp1583
I-1
aI-1
aI-1
aI-1
aI-1
aI-1
aa(lp1584
I-1
aI-1
aI-1
aI-1
aI-1
aI-1
aa(lp1585
I-1
aI-1
aI-1
aI-1
aI-1
aI-1
aa(lp1586
I-1
aI-1
aI-1
aI-1
aI-1
aI-1
aa(lp1587
I-1
aI-1
aI-1
aI-1
aI-1
aI-1
aa(lp1588
I-1
aI-1
aI-1
aI-1
aI-1
aI-1
aa(lp1589
I-1
aI-1
aI-1
aI-1
aI-1
aI-1
aa(lp1590
I-1
aI-1
aI-1
aI-1
aI-1
aI-1
aa(lp1591
I-1
aI-1
aI-1
aI-1
aI-1
aI-1
aa(lp1592
I-1
aI-1
aI-1
aI-1
aI-1
aI-1
aa(lp1593
I-1
aI-1
aI-1
aI-1
aI-1
aI-1
aa(lp1594
I-1
aI-1
aI-1
aI-1
aI-1
aI-1
aa(lp1595
I-1
aI-1
aI-1
aI-1
aI-1
aI-1
aa(lp1596
I-1
aI-1
aI-1
aI-1
aI-1
aI-1
aa(lp1597
I-1
aI-1
aI-1
aI-1
aI-1
aI-1
aa(lp1598
I-1
aI-1
aI-1
aI-1
aI-1
aI-1
aa(lp1599
I-1
aI-1
aI-1
aI-1
aI-1
aI-1
aa(lp1600
I-1
aI-1
aI-1
aI-1
aI-1
aI-1
aa(lp1601
I-1
aI-1
aI-1
aI-1
aI-1
aI-1
aa(lp1602
I-1
aI-1
aI-1
aI-1
aI-1
aI-1
aa(lp1603
I-1
aI-1
aI-1
aI-1
aI-1
aI-1
aa(lp1604
I-1
aI-1
aI-1
aI-1
aI-1
aI-1
aa(lp1605
I-1
aI-1
aI-1
aI-1
aI-1
aI-1
aa(lp1606
I-1
aI-1
aI-1
aI-1
aI-1
aI-1
aa(lp1607
I-1
aI-1
aI-1
aI-1
aI-1
aI-1
aa(lp1608
I-1
aI-1
aI-1
aI-1
aI-1
aI-1
aa(lp1609
I-1
aI-1
aI-1
aI-1
aI-1
aI-1
aa(lp1610
I-1
aI-1
aI-1
aI-1
aI-1
aI-1
aa(lp1611
I-1
aI-1
aI-1
aI-1
aI-1
aI-1
aa(lp1612
I-1
aI-1
aI-1
aI-1
aI-1
aI-1
aa(lp1613
I-1
aI-1
aI-1
aI-1
aI-1
aI-1
aa(lp1614
I-1
aI-1
aI-1
aI-1
aI-1
aI-1
aa(lp1615
I-1
aI-1
aI-1
aI-1
aI-1
aI-1
aa(lp1616
I-1
aI-1
aI-1
aI-1
aI-1
aI-1
aa(lp1617
I-1
aI-1
aI-1
aI-1
aI-1
aI-1
aa(lp1618
I-1
aI-1
aI-1
aI-1
aI-1
aI-1
aa(lp1619
I-1
aI-1
aI-1
aI-1
aI-1
aI-1
aa(lp1620
I-1
aI-1
aI-1
aI-1
aI-1
aI-1
aa(lp1621
I-1
aI-1
aI-1
aI-1
aI-1
aI-1
aa(lp1622
I-1
aI-1
aI-1
aI-1
aI-1
aI-1
aa(lp1623
I-1
aI-1
aI-1
aI-1
aI-1
aI-1
aa(lp1624
I-1
aI-1
aI-1
aI-1
aI-1
aI-1
aa(lp1625
I-1
aI-1
aI-1
aI-1
aI-1
aI-1
aa(lp1626
I-1
aI-1
aI-1
aI-1
aI-1
aI-1
aa(lp1627
I-1
aI-1
aI-1
aI-1
aI-1
aI-1
aa(lp1628
I-1
aI-1
aI-1
aI-1
aI-1
aI-1
aa(lp1629
I-1
aI-1
aI-1
aI-1
aI-1
aI-1
aa(lp1630
I-1
aI-1
aI-1
aI-1
aI-1
aI-1
aa(lp1631
I-1
aI-1
aI-1
aI-1
aI-1
aI-1
aa(lp1632
I-1
aI-1
aI-1
aI-1
aI-1
aI-1
aa(lp1633
I-1
aI-1
aI-1
aI-1
aI-1
aI-1
aa(lp1634
I-1
aI-1
aI-1
aI-1
aI-1
aI-1
aa(lp1635
I-1
aI-1
aI-1
aI-1
aI-1
aI-1
aa(lp1636
I-1
aI-1
aI-1
aI-1
aI-1
aI-1
aa(lp1637
I-1
aI-1
aI-1
aI-1
aI-1
aI-1
aa(lp1638
I-1
aI-1
aI-1
aI-1
aI-1
aI-1
aa(lp1639
I-1
aI-1
aI-1
aI-1
aI-1
aI-1
aa(lp1640
I-1
aI-1
aI-1
aI-1
aI-1
aI-1
aa(lp1641
I-1
aI-1
aI-1
aI-1
aI-1
aI-1
aa(lp1642
I-1
aI-1
aI-1
aI-1
aI-1
aI-1
aa(lp1643
I-1
aI-1
aI-1
aI-1
aI-1
aI-1
aa(lp1644
I-1
aI-1
aI-1
aI-1
aI-1
aI-1
aa(lp1645
I-1
aI-1
aI-1
aI-1
aI-1
aI-1
aa(lp1646
I-1
aI-1
aI-1
aI-1
aI-1
aI-1
aa(lp1647
I-1
aI-1
aI-1
aI-1
aI-1
aI-1
aa(lp1648
I-1
aI-1
aI-1
aI-1
aI-1
aI-1
aa(lp1649
I-1
aI-1
aI-1
aI-1
aI-1
aI-1
aa(lp1650
I-1
aI-1
aI-1
aI-1
aI-1
aI-1
aa(lp1651
I-1
aI-1
aI-1
aI-1
aI-1
aI-1
aa(lp1652
I-1
aI-1
aI-1
aI-1
aI-1
aI-1
aa(lp1653
I-1
aI-1
aI-1
aI-1
aI-1
aI-1
aa(lp1654
I-1
aI-1
aI-1
aI-1
aI-1
aI-1
aa(lp1655
I-1
aI-1
aI-1
aI-1
aI-1
aI-1
aa(lp1656
I-1
aI-1
aI-1
aI-1
aI-1
aI-1
aa(lp1657
I-1
aI-1
aI-1
aI-1
aI-1
aI-1
aa(lp1658
I-1
aI-1
aI-1
aI-1
aI-1
aI-1
aa(lp1659
I-1
aI-1
aI-1
aI-1
aI-1
aI-1
aa(lp1660
I-1
aI-1
aI-1
aI-1
aI-1
aI-1
aa(lp1661
I-1
aI-1
aI-1
aI-1
aI-1
aI-1
aa(lp1662
I-1
aI-1
aI-1
aI-1
aI-1
aI-1
aa(lp1663
I-1
aI-1
aI-1
aI-1
aI-1
aI-1
aa(lp1664
I-1
aI-1
aI-1
aI-1
aI-1
aI-1
aa(lp1665
I-1
aI-1
aI-1
aI-1
aI-1
aI-1
aa(lp1666
I-1
aI-1
aI-1
aI-1
aI-1
aI-1
aa(lp1667
I-1
aI-1
aI-1
aI-1
aI-1
aI-1
aa(lp1668
I-1
aI-1
aI-1
aI-1
aI-1
aI-1
aa(lp1669
I-1
aI-1
aI-1
aI-1
aI-1
aI-1
aa(lp1670
I-1
aI-1
aI-1
aI-1
aI-1
aI-1
aa(lp1671
I-1
aI-1
aI-1
aI-1
aI-1
aI-1
aa(lp1672
I-1
aI-1
aI-1
aI-1
aI-1
aI-1
aa(lp1673
I-1
aI-1
aI-1
aI-1
aI-1
aI-1
aa(lp1674
I-1
aI-1
aI-1
aI-1
aI-1
aI-1
aa(lp1675
I-1
aI-1
aI-1
aI-1
aI-1
aI-1
aa(lp1676
I-1
aI-1
aI-1
aI-1
aI-1
aI-1
aa(lp1677
I-1
aI-1
aI-1
aI-1
aI-1
aI-1
aa(lp1678
I-1
aI-1
aI-1
aI-1
aI-1
aI-1
aa(lp1679
I-1
aI-1
aI-1
aI-1
aI-1
aI-1
aa(lp1680
I-1
aI-1
aI-1
aI-1
aI-1
aI-1
aa(lp1681
I-1
aI-1
aI-1
aI-1
aI-1
aI-1
aa(lp1682
I-1
aI-1
aI-1
aI-1
aI-1
aI-1
aa(lp1683
I-1
aI-1
aI-1
aI-1
aI-1
aI-1
aa(lp1684
I-1
aI-1
aI-1
aI-1
aI-1
aI-1
aa(lp1685
I-1
aI-1
aI-1
aI-1
aI-1
aI-1
aa(lp1686
I-1
aI-1
aI-1
aI-1
aI-1
aI-1
aa(lp1687
I-1
aI-1
aI-1
aI-1
aI-1
aI-1
aa(lp1688
I-1
aI-1
aI-1
aI-1
aI-1
aI-1
aa(lp1689
I-1
aI-1
aI-1
aI-1
aI-1
aI-1
aa(lp1690
I-1
aI-1
aI-1
aI-1
aI-1
aI-1
aa(lp1691
I-1
aI-1
aI-1
aI-1
aI-1
aI-1
aa(lp1692
I-1
aI-1
aI-1
aI-1
aI-1
aI-1
aa(lp1693
I-1
aI-1
aI-1
aI-1
aI-1
aI-1
aa(lp1694
I-1
aI-1
aI-1
aI-1
aI-1
aI-1
aa(lp1695
I-1
aI-1
aI-1
aI-1
aI-1
aI-1
aa(lp1696
I-1
aI-1
aI-1
aI-1
aI-1
aI-1
aa(lp1697
I-1
aI-1
aI-1
aI-1
aI-1
aI-1
aa(lp1698
I-1
aI-1
aI-1
aI-1
aI-1
aI-1
aa(lp1699
I-1
aI-1
aI-1
aI-1
aI-1
aI-1
aa(lp1700
I-1
aI-1
aI-1
aI-1
aI-1
aI-1
aa(lp1701
I-1
aI-1
aI-1
aI-1
aI-1
aI-1
aa(lp1702
I-1
aI-1
aI-1
aI-1
aI-1
aI-1
aa(lp1703
I-1
aI-1
aI-1
aI-1
aI-1
aI-1
aa(lp1704
I-1
aI-1
aI-1
aI-1
aI-1
aI-1
aa(lp1705
I-1
aI-1
aI-1
aI-1
aI-1
aI-1
aa(lp1706
I-1
aI-1
aI-1
aI-1
aI-1
aI-1
aa(lp1707
I-1
aI-1
aI-1
aI-1
aI-1
aI-1
aa(lp1708
I-1
aI-1
aI-1
aI-1
aI-1
aI-1
aa(lp1709
I-1
aI-1
aI-1
aI-1
aI-1
aI-1
aa(lp1710
I-1
aI-1
aI-1
aI-1
aI-1
aI-1
aa(lp1711
I-1
aI-1
aI-1
aI-1
aI-1
aI-1
aa(lp1712
I-1
aI-1
aI-1
aI-1
aI-1
aI-1
aa(lp1713
I-1
aI-1
aI-1
aI-1
aI-1
aI-1
aa(lp1714
I-1
aI-1
aI-1
aI-1
aI-1
aI-1
aa(lp1715
I-1
aI-1
aI-1
aI-1
aI-1
aI-1
aa(lp1716
I-1
aI-1
aI-1
aI-1
aI-1
aI-1
aa(lp1717
I-1
aI-1
aI-1
aI-1
aI-1
aI-1
aa(lp1718
I-1
aI-1
aI-1
aI-1
aI-1
aI-1
aa(lp1719
I-1
aI-1
aI-1
aI-1
aI-1
aI-1
aa(lp1720
I-1
aI-1
aI-1
aI-1
aI-1
aI-1
aa(lp1721
I-1
aI-1
aI-1
aI-1
aI-1
aI-1
aa(lp1722
I-1
aI-1
aI-1
aI-1
aI-1
aI-1
aa(lp1723
I-1
aI-1
aI-1
aI-1
aI-1
aI-1
aa(lp1724
I-1
aI-1
aI-1
aI-1
aI-1
aI-1
aa(lp1725
I-1
aI-1
aI-1
aI-1
aI-1
aI-1
aa(lp1726
I-1
aI-1
aI-1
aI-1
aI-1
aI-1
aa(lp1727
I-1
aI-1
aI-1
aI-1
aI-1
aI-1
aa(lp1728
I-1
aI-1
aI-1
aI-1
aI-1
aI-1
aa(lp1729
I-1
aI-1
aI-1
aI-1
aI-1
aI-1
aa(lp1730
I-1
aI-1
aI-1
aI-1
aI-1
aI-1
aa(lp1731
I-1
aI-1
aI-1
aI-1
aI-1
aI-1
aa(lp1732
I-1
aI-1
aI-1
aI-1
aI-1
aI-1
aa(lp1733
I-1
aI-1
aI-1
aI-1
aI-1
aI-1
aa(lp1734
I-1
aI-1
aI-1
aI-1
aI-1
aI-1
aa(lp1735
I-1
aI-1
aI-1
aI-1
aI-1
aI-1
aa(lp1736
I-1
aI-1
aI-1
aI-1
aI-1
aI-1
aa(lp1737
I-1
aI-1
aI-1
aI-1
aI-1
aI-1
aa(lp1738
I-1
aI-1
aI-1
aI-1
aI-1
aI-1
aa(lp1739
I-1
aI-1
aI-1
aI-1
aI-1
aI-1
aa(lp1740
I-1
aI-1
aI-1
aI-1
aI-1
aI-1
aa(lp1741
I-1
aI-1
aI-1
aI-1
aI-1
aI-1
aa(lp1742
I-1
aI-1
aI-1
aI-1
aI-1
aI-1
aa(lp1743
I-1
aI-1
aI-1
aI-1
aI-1
aI-1
aa(lp1744
I-1
aI-1
aI-1
aI-1
aI-1
aI-1
aa(lp1745
I-1
aI-1
aI-1
aI-1
aI-1
aI-1
aa(lp1746
I-1
aI-1
aI-1
aI-1
aI-1
aI-1
aa(lp1747
I-1
aI-1
aI-1
aI-1
aI-1
aI-1
aa(lp1748
I-1
aI-1
aI-1
aI-1
aI-1
aI-1
aa(lp1749
I-1
aI-1
aI-1
aI-1
aI-1
aI-1
aa(lp1750
I-1
aI-1
aI-1
aI-1
aI-1
aI-1
aa(lp1751
I-1
aI-1
aI-1
aI-1
aI-1
aI-1
aa(lp1752
I-1
aI-1
aI-1
aI-1
aI-1
aI-1
aa(lp1753
I-1
aI-1
aI-1
aI-1
aI-1
aI-1
aa(lp1754
I-1
aI-1
aI-1
aI-1
aI-1
aI-1
aa(lp1755
I-1
aI-1
aI-1
aI-1
aI-1
aI-1
aa(lp1756
I-1
aI-1
aI-1
aI-1
aI-1
aI-1
aa(lp1757
I-1
aI-1
aI-1
aI-1
aI-1
aI-1
aa(lp1758
I-1
aI-1
aI-1
aI-1
aI-1
aI-1
aa(lp1759
I-1
aI-1
aI-1
aI-1
aI-1
aI-1
aa(lp1760
I-1
aI-1
aI-1
aI-1
aI-1
aI-1
aa(lp1761
I-1
aI-1
aI-1
aI-1
aI-1
aI-1
aa(lp1762
I-1
aI-1
aI-1
aI-1
aI-1
aI-1
aa(lp1763
I-1
aI-1
aI-1
aI-1
aI-1
aI-1
aa(lp1764
I-1
aI-1
aI-1
aI-1
aI-1
aI-1
aa(lp1765
I-1
aI-1
aI-1
aI-1
aI-1
aI-1
aa(lp1766
I-1
aI-1
aI-1
aI-1
aI-1
aI-1
aa(lp1767
I-1
aI-1
aI-1
aI-1
aI-1
aI-1
aa(lp1768
I-1
aI-1
aI-1
aI-1
aI-1
aI-1
aa(lp1769
I-1
aI-1
aI-1
aI-1
aI-1
aI-1
aa(lp1770
I-1
aI-1
aI-1
aI-1
aI-1
aI-1
aa(lp1771
I-1
aI-1
aI-1
aI-1
aI-1
aI-1
aa(lp1772
I-1
aI-1
aI-1
aI-1
aI-1
aI-1
aa(lp1773
I-1
aI-1
aI-1
aI-1
aI-1
aI-1
aa(lp1774
I-1
aI-1
aI-1
aI-1
aI-1
aI-1
aa(lp1775
I-1
aI-1
aI-1
aI-1
aI-1
aI-1
aa(lp1776
I-1
aI-1
aI-1
aI-1
aI-1
aI-1
aa(lp1777
I-1
aI-1
aI-1
aI-1
aI-1
aI-1
aa(lp1778
I-1
aI-1
aI-1
aI-1
aI-1
aI-1
aa(lp1779
I-1
aI-1
aI-1
aI-1
aI-1
aI-1
aa(lp1780
I-1
aI-1
aI-1
aI-1
aI-1
aI-1
aa(lp1781
I-1
aI-1
aI-1
aI-1
aI-1
aI-1
aa(lp1782
I-1
aI-1
aI-1
aI-1
aI-1
aI-1
aa(lp1783
I-1
aI-1
aI-1
aI-1
aI-1
aI-1
aa(lp1784
I-1
aI-1
aI-1
aI-1
aI-1
aI-1
aa(lp1785
I-1
aI-1
aI-1
aI-1
aI-1
aI-1
aa(lp1786
I-1
aI-1
aI-1
aI-1
aI-1
aI-1
aa(lp1787
I-1
aI-1
aI-1
aI-1
aI-1
aI-1
aa(lp1788
I-1
aI-1
aI-1
aI-1
aI-1
aI-1
aa(lp1789
I-1
aI-1
aI-1
aI-1
aI-1
aI-1
aa(lp1790
I-1
aI-1
aI-1
aI-1
aI-1
aI-1
aa(lp1791
I-1
aI-1
aI-1
aI-1
aI-1
aI-1
aa(lp1792
I-1
aI-1
aI-1
aI-1
aI-1
aI-1
aa(lp1793
I-1
aI-1
aI-1
aI-1
aI-1
aI-1
aa(lp1794
I-1
aI-1
aI-1
aI-1
aI-1
aI-1
aa(lp1795
I-1
aI-1
aI-1
aI-1
aI-1
aI-1
aa(lp1796
I-1
aI-1
aI-1
aI-1
aI-1
aI-1
aa(lp1797
I-1
aI-1
aI-1
aI-1
aI-1
aI-1
aa(lp1798
I-1
aI-1
aI-1
aI-1
aI-1
aI-1
aa(lp1799
I-1
aI-1
aI-1
aI-1
aI-1
aI-1
aa(lp1800
I-1
aI-1
aI-1
aI-1
aI-1
aI-1
aa(lp1801
I-1
aI-1
aI-1
aI-1
aI-1
aI-1
aa(lp1802
I-1
aI-1
aI-1
aI-1
aI-1
aI-1
aa(lp1803
I-1
aI-1
aI-1
aI-1
aI-1
aI-1
aa(lp1804
I-1
aI-1
aI-1
aI-1
aI-1
aI-1
aa(lp1805
I-1
aI-1
aI-1
aI-1
aI-1
aI-1
aa(lp1806
I-1
aI-1
aI-1
aI-1
aI-1
aI-1
aa(lp1807
I-1
aI-1
aI-1
aI-1
aI-1
aI-1
aa(lp1808
I-1
aI-1
aI-1
aI-1
aI-1
aI-1
aa(lp1809
I-1
aI-1
aI-1
aI-1
aI-1
aI-1
aa(lp1810
I-1
aI-1
aI-1
aI-1
aI-1
aI-1
aa(lp1811
I-1
aI-1
aI-1
aI-1
aI-1
aI-1
aa(lp1812
I-1
aI-1
aI-1
aI-1
aI-1
aI-1
aa(lp1813
I-1
aI-1
aI-1
aI-1
aI-1
aI-1
aa(lp1814
I-1
aI-1
aI-1
aI-1
aI-1
aI-1
aa(lp1815
I-1
aI-1
aI-1
aI-1
aI-1
aI-1
aa(lp1816
I-1
aI-1
aI-1
aI-1
aI-1
aI-1
aa(lp1817
I-1
aI-1
aI-1
aI-1
aI-1
aI-1
aa(lp1818
I-1
aI-1
aI-1
aI-1
aI-1
aI-1
aa(lp1819
I-1
aI-1
aI-1
aI-1
aI-1
aI-1
aa(lp1820
I-1
aI-1
aI-1
aI-1
aI-1
aI-1
aa(lp1821
I-1
aI-1
aI-1
aI-1
aI-1
aI-1
aa(lp1822
I-1
aI-1
aI-1
aI-1
aI-1
aI-1
aa(lp1823
I-1
aI-1
aI-1
aI-1
aI-1
aI-1
aa(lp1824
I-1
aI-1
aI-1
aI-1
aI-1
aI-1
aa(lp1825
I-1
aI-1
aI-1
aI-1
aI-1
aI-1
aa(lp1826
I-1
aI-1
aI-1
aI-1
aI-1
aI-1
aa(lp1827
I-1
aI-1
aI-1
aI-1
aI-1
aI-1
aa(lp1828
I-1
aI-1
aI-1
aI-1
aI-1
aI-1
aa(lp1829
I-1
aI-1
aI-1
aI-1
aI-1
aI-1
aa(lp1830
I-1
aI-1
aI-1
aI-1
aI-1
aI-1
aa(lp1831
I-1
aI-1
aI-1
aI-1
aI-1
aI-1
aa(lp1832
I-1
aI-1
aI-1
aI-1
aI-1
aI-1
aa(lp1833
I-1
aI-1
aI-1
aI-1
aI-1
aI-1
aa(lp1834
I-1
aI-1
aI-1
aI-1
aI-1
aI-1
aa(lp1835
I-1
aI-1
aI-1
aI-1
aI-1
aI-1
aa(lp1836
I-1
aI-1
aI-1
aI-1
aI-1
aI-1
aa(lp1837
I-1
aI-1
aI-1
aI-1
aI-1
aI-1
aa(lp1838
I-1
aI-1
aI-1
aI-1
aI-1
aI-1
aa(lp1839
I-1
aI-1
aI-1
aI-1
aI-1
aI-1
aa(lp1840
I-1
aI-1
aI-1
aI-1
aI-1
aI-1
aa(lp1841
I-1
aI-1
aI-1
aI-1
aI-1
aI-1
aa(lp1842
I-1
aI-1
aI-1
aI-1
aI-1
aI-1
aa(lp1843
I-1
aI-1
aI-1
aI-1
aI-1
aI-1
aa(lp1844
I-1
aI-1
aI-1
aI-1
aI-1
aI-1
aa(lp1845
I-1
aI-1
aI-1
aI-1
aI-1
aI-1
aa(lp1846
I-1
aI-1
aI-1
aI-1
aI-1
aI-1
aa(lp1847
I-1
aI-1
aI-1
aI-1
aI-1
aI-1
aa(lp1848
I-1
aI-1
aI-1
aI-1
aI-1
aI-1
aa(lp1849
I-1
aI-1
aI-1
aI-1
aI-1
aI-1
aa(lp1850
I-1
aI-1
aI-1
aI-1
aI-1
aI-1
aa(lp1851
I-1
aI-1
aI-1
aI-1
aI-1
aI-1
aa(lp1852
I-1
aI-1
aI-1
aI-1
aI-1
aI-1
aa(lp1853
I-1
aI-1
aI-1
aI-1
aI-1
aI-1
aa(lp1854
I-1
aI-1
aI-1
aI-1
aI-1
aI-1
aa(lp1855
I-1
aI-1
aI-1
aI-1
aI-1
aI-1
aa(lp1856
I-1
aI-1
aI-1
aI-1
aI-1
aI-1
aa(lp1857
I-1
aI-1
aI-1
aI-1
aI-1
aI-1
aa(lp1858
I-1
aI-1
aI-1
aI-1
aI-1
aI-1
aa(lp1859
I-1
aI-1
aI-1
aI-1
aI-1
aI-1
aa(lp1860
I-1
aI-1
aI-1
aI-1
aI-1
aI-1
aa(lp1861
I-1
aI-1
aI-1
aI-1
aI-1
aI-1
aa(lp1862
I-1
aI-1
aI-1
aI-1
aI-1
aI-1
aa(lp1863
I-1
aI-1
aI-1
aI-1
aI-1
aI-1
aa(lp1864
I-1
aI-1
aI-1
aI-1
aI-1
aI-1
aa(lp1865
I-1
aI-1
aI-1
aI-1
aI-1
aI-1
aa(lp1866
I-1
aI-1
aI-1
aI-1
aI-1
aI-1
aa(lp1867
I-1
aI-1
aI-1
aI-1
aI-1
aI-1
aa(lp1868
I-1
aI-1
aI-1
aI-1
aI-1
aI-1
aa(lp1869
I-1
aI-1
aI-1
aI-1
aI-1
aI-1
aa(lp1870
I-1
aI-1
aI-1
aI-1
aI-1
aI-1
aa(lp1871
I-1
aI-1
aI-1
aI-1
aI-1
aI-1
aa(lp1872
I-1
aI-1
aI-1
aI-1
aI-1
aI-1
aa(lp1873
I-1
aI-1
aI-1
aI-1
aI-1
aI-1
aa(lp1874
I-1
aI-1
aI-1
aI-1
aI-1
aI-1
aa(lp1875
I-1
aI-1
aI-1
aI-1
aI-1
aI-1
aa(lp1876
I-1
aI-1
aI-1
aI-1
aI-1
aI-1
aa(lp1877
I-1
aI-1
aI-1
aI-1
aI-1
aI-1
aa(lp1878
I-1
aI-1
aI-1
aI-1
aI-1
aI-1
aa(lp1879
I-1
aI-1
aI-1
aI-1
aI-1
aI-1
aa(lp1880
I-1
aI-1
aI-1
aI-1
aI-1
aI-1
aa(lp1881
I-1
aI-1
aI-1
aI-1
aI-1
aI-1
aa(lp1882
I-1
aI-1
aI-1
aI-1
aI-1
aI-1
aa(lp1883
I-1
aI-1
aI-1
aI-1
aI-1
aI-1
aa(lp1884
I-1
aI-1
aI-1
aI-1
aI-1
aI-1
aa(lp1885
I-1
aI-1
aI-1
aI-1
aI-1
aI-1
aa(lp1886
I-1
aI-1
aI-1
aI-1
aI-1
aI-1
aa(lp1887
I-1
aI-1
aI-1
aI-1
aI-1
aI-1
aa(lp1888
I-1
aI-1
aI-1
aI-1
aI-1
aI-1
aa(lp1889
I-1
aI-1
aI-1
aI-1
aI-1
aI-1
aa(lp1890
I-1
aI-1
aI-1
aI-1
aI-1
aI-1
aa(lp1891
I-1
aI-1
aI-1
aI-1
aI-1
aI-1
aa(lp1892
I-1
aI-1
aI-1
aI-1
aI-1
aI-1
aa(lp1893
I-1
aI-1
aI-1
aI-1
aI-1
aI-1
aa(lp1894
I-1
aI-1
aI-1
aI-1
aI-1
aI-1
aa(lp1895
I-1
aI-1
aI-1
aI-1
aI-1
aI-1
aa(lp1896
I-1
aI-1
aI-1
aI-1
aI-1
aI-1
aa(lp1897
I-1
aI-1
aI-1
aI-1
aI-1
aI-1
aa(lp1898
I-1
aI-1
aI-1
aI-1
aI-1
aI-1
aa(lp1899
I-1
aI-1
aI-1
aI-1
aI-1
aI-1
aa(lp1900
I-1
aI-1
aI-1
aI-1
aI-1
aI-1
aa(lp1901
I-1
aI-1
aI-1
aI-1
aI-1
aI-1
aa(lp1902
I-1
aI-1
aI-1
aI-1
aI-1
aI-1
aa(lp1903
I-1
aI-1
aI-1
aI-1
aI-1
aI-1
aa(lp1904
I-1
aI-1
aI-1
aI-1
aI-1
aI-1
aa(lp1905
I-1
aI-1
aI-1
aI-1
aI-1
aI-1
aa(lp1906
I-1
aI-1
aI-1
aI-1
aI-1
aI-1
aa(lp1907
I-1
aI-1
aI-1
aI-1
aI-1
aI-1
aa(lp1908
I-1
aI-1
aI-1
aI-1
aI-1
aI-1
aa(lp1909
I-1
aI-1
aI-1
aI-1
aI-1
aI-1
aa(lp1910
I-1
aI-1
aI-1
aI-1
aI-1
aI-1
aa(lp1911
I-1
aI-1
aI-1
aI-1
aI-1
aI-1
aa(lp1912
I-1
aI-1
aI-1
aI-1
aI-1
aI-1
aa(lp1913
I-1
aI-1
aI-1
aI-1
aI-1
aI-1
aa(lp1914
I-1
aI-1
aI-1
aI-1
aI-1
aI-1
aa(lp1915
I-1
aI-1
aI-1
aI-1
aI-1
aI-1
aa(lp1916
I-1
aI-1
aI-1
aI-1
aI-1
aI-1
aa(lp1917
I-1
aI-1
aI-1
aI-1
aI-1
aI-1
aa(lp1918
I-1
aI-1
aI-1
aI-1
aI-1
aI-1
aa(lp1919
I-1
aI-1
aI-1
aI-1
aI-1
aI-1
aa(lp1920
I-1
aI-1
aI-1
aI-1
aI-1
aI-1
aa(lp1921
I-1
aI-1
aI-1
aI-1
aI-1
aI-1
aa(lp1922
I-1
aI-1
aI-1
aI-1
aI-1
aI-1
aa(lp1923
I-1
aI-1
aI-1
aI-1
aI-1
aI-1
aa(lp1924
I-1
aI-1
aI-1
aI-1
aI-1
aI-1
aa(lp1925
I-1
aI-1
aI-1
aI-1
aI-1
aI-1
aa(lp1926
I-1
aI-1
aI-1
aI-1
aI-1
aI-1
aa(lp1927
I-1
aI-1
aI-1
aI-1
aI-1
aI-1
aa(lp1928
I-1
aI-1
aI-1
aI-1
aI-1
aI-1
aa(lp1929
I-1
aI-1
aI-1
aI-1
aI-1
aI-1
aa(lp1930
I-1
aI-1
aI-1
aI-1
aI-1
aI-1
aa(lp1931
I-1
aI-1
aI-1
aI-1
aI-1
aI-1
aa(lp1932
I-1
aI-1
aI-1
aI-1
aI-1
aI-1
aa(lp1933
I-1
aI-1
aI-1
aI-1
aI-1
aI-1
aa(lp1934
I-1
aI-1
aI-1
aI-1
aI-1
aI-1
aa(lp1935
I-1
aI-1
aI-1
aI-1
aI-1
aI-1
aa(lp1936
I-1
aI-1
aI-1
aI-1
aI-1
aI-1
aa(lp1937
I-1
aI-1
aI-1
aI-1
aI-1
aI-1
aa(lp1938
I-1
aI-1
aI-1
aI-1
aI-1
aI-1
aa(lp1939
I-1
aI-1
aI-1
aI-1
aI-1
aI-1
aa(lp1940
I-1
aI-1
aI-1
aI-1
aI-1
aI-1
aa(lp1941
I-1
aI-1
aI-1
aI-1
aI-1
aI-1
aa(lp1942
I-1
aI-1
aI-1
aI-1
aI-1
aI-1
aa(lp1943
I-1
aI-1
aI-1
aI-1
aI-1
aI-1
aa(lp1944
I-1
aI-1
aI-1
aI-1
aI-1
aI-1
aa(lp1945
I-1
aI-1
aI-1
aI-1
aI-1
aI-1
aa(lp1946
I-1
aI-1
aI-1
aI-1
aI-1
aI-1
aa(lp1947
I-1
aI-1
aI-1
aI-1
aI-1
aI-1
aa(lp1948
I-1
aI-1
aI-1
aI-1
aI-1
aI-1
aa(lp1949
I-1
aI-1
aI-1
aI-1
aI-1
aI-1
aa(lp1950
I-1
aI-1
aI-1
aI-1
aI-1
aI-1
aa(lp1951
I-1
aI-1
aI-1
aI-1
aI-1
aI-1
aa(lp1952
I-1
aI-1
aI-1
aI-1
aI-1
aI-1
aa(lp1953
I-1
aI-1
aI-1
aI-1
aI-1
aI-1
aa(lp1954
I-1
aI-1
aI-1
aI-1
aI-1
aI-1
aa(lp1955
I-1
aI-1
aI-1
aI-1
aI-1
aI-1
aa(lp1956
I-1
aI-1
aI-1
aI-1
aI-1
aI-1
aa(lp1957
I-1
aI-1
aI-1
aI-1
aI-1
aI-1
aa(lp1958
I-1
aI-1
aI-1
aI-1
aI-1
aI-1
aa(lp1959
I-1
aI-1
aI-1
aI-1
aI-1
aI-1
aa(lp1960
I-1
aI-1
aI-1
aI-1
aI-1
aI-1
aa(lp1961
I-1
aI-1
aI-1
aI-1
aI-1
aI-1
aa(lp1962
I-1
aI-1
aI-1
aI-1
aI-1
aI-1
aa(lp1963
I-1
aI-1
aI-1
aI-1
aI-1
aI-1
aa(lp1964
I-1
aI-1
aI-1
aI-1
aI-1
aI-1
aa(lp1965
I-1
aI-1
aI-1
aI-1
aI-1
aI-1
aa(lp1966
I-1
aI-1
aI-1
aI-1
aI-1
aI-1
aa(lp1967
I-1
aI-1
aI-1
aI-1
aI-1
aI-1
aa(lp1968
I-1
aI-1
aI-1
aI-1
aI-1
aI-1
aa(lp1969
I-1
aI-1
aI-1
aI-1
aI-1
aI-1
aa(lp1970
I-1
aI-1
aI-1
aI-1
aI-1
aI-1
aa(lp1971
I-1
aI-1
aI-1
aI-1
aI-1
aI-1
aa(lp1972
I-1
aI-1
aI-1
aI-1
aI-1
aI-1
aa(lp1973
I-1
aI-1
aI-1
aI-1
aI-1
aI-1
aa(lp1974
I-1
aI-1
aI-1
aI-1
aI-1
aI-1
aa(lp1975
I-1
aI-1
aI-1
aI-1
aI-1
aI-1
aa(lp1976
I-1
aI-1
aI-1
aI-1
aI-1
aI-1
aa(lp1977
I-1
aI-1
aI-1
aI-1
aI-1
aI-1
aa(lp1978
I-1
aI-1
aI-1
aI-1
aI-1
aI-1
aa(lp1979
I-1
aI-1
aI-1
aI-1
aI-1
aI-1
aa(lp1980
I-1
aI-1
aI-1
aI-1
aI-1
aI-1
aa(lp1981
I-1
aI-1
aI-1
aI-1
aI-1
aI-1
aa(lp1982
I-1
aI-1
aI-1
aI-1
aI-1
aI-1
aa(lp1983
I-1
aI-1
aI-1
aI-1
aI-1
aI-1
aa(lp1984
I-1
aI-1
aI-1
aI-1
aI-1
aI-1
aa(lp1985
I-1
aI-1
aI-1
aI-1
aI-1
aI-1
aa(lp1986
I-1
aI-1
aI-1
aI-1
aI-1
aI-1
aa(lp1987
I-1
aI-1
aI-1
aI-1
aI-1
aI-1
aa(lp1988
I-1
aI-1
aI-1
aI-1
aI-1
aI-1
aa(lp1989
I-1
aI-1
aI-1
aI-1
aI-1
aI-1
aa(lp1990
I-1
aI-1
aI-1
aI-1
aI-1
aI-1
aa(lp1991
I-1
aI-1
aI-1
aI-1
aI-1
aI-1
aa(lp1992
I-1
aI-1
aI-1
aI-1
aI-1
aI-1
aa(lp1993
I-1
aI-1
aI-1
aI-1
aI-1
aI-1
aa(lp1994
I-1
aI-1
aI-1
aI-1
aI-1
aI-1
aa(lp1995
I-1
aI-1
aI-1
aI-1
aI-1
aI-1
aa(lp1996
I-1
aI-1
aI-1
aI-1
aI-1
aI-1
aa(lp1997
I-1
aI-1
aI-1
aI-1
aI-1
aI-1
aa(lp1998
I-1
aI-1
aI-1
aI-1
aI-1
aI-1
aa(lp1999
I-1
aI-1
aI-1
aI-1
aI-1
aI-1
aa(lp2000
I-1
aI-1
aI-1
aI-1
aI-1
aI-1
aa(lp2001
I-1
aI-1
aI-1
aI-1
aI-1
aI-1
aa(lp2002
I-1
aI-1
aI-1
aI-1
aI-1
aI-1
aa(lp2003
I-1
aI-1
aI-1
aI-1
aI-1
aI-1
aa(lp2004
I-1
aI-1
aI-1
aI-1
aI-1
aI-1
aa(lp2005
I-1
aI-1
aI-1
aI-1
aI-1
aI-1
aa(lp2006
I-1
aI-1
aI-1
aI-1
aI-1
aI-1
aa(lp2007
I-1
aI-1
aI-1
aI-1
aI-1
aI-1
aa(lp2008
I-1
aI-1
aI-1
aI-1
aI-1
aI-1
aa(lp2009
I-1
aI-1
aI-1
aI-1
aI-1
aI-1
aa(lp2010
I-1
aI-1
aI-1
aI-1
aI-1
aI-1
aa(lp2011
I-1
aI-1
aI-1
aI-1
aI-1
aI-1
aa(lp2012
I-1
aI-1
aI-1
aI-1
aI-1
aI-1
aa(lp2013
I-1
aI-1
aI-1
aI-1
aI-1
aI-1
aa(lp2014
I-1
aI-1
aI-1
aI-1
aI-1
aI-1
aa(lp2015
I-1
aI-1
aI-1
aI-1
aI-1
aI-1
aa(lp2016
I-1
aI-1
aI-1
aI-1
aI-1
aI-1
aa(lp2017
I-1
aI-1
aI-1
aI-1
aI-1
aI-1
aa(lp2018
I-1
aI-1
aI-1
aI-1
aI-1
aI-1
aa(lp2019
I-1
aI-1
aI-1
aI-1
aI-1
aI-1
aa(lp2020
I-1
aI-1
aI-1
aI-1
aI-1
aI-1
aa(lp2021
I-1
aI-1
aI-1
aI-1
aI-1
aI-1
aa(lp2022
I-1
aI-1
aI-1
aI-1
aI-1
aI-1
aa(lp2023
I-1
aI-1
aI-1
aI-1
aI-1
aI-1
aa(lp2024
I-1
aI-1
aI-1
aI-1
aI-1
aI-1
aa(lp2025
I-1
aI-1
aI-1
aI-1
aI-1
aI-1
aa(lp2026
I-1
aI-1
aI-1
aI-1
aI-1
aI-1
aa(lp2027
I-1
aI-1
aI-1
aI-1
aI-1
aI-1
aa(lp2028
I-1
aI-1
aI-1
aI-1
aI-1
aI-1
aa(lp2029
I-1
aI-1
aI-1
aI-1
aI-1
aI-1
aa(lp2030
I-1
aI-1
aI-1
aI-1
aI-1
aI-1
aa(lp2031
I-1
aI-1
aI-1
aI-1
aI-1
aI-1
aa(lp2032
I-1
aI-1
aI-1
aI-1
aI-1
aI-1
aa(lp2033
I-1
aI-1
aI-1
aI-1
aI-1
aI-1
aa(lp2034
I-1
aI-1
aI-1
aI-1
aI-1
aI-1
aa(lp2035
I-1
aI-1
aI-1
aI-1
aI-1
aI-1
aa(lp2036
I-1
aI-1
aI-1
aI-1
aI-1
aI-1
aa(lp2037
I-1
aI-1
aI-1
aI-1
aI-1
aI-1
aa(lp2038
I-1
aI-1
aI-1
aI-1
aI-1
aI-1
aa(lp2039
I-1
aI-1
aI-1
aI-1
aI-1
aI-1
aa(lp2040
I-1
aI-1
aI-1
aI-1
aI-1
aI-1
aa(lp2041
I-1
aI-1
aI-1
aI-1
aI-1
aI-1
aa(lp2042
I-1
aI-1
aI-1
aI-1
aI-1
aI-1
aa(lp2043
I-1
aI-1
aI-1
aI-1
aI-1
aI-1
aa(lp2044
I-1
aI-1
aI-1
aI-1
aI-1
aI-1
aa(lp2045
I-1
aI-1
aI-1
aI-1
aI-1
aI-1
aa(lp2046
I-1
aI-1
aI-1
aI-1
aI-1
aI-1
aa(lp2047
I-1
aI-1
aI-1
aI-1
aI-1
aI-1
aa(lp2048
I-1
aI-1
aI-1
aI-1
aI-1
aI-1
aa(lp2049
I-1
aI-1
aI-1
aI-1
aI-1
aI-1
aa(lp2050
I-1
aI-1
aI-1
aI-1
aI-1
aI-1
aa(lp2051
I-1
aI-1
aI-1
aI-1
aI-1
aI-1
aa(lp2052
I-1
aI-1
aI-1
aI-1
aI-1
aI-1
aa(lp2053
I-1
aI-1
aI-1
aI-1
aI-1
aI-1
aa(lp2054
I-1
aI-1
aI-1
aI-1
aI-1
aI-1
aa(lp2055
I-1
aI-1
aI-1
aI-1
aI-1
aI-1
aa(lp2056
I-1
aI-1
aI-1
aI-1
aI-1
aI-1
aa(lp2057
I-1
aI-1
aI-1
aI-1
aI-1
aI-1
aa(lp2058
I-1
aI-1
aI-1
aI-1
aI-1
aI-1
aa(lp2059
I-1
aI-1
aI-1
aI-1
aI-1
aI-1
aa(lp2060
I-1
aI-1
aI-1
aI-1
aI-1
aI-1
aa(lp2061
I-1
aI-1
aI-1
aI-1
aI-1
aI-1
aa(lp2062
I-1
aI-1
aI-1
aI-1
aI-1
aI-1
aa(lp2063
I-1
aI-1
aI-1
aI-1
aI-1
aI-1
aa(lp2064
I-1
aI-1
aI-1
aI-1
aI-1
aI-1
aa(lp2065
I-1
aI-1
aI-1
aI-1
aI-1
aI-1
aa(lp2066
I-1
aI-1
aI-1
aI-1
aI-1
aI-1
aa(lp2067
I-1
aI-1
aI-1
aI-1
aI-1
aI-1
aa(lp2068
I-1
aI-1
aI-1
aI-1
aI-1
aI-1
aa(lp2069
I-1
aI-1
aI-1
aI-1
aI-1
aI-1
aa(lp2070
I-1
aI-1
aI-1
aI-1
aI-1
aI-1
aa(lp2071
I-1
aI-1
aI-1
aI-1
aI-1
aI-1
aa(lp2072
I-1
aI-1
aI-1
aI-1
aI-1
aI-1
aa(lp2073
I-1
aI-1
aI-1
aI-1
aI-1
aI-1
aa(lp2074
I-1
aI-1
aI-1
aI-1
aI-1
aI-1
aa(lp2075
I-1
aI-1
aI-1
aI-1
aI-1
aI-1
aa(lp2076
I-1
aI-1
aI-1
aI-1
aI-1
aI-1
aa(lp2077
I-1
aI-1
aI-1
aI-1
aI-1
aI-1
aa(lp2078
I-1
aI-1
aI-1
aI-1
aI-1
aI-1
aa(lp2079
I-1
aI-1
aI-1
aI-1
aI-1
aI-1
aa(lp2080
I-1
aI-1
aI-1
aI-1
aI-1
aI-1
aa(lp2081
I-1
aI-1
aI-1
aI-1
aI-1
aI-1
aa(lp2082
I-1
aI-1
aI-1
aI-1
aI-1
aI-1
aa(lp2083
I-1
aI-1
aI-1
aI-1
aI-1
aI-1
aa(lp2084
I-1
aI-1
aI-1
aI-1
aI-1
aI-1
aa(lp2085
I-1
aI-1
aI-1
aI-1
aI-1
aI-1
aa(lp2086
I-1
aI-1
aI-1
aI-1
aI-1
aI-1
aa(lp2087
I-1
aI-1
aI-1
aI-1
aI-1
aI-1
aa(lp2088
I-1
aI-1
aI-1
aI-1
aI-1
aI-1
aa(lp2089
I-1
aI-1
aI-1
aI-1
aI-1
aI-1
aa(lp2090
I-1
aI-1
aI-1
aI-1
aI-1
aI-1
aa(lp2091
I-1
aI-1
aI-1
aI-1
aI-1
aI-1
aa(lp2092
I-1
aI-1
aI-1
aI-1
aI-1
aI-1
aa(lp2093
I-1
aI-1
aI-1
aI-1
aI-1
aI-1
aa(lp2094
I-1
aI-1
aI-1
aI-1
aI-1
aI-1
aa(lp2095
I-1
aI-1
aI-1
aI-1
aI-1
aI-1
aa(lp2096
I-1
aI-1
aI-1
aI-1
aI-1
aI-1
aa(lp2097
I-1
aI-1
aI-1
aI-1
aI-1
aI-1
aa(lp2098
I-1
aI-1
aI-1
aI-1
aI-1
aI-1
aa(lp2099
I-1
aI-1
aI-1
aI-1
aI-1
aI-1
aa(lp2100
I-1
aI-1
aI-1
aI-1
aI-1
aI-1
aa(lp2101
I-1
aI-1
aI-1
aI-1
aI-1
aI-1
aa(lp2102
I-1
aI-1
aI-1
aI-1
aI-1
aI-1
aa(lp2103
I-1
aI-1
aI-1
aI-1
aI-1
aI-1
aa(lp2104
I-1
aI-1
aI-1
aI-1
aI-1
aI-1
aa(lp2105
I-1
aI-1
aI-1
aI-1
aI-1
aI-1
aa(lp2106
I-1
aI-1
aI-1
aI-1
aI-1
aI-1
aa(lp2107
I-1
aI-1
aI-1
aI-1
aI-1
aI-1
aa(lp2108
I-1
aI-1
aI-1
aI-1
aI-1
aI-1
aa(lp2109
I-1
aI-1
aI-1
aI-1
aI-1
aI-1
aa(lp2110
I-1
aI-1
aI-1
aI-1
aI-1
aI-1
aa(lp2111
I-1
aI-1
aI-1
aI-1
aI-1
aI-1
aa(lp2112
I-1
aI-1
aI-1
aI-1
aI-1
aI-1
aa(lp2113
I-1
aI-1
aI-1
aI-1
aI-1
aI-1
aa(lp2114
I-1
aI-1
aI-1
aI-1
aI-1
aI-1
aa(lp2115
I-1
aI-1
aI-1
aI-1
aI-1
aI-1
aa(lp2116
I-1
aI-1
aI-1
aI-1
aI-1
aI-1
aa(lp2117
I-1
aI-1
aI-1
aI-1
aI-1
aI-1
aa(lp2118
I-1
aI-1
aI-1
aI-1
aI-1
aI-1
aa(lp2119
I-1
aI-1
aI-1
aI-1
aI-1
aI-1
aa(lp2120
I-1
aI-1
aI-1
aI-1
aI-1
aI-1
aa(lp2121
I-1
aI-1
aI-1
aI-1
aI-1
aI-1
aa(lp2122
I-1
aI-1
aI-1
aI-1
aI-1
aI-1
aa(lp2123
I-1
aI-1
aI-1
aI-1
aI-1
aI-1
aa(lp2124
I-1
aI-1
aI-1
aI-1
aI-1
aI-1
aa(lp2125
I-1
aI-1
aI-1
aI-1
aI-1
aI-1
aa(lp2126
I-1
aI-1
aI-1
aI-1
aI-1
aI-1
aa(lp2127
I-1
aI-1
aI-1
aI-1
aI-1
aI-1
aa(lp2128
I-1
aI-1
aI-1
aI-1
aI-1
aI-1
aa(lp2129
I-1
aI-1
aI-1
aI-1
aI-1
aI-1
aa(lp2130
I-1
aI-1
aI-1
aI-1
aI-1
aI-1
aa(lp2131
I-1
aI-1
aI-1
aI-1
aI-1
aI-1
aa(lp2132
I-1
aI-1
aI-1
aI-1
aI-1
aI-1
aa(lp2133
I-1
aI-1
aI-1
aI-1
aI-1
aI-1
aa(lp2134
I-1
aI-1
aI-1
aI-1
aI-1
aI-1
aa(lp2135
I-1
aI-1
aI-1
aI-1
aI-1
aI-1
aa(lp2136
I-1
aI-1
aI-1
aI-1
aI-1
aI-1
aa(lp2137
I-1
aI-1
aI-1
aI-1
aI-1
aI-1
aa(lp2138
I-1
aI-1
aI-1
aI-1
aI-1
aI-1
aa(lp2139
I-1
aI-1
aI-1
aI-1
aI-1
aI-1
aa(lp2140
I-1
aI-1
aI-1
aI-1
aI-1
aI-1
aa(lp2141
I-1
aI-1
aI-1
aI-1
aI-1
aI-1
aa(lp2142
I-1
aI-1
aI-1
aI-1
aI-1
aI-1
aa(lp2143
I-1
aI-1
aI-1
aI-1
aI-1
aI-1
aa(lp2144
I-1
aI-1
aI-1
aI-1
aI-1
aI-1
aa(lp2145
I-1
aI-1
aI-1
aI-1
aI-1
aI-1
aa(lp2146
I-1
aI-1
aI-1
aI-1
aI-1
aI-1
aa(lp2147
I-1
aI-1
aI-1
aI-1
aI-1
aI-1
aa(lp2148
I-1
aI-1
aI-1
aI-1
aI-1
aI-1
aa(lp2149
I-1
aI-1
aI-1
aI-1
aI-1
aI-1
aa(lp2150
I-1
aI-1
aI-1
aI-1
aI-1
aI-1
aa(lp2151
I-1
aI-1
aI-1
aI-1
aI-1
aI-1
aa(lp2152
I-1
aI-1
aI-1
aI-1
aI-1
aI-1
aa(lp2153
I-1
aI-1
aI-1
aI-1
aI-1
aI-1
aa(lp2154
I-1
aI-1
aI-1
aI-1
aI-1
aI-1
aa(lp2155
I-1
aI-1
aI-1
aI-1
aI-1
aI-1
aa(lp2156
I-1
aI-1
aI-1
aI-1
aI-1
aI-1
aa(lp2157
I-1
aI-1
aI-1
aI-1
aI-1
aI-1
aa(lp2158
I-1
aI-1
aI-1
aI-1
aI-1
aI-1
aa(lp2159
I-1
aI-1
aI-1
aI-1
aI-1
aI-1
aa(lp2160
I-1
aI-1
aI-1
aI-1
aI-1
aI-1
aa(lp2161
I-1
aI-1
aI-1
aI-1
aI-1
aI-1
aa(lp2162
I-1
aI-1
aI-1
aI-1
aI-1
aI-1
aa(lp2163
I-1
aI-1
aI-1
aI-1
aI-1
aI-1
aa(lp2164
I-1
aI-1
aI-1
aI-1
aI-1
aI-1
aa(lp2165
I-1
aI-1
aI-1
aI-1
aI-1
aI-1
aa(lp2166
I-1
aI-1
aI-1
aI-1
aI-1
aI-1
aa(lp2167
I-1
aI-1
aI-1
aI-1
aI-1
aI-1
aa(lp2168
I-1
aI-1
aI-1
aI-1
aI-1
aI-1
aa(lp2169
I-1
aI-1
aI-1
aI-1
aI-1
aI-1
aa(lp2170
I-1
aI-1
aI-1
aI-1
aI-1
aI-1
aa(lp2171
I-1
aI-1
aI-1
aI-1
aI-1
aI-1
aa(lp2172
I-1
aI-1
aI-1
aI-1
aI-1
aI-1
aa(lp2173
I-1
aI-1
aI-1
aI-1
aI-1
aI-1
aa(lp2174
I-1
aI-1
aI-1
aI-1
aI-1
aI-1
aa(lp2175
I-1
aI-1
aI-1
aI-1
aI-1
aI-1
aa(lp2176
I-1
aI-1
aI-1
aI-1
aI-1
aI-1
aa(lp2177
I-1
aI-1
aI-1
aI-1
aI-1
aI-1
aa(lp2178
I-1
aI-1
aI-1
aI-1
aI-1
aI-1
aa(lp2179
I-1
aI-1
aI-1
aI-1
aI-1
aI-1
aa(lp2180
I-1
aI-1
aI-1
aI-1
aI-1
aI-1
aa(lp2181
I-1
aI-1
aI-1
aI-1
aI-1
aI-1
aa(lp2182
I-1
aI-1
aI-1
aI-1
aI-1
aI-1
aa(lp2183
I-1
aI-1
aI-1
aI-1
aI-1
aI-1
aa(lp2184
I-1
aI-1
aI-1
aI-1
aI-1
aI-1
aa(lp2185
I-1
aI-1
aI-1
aI-1
aI-1
aI-1
aa(lp2186
I-1
aI-1
aI-1
aI-1
aI-1
aI-1
aa(lp2187
I-1
aI-1
aI-1
aI-1
aI-1
aI-1
aa(lp2188
I-1
aI-1
aI-1
aI-1
aI-1
aI-1
aa(lp2189
I-1
aI-1
aI-1
aI-1
aI-1
aI-1
aa(lp2190
I-1
aI-1
aI-1
aI-1
aI-1
aI-1
aa(lp2191
I-1
aI-1
aI-1
aI-1
aI-1
aI-1
aa(lp2192
I-1
aI-1
aI-1
aI-1
aI-1
aI-1
aa(lp2193
I-1
aI-1
aI-1
aI-1
aI-1
aI-1
aa(lp2194
I-1
aI-1
aI-1
aI-1
aI-1
aI-1
aa(lp2195
I-1
aI-1
aI-1
aI-1
aI-1
aI-1
aa(lp2196
I-1
aI-1
aI-1
aI-1
aI-1
aI-1
aa(lp2197
I-1
aI-1
aI-1
aI-1
aI-1
aI-1
aa(lp2198
I-1
aI-1
aI-1
aI-1
aI-1
aI-1
aa(lp2199
I-1
aI-1
aI-1
aI-1
aI-1
aI-1
aa(lp2200
I-1
aI-1
aI-1
aI-1
aI-1
aI-1
aa(lp2201
I-1
aI-1
aI-1
aI-1
aI-1
aI-1
aa(lp2202
I-1
aI-1
aI-1
aI-1
aI-1
aI-1
aa(lp2203
I-1
aI-1
aI-1
aI-1
aI-1
aI-1
aa(lp2204
I-1
aI-1
aI-1
aI-1
aI-1
aI-1
aa(lp2205
I-1
aI-1
aI-1
aI-1
aI-1
aI-1
aa(lp2206
I-1
aI-1
aI-1
aI-1
aI-1
aI-1
aa(lp2207
I-1
aI-1
aI-1
aI-1
aI-1
aI-1
aa(lp2208
I-1
aI-1
aI-1
aI-1
aI-1
aI-1
aa(lp2209
I-1
aI-1
aI-1
aI-1
aI-1
aI-1
aa(lp2210
I-1
aI-1
aI-1
aI-1
aI-1
aI-1
aa(lp2211
I-1
aI-1
aI-1
aI-1
aI-1
aI-1
aa(lp2212
I-1
aI-1
aI-1
aI-1
aI-1
aI-1
aa(lp2213
I-1
aI-1
aI-1
aI-1
aI-1
aI-1
aa(lp2214
I-1
aI-1
aI-1
aI-1
aI-1
aI-1
aa(lp2215
I-1
aI-1
aI-1
aI-1
aI-1
aI-1
aa(lp2216
I-1
aI-1
aI-1
aI-1
aI-1
aI-1
aa(lp2217
I-1
aI-1
aI-1
aI-1
aI-1
aI-1
aa(lp2218
I-1
aI-1
aI-1
aI-1
aI-1
aI-1
aa(lp2219
I-1
aI-1
aI-1
aI-1
aI-1
aI-1
aa(lp2220
I-1
aI-1
aI-1
aI-1
aI-1
aI-1
aa(lp2221
I-1
aI-1
aI-1
aI-1
aI-1
aI-1
aa(lp2222
I-1
aI-1
aI-1
aI-1
aI-1
aI-1
aa(lp2223
I-1
aI-1
aI-1
aI-1
aI-1
aI-1
aa(lp2224
I-1
aI-1
aI-1
aI-1
aI-1
aI-1
aa(lp2225
I-1
aI-1
aI-1
aI-1
aI-1
aI-1
aa(lp2226
I-1
aI-1
aI-1
aI-1
aI-1
aI-1
aa(lp2227
I-1
aI-1
aI-1
aI-1
aI-1
aI-1
aa(lp2228
I-1
aI-1
aI-1
aI-1
aI-1
aI-1
aa(lp2229
I-1
aI-1
aI-1
aI-1
aI-1
aI-1
aa(lp2230
I-1
aI-1
aI-1
aI-1
aI-1
aI-1
aa(lp2231
I-1
aI-1
aI-1
aI-1
aI-1
aI-1
aa(lp2232
I-1
aI-1
aI-1
aI-1
aI-1
aI-1
aa(lp2233
I-1
aI-1
aI-1
aI-1
aI-1
aI-1
aa(lp2234
I-1
aI-1
aI-1
aI-1
aI-1
aI-1
aa(lp2235
I-1
aI-1
aI-1
aI-1
aI-1
aI-1
aa(lp2236
I-1
aI-1
aI-1
aI-1
aI-1
aI-1
aa(lp2237
I-1
aI-1
aI-1
aI-1
aI-1
aI-1
aa(lp2238
I-1
aI-1
aI-1
aI-1
aI-1
aI-1
aa(lp2239
I-1
aI-1
aI-1
aI-1
aI-1
aI-1
aa(lp2240
I-1
aI-1
aI-1
aI-1
aI-1
aI-1
aa(lp2241
I-1
aI-1
aI-1
aI-1
aI-1
aI-1
aa(lp2242
I-1
aI-1
aI-1
aI-1
aI-1
aI-1
aa(lp2243
I-1
aI-1
aI-1
aI-1
aI-1
aI-1
aa(lp2244
I-1
aI-1
aI-1
aI-1
aI-1
aI-1
aa(lp2245
I-1
aI-1
aI-1
aI-1
aI-1
aI-1
aa(lp2246
I-1
aI-1
aI-1
aI-1
aI-1
aI-1
aa(lp2247
I-1
aI-1
aI-1
aI-1
aI-1
aI-1
aa(lp2248
I-1
aI-1
aI-1
aI-1
aI-1
aI-1
aa(lp2249
I-1
aI-1
aI-1
aI-1
aI-1
aI-1
aa(lp2250
I-1
aI-1
aI-1
aI-1
aI-1
aI-1
aa(lp2251
I-1
aI-1
aI-1
aI-1
aI-1
aI-1
aa(lp2252
I-1
aI-1
aI-1
aI-1
aI-1
aI-1
aa(lp2253
I-1
aI-1
aI-1
aI-1
aI-1
aI-1
aa(lp2254
I-1
aI-1
aI-1
aI-1
aI-1
aI-1
aa(lp2255
I-1
aI-1
aI-1
aI-1
aI-1
aI-1
aa(lp2256
I-1
aI-1
aI-1
aI-1
aI-1
aI-1
aa(lp2257
I-1
aI-1
aI-1
aI-1
aI-1
aI-1
aa(lp2258
I-1
aI-1
aI-1
aI-1
aI-1
aI-1
aa(lp2259
I-1
aI-1
aI-1
aI-1
aI-1
aI-1
aa(lp2260
I-1
aI-1
aI-1
aI-1
aI-1
aI-1
aa(lp2261
I-1
aI-1
aI-1
aI-1
aI-1
aI-1
aa(lp2262
I-1
aI-1
aI-1
aI-1
aI-1
aI-1
aa(lp2263
I-1
aI-1
aI-1
aI-1
aI-1
aI-1
aa(lp2264
I-1
aI-1
aI-1
aI-1
aI-1
aI-1
aa(lp2265
I-1
aI-1
aI-1
aI-1
aI-1
aI-1
aa(lp2266
I-1
aI-1
aI-1
aI-1
aI-1
aI-1
aa(lp2267
I-1
aI-1
aI-1
aI-1
aI-1
aI-1
aa(lp2268
I-1
aI-1
aI-1
aI-1
aI-1
aI-1
aa(lp2269
I-1
aI-1
aI-1
aI-1
aI-1
aI-1
aa(lp2270
I-1
aI-1
aI-1
aI-1
aI-1
aI-1
aa(lp2271
I-1
aI-1
aI-1
aI-1
aI-1
aI-1
aa(lp2272
I-1
aI-1
aI-1
aI-1
aI-1
aI-1
aa(lp2273
I-1
aI-1
aI-1
aI-1
aI-1
aI-1
aa(lp2274
I-1
aI-1
aI-1
aI-1
aI-1
aI-1
aa(lp2275
I-1
aI-1
aI-1
aI-1
aI-1
aI-1
aa(lp2276
I-1
aI-1
aI-1
aI-1
aI-1
aI-1
aa(lp2277
I-1
aI-1
aI-1
aI-1
aI-1
aI-1
aa(lp2278
I-1
aI-1
aI-1
aI-1
aI-1
aI-1
aa(lp2279
I-1
aI-1
aI-1
aI-1
aI-1
aI-1
aa(lp2280
I-1
aI-1
aI-1
aI-1
aI-1
aI-1
aa(lp2281
I-1
aI-1
aI-1
aI-1
aI-1
aI-1
aa(lp2282
I-1
aI-1
aI-1
aI-1
aI-1
aI-1
aa(lp2283
I-1
aI-1
aI-1
aI-1
aI-1
aI-1
aa(lp2284
I-1
aI-1
aI-1
aI-1
aI-1
aI-1
aa(lp2285
I-1
aI-1
aI-1
aI-1
aI-1
aI-1
aa(lp2286
I-1
aI-1
aI-1
aI-1
aI-1
aI-1
aa(lp2287
I-1
aI-1
aI-1
aI-1
aI-1
aI-1
aa(lp2288
I-1
aI-1
aI-1
aI-1
aI-1
aI-1
aa(lp2289
I-1
aI-1
aI-1
aI-1
aI-1
aI-1
aa(lp2290
I-1
aI-1
aI-1
aI-1
aI-1
aI-1
aa(lp2291
I-1
aI-1
aI-1
aI-1
aI-1
aI-1
aa(lp2292
I-1
aI-1
aI-1
aI-1
aI-1
aI-1
aa(lp2293
I-1
aI-1
aI-1
aI-1
aI-1
aI-1
aa(lp2294
I-1
aI-1
aI-1
aI-1
aI-1
aI-1
aa(lp2295
I-1
aI-1
aI-1
aI-1
aI-1
aI-1
aa(lp2296
I-1
aI-1
aI-1
aI-1
aI-1
aI-1
aa(lp2297
I-1
aI-1
aI-1
aI-1
aI-1
aI-1
aa(lp2298
I-1
aI-1
aI-1
aI-1
aI-1
aI-1
aa(lp2299
I-1
aI-1
aI-1
aI-1
aI-1
aI-1
aa(lp2300
I-1
aI-1
aI-1
aI-1
aI-1
aI-1
aa(lp2301
I-1
aI-1
aI-1
aI-1
aI-1
aI-1
aa(lp2302
I-1
aI-1
aI-1
aI-1
aI-1
aI-1
aa(lp2303
I-1
aI-1
aI-1
aI-1
aI-1
aI-1
aa(lp2304
I-1
aI-1
aI-1
aI-1
aI-1
aI-1
aa(lp2305
I-1
aI-1
aI-1
aI-1
aI-1
aI-1
aa(lp2306
I-1
aI-1
aI-1
aI-1
aI-1
aI-1
aa(lp2307
I-1
aI-1
aI-1
aI-1
aI-1
aI-1
aa(lp2308
I-1
aI-1
aI-1
aI-1
aI-1
aI-1
aa(lp2309
I-1
aI-1
aI-1
aI-1
aI-1
aI-1
aa(lp2310
I-1
aI-1
aI-1
aI-1
aI-1
aI-1
aa(lp2311
I-1
aI-1
aI-1
aI-1
aI-1
aI-1
aa(lp2312
I-1
aI-1
aI-1
aI-1
aI-1
aI-1
aa(lp2313
I-1
aI-1
aI-1
aI-1
aI-1
aI-1
aa(lp2314
I-1
aI-1
aI-1
aI-1
aI-1
aI-1
aa(lp2315
I-1
aI-1
aI-1
aI-1
aI-1
aI-1
aa(lp2316
I-1
aI-1
aI-1
aI-1
aI-1
aI-1
aa(lp2317
I-1
aI-1
aI-1
aI-1
aI-1
aI-1
aa(lp2318
I-1
aI-1
aI-1
aI-1
aI-1
aI-1
aa(lp2319
I-1
aI-1
aI-1
aI-1
aI-1
aI-1
aa(lp2320
I-1
aI-1
aI-1
aI-1
aI-1
aI-1
aa(lp2321
I-1
aI-1
aI-1
aI-1
aI-1
aI-1
aa(lp2322
I-1
aI-1
aI-1
aI-1
aI-1
aI-1
aa(lp2323
I-1
aI-1
aI-1
aI-1
aI-1
aI-1
aa(lp2324
I-1
aI-1
aI-1
aI-1
aI-1
aI-1
aa(lp2325
I-1
aI-1
aI-1
aI-1
aI-1
aI-1
aa(lp2326
I-1
aI-1
aI-1
aI-1
aI-1
aI-1
aa(lp2327
I-1
aI-1
aI-1
aI-1
aI-1
aI-1
aa(lp2328
I-1
aI-1
aI-1
aI-1
aI-1
aI-1
aa(lp2329
I-1
aI-1
aI-1
aI-1
aI-1
aI-1
aa(lp2330
I-1
aI-1
aI-1
aI-1
aI-1
aI-1
aa(lp2331
I-1
aI-1
aI-1
aI-1
aI-1
aI-1
aa(lp2332
I-1
aI-1
aI-1
aI-1
aI-1
aI-1
aa(lp2333
I-1
aI-1
aI-1
aI-1
aI-1
aI-1
aa(lp2334
I-1
aI-1
aI-1
aI-1
aI-1
aI-1
aa(lp2335
I-1
aI-1
aI-1
aI-1
aI-1
aI-1
aa(lp2336
I-1
aI-1
aI-1
aI-1
aI-1
aI-1
aa(lp2337
I-1
aI-1
aI-1
aI-1
aI-1
aI-1
aa(lp2338
I-1
aI-1
aI-1
aI-1
aI-1
aI-1
aa(lp2339
I-1
aI-1
aI-1
aI-1
aI-1
aI-1
aa(lp2340
I-1
aI-1
aI-1
aI-1
aI-1
aI-1
aa(lp2341
I-1
aI-1
aI-1
aI-1
aI-1
aI-1
aa(lp2342
I-1
aI-1
aI-1
aI-1
aI-1
aI-1
aa(lp2343
I-1
aI-1
aI-1
aI-1
aI-1
aI-1
aa(lp2344
I-1
aI-1
aI-1
aI-1
aI-1
aI-1
aa(lp2345
I-1
aI-1
aI-1
aI-1
aI-1
aI-1
aa(lp2346
I-1
aI-1
aI-1
aI-1
aI-1
aI-1
aa(lp2347
I-1
aI-1
aI-1
aI-1
aI-1
aI-1
aa(lp2348
I-1
aI-1
aI-1
aI-1
aI-1
aI-1
aa(lp2349
I-1
aI-1
aI-1
aI-1
aI-1
aI-1
aa(lp2350
I-1
aI-1
aI-1
aI-1
aI-1
aI-1
aa(lp2351
I-1
aI-1
aI-1
aI-1
aI-1
aI-1
aa(lp2352
I-1
aI-1
aI-1
aI-1
aI-1
aI-1
aa(lp2353
I-1
aI-1
aI-1
aI-1
aI-1
aI-1
aa(lp2354
I-1
aI-1
aI-1
aI-1
aI-1
aI-1
aa(lp2355
I-1
aI-1
aI-1
aI-1
aI-1
aI-1
aa(lp2356
I-1
aI-1
aI-1
aI-1
aI-1
aI-1
aa(lp2357
I-1
aI-1
aI-1
aI-1
aI-1
aI-1
aa(lp2358
I-1
aI-1
aI-1
aI-1
aI-1
aI-1
aa(lp2359
I-1
aI-1
aI-1
aI-1
aI-1
aI-1
aa(lp2360
I-1
aI-1
aI-1
aI-1
aI-1
aI-1
aa(lp2361
I-1
aI-1
aI-1
aI-1
aI-1
aI-1
aa(lp2362
I-1
aI-1
aI-1
aI-1
aI-1
aI-1
aa(lp2363
I-1
aI-1
aI-1
aI-1
aI-1
aI-1
aa(lp2364
I-1
aI-1
aI-1
aI-1
aI-1
aI-1
aa(lp2365
I-1
aI-1
aI-1
aI-1
aI-1
aI-1
aa(lp2366
I-1
aI-1
aI-1
aI-1
aI-1
aI-1
aa(lp2367
I-1
aI-1
aI-1
aI-1
aI-1
aI-1
aa(lp2368
I-1
aI-1
aI-1
aI-1
aI-1
aI-1
aa(lp2369
I-1
aI-1
aI-1
aI-1
aI-1
aI-1
aa(lp2370
I-1
aI-1
aI-1
aI-1
aI-1
aI-1
aa(lp2371
I-1
aI-1
aI-1
aI-1
aI-1
aI-1
aa(lp2372
I-1
aI-1
aI-1
aI-1
aI-1
aI-1
aa(lp2373
I-1
aI-1
aI-1
aI-1
aI-1
aI-1
aa(lp2374
I-1
aI-1
aI-1
aI-1
aI-1
aI-1
aa(lp2375
I-1
aI-1
aI-1
aI-1
aI-1
aI-1
aa(lp2376
I-1
aI-1
aI-1
aI-1
aI-1
aI-1
aa(lp2377
I-1
aI-1
aI-1
aI-1
aI-1
aI-1
aa(lp2378
I-1
aI-1
aI-1
aI-1
aI-1
aI-1
aa(lp2379
I-1
aI-1
aI-1
aI-1
aI-1
aI-1
aa(lp2380
I-1
aI-1
aI-1
aI-1
aI-1
aI-1
aa(lp2381
I-1
aI-1
aI-1
aI-1
aI-1
aI-1
aa(lp2382
I-1
aI-1
aI-1
aI-1
aI-1
aI-1
aa(lp2383
I-1
aI-1
aI-1
aI-1
aI-1
aI-1
aa(lp2384
I-1
aI-1
aI-1
aI-1
aI-1
aI-1
aa(lp2385
I-1
aI-1
aI-1
aI-1
aI-1
aI-1
aa(lp2386
I-1
aI-1
aI-1
aI-1
aI-1
aI-1
aa(lp2387
I-1
aI-1
aI-1
aI-1
aI-1
aI-1
aa(lp2388
I-1
aI-1
aI-1
aI-1
aI-1
aI-1
aa(lp2389
I-1
aI-1
aI-1
aI-1
aI-1
aI-1
aa(lp2390
I-1
aI-1
aI-1
aI-1
aI-1
aI-1
aa(lp2391
I-1
aI-1
aI-1
aI-1
aI-1
aI-1
aa(lp2392
I-1
aI-1
aI-1
aI-1
aI-1
aI-1
aa(lp2393
I-1
aI-1
aI-1
aI-1
aI-1
aI-1
aa(lp2394
I-1
aI-1
aI-1
aI-1
aI-1
aI-1
aa(lp2395
I-1
aI-1
aI-1
aI-1
aI-1
aI-1
aa(lp2396
I-1
aI-1
aI-1
aI-1
aI-1
aI-1
aa(lp2397
I-1
aI-1
aI-1
aI-1
aI-1
aI-1
aa(lp2398
I-1
aI-1
aI-1
aI-1
aI-1
aI-1
aa(lp2399
I-1
aI-1
aI-1
aI-1
aI-1
aI-1
aa(lp2400
I-1
aI-1
aI-1
aI-1
aI-1
aI-1
aa(lp2401
I-1
aI-1
aI-1
aI-1
aI-1
aI-1
aa(lp2402
I-1
aI-1
aI-1
aI-1
aI-1
aI-1
aa(lp2403
I-1
aI-1
aI-1
aI-1
aI-1
aI-1
aa(lp2404
I-1
aI-1
aI-1
aI-1
aI-1
aI-1
aa(lp2405
I-1
aI-1
aI-1
aI-1
aI-1
aI-1
aa(lp2406
I-1
aI-1
aI-1
aI-1
aI-1
aI-1
aa(lp2407
I-1
aI-1
aI-1
aI-1
aI-1
aI-1
aa(lp2408
I-1
aI-1
aI-1
aI-1
aI-1
aI-1
aa(lp2409
I-1
aI-1
aI-1
aI-1
aI-1
aI-1
aa(lp2410
I-1
aI-1
aI-1
aI-1
aI-1
aI-1
aa(lp2411
I-1
aI-1
aI-1
aI-1
aI-1
aI-1
aa(lp2412
I-1
aI-1
aI-1
aI-1
aI-1
aI-1
aa(lp2413
I-1
aI-1
aI-1
aI-1
aI-1
aI-1
aa(lp2414
I-1
aI-1
aI-1
aI-1
aI-1
aI-1
aa(lp2415
I-1
aI-1
aI-1
aI-1
aI-1
aI-1
aa(lp2416
I-1
aI-1
aI-1
aI-1
aI-1
aI-1
aa(lp2417
I-1
aI-1
aI-1
aI-1
aI-1
aI-1
aa(lp2418
I-1
aI-1
aI-1
aI-1
aI-1
aI-1
aa(lp2419
I-1
aI-1
aI-1
aI-1
aI-1
aI-1
aa(lp2420
I-1
aI-1
aI-1
aI-1
aI-1
aI-1
aa(lp2421
I-1
aI-1
aI-1
aI-1
aI-1
aI-1
aa(lp2422
I-1
aI-1
aI-1
aI-1
aI-1
aI-1
aa(lp2423
I-1
aI-1
aI-1
aI-1
aI-1
aI-1
aa(lp2424
I-1
aI-1
aI-1
aI-1
aI-1
aI-1
aa(lp2425
I-1
aI-1
aI-1
aI-1
aI-1
aI-1
aa(lp2426
I-1
aI-1
aI-1
aI-1
aI-1
aI-1
aa(lp2427
I-1
aI-1
aI-1
aI-1
aI-1
aI-1
aa(lp2428
I-1
aI-1
aI-1
aI-1
aI-1
aI-1
aa(lp2429
I-1
aI-1
aI-1
aI-1
aI-1
aI-1
aa(lp2430
I-1
aI-1
aI-1
aI-1
aI-1
aI-1
aa(lp2431
I-1
aI-1
aI-1
aI-1
aI-1
aI-1
aa(lp2432
I-1
aI-1
aI-1
aI-1
aI-1
aI-1
aa(lp2433
I-1
aI-1
aI-1
aI-1
aI-1
aI-1
aa(lp2434
I-1
aI-1
aI-1
aI-1
aI-1
aI-1
aa(lp2435
I-1
aI-1
aI-1
aI-1
aI-1
aI-1
aa(lp2436
I-1
aI-1
aI-1
aI-1
aI-1
aI-1
aa(lp2437
I-1
aI-1
aI-1
aI-1
aI-1
aI-1
aa(lp2438
I-1
aI-1
aI-1
aI-1
aI-1
aI-1
aa(lp2439
I-1
aI-1
aI-1
aI-1
aI-1
aI-1
aa(lp2440
I-1
aI-1
aI-1
aI-1
aI-1
aI-1
aa(lp2441
I-1
aI-1
aI-1
aI-1
aI-1
aI-1
aa(lp2442
I-1
aI-1
aI-1
aI-1
aI-1
aI-1
aa(lp2443
I-1
aI-1
aI-1
aI-1
aI-1
aI-1
aa(lp2444
I-1
aI-1
aI-1
aI-1
aI-1
aI-1
aa(lp2445
I-1
aI-1
aI-1
aI-1
aI-1
aI-1
aa(lp2446
I-1
aI-1
aI-1
aI-1
aI-1
aI-1
aa(lp2447
I-1
aI-1
aI-1
aI-1
aI-1
aI-1
aa(lp2448
I-1
aI-1
aI-1
aI-1
aI-1
aI-1
aa(lp2449
I-1
aI-1
aI-1
aI-1
aI-1
aI-1
aa(lp2450
I-1
aI-1
aI-1
aI-1
aI-1
aI-1
aa(lp2451
I-1
aI-1
aI-1
aI-1
aI-1
aI-1
aa(lp2452
I-1
aI-1
aI-1
aI-1
aI-1
aI-1
aa(lp2453
I-1
aI-1
aI-1
aI-1
aI-1
aI-1
aa(lp2454
I-1
aI-1
aI-1
aI-1
aI-1
aI-1
aa(lp2455
I-1
aI-1
aI-1
aI-1
aI-1
aI-1
aa(lp2456
I-1
aI-1
aI-1
aI-1
aI-1
aI-1
aa(lp2457
I-1
aI-1
aI-1
aI-1
aI-1
aI-1
aa(lp2458
I-1
aI-1
aI-1
aI-1
aI-1
aI-1
aa(lp2459
I-1
aI-1
aI-1
aI-1
aI-1
aI-1
aa(lp2460
I-1
aI-1
aI-1
aI-1
aI-1
aI-1
aa(lp2461
I-1
aI-1
aI-1
aI-1
aI-1
aI-1
aa(lp2462
I-1
aI-1
aI-1
aI-1
aI-1
aI-1
aa(lp2463
I-1
aI-1
aI-1
aI-1
aI-1
aI-1
aa(lp2464
I-1
aI-1
aI-1
aI-1
aI-1
aI-1
aa(lp2465
I-1
aI-1
aI-1
aI-1
aI-1
aI-1
aa(lp2466
I-1
aI-1
aI-1
aI-1
aI-1
aI-1
aa(lp2467
I-1
aI-1
aI-1
aI-1
aI-1
aI-1
aa(lp2468
I-1
aI-1
aI-1
aI-1
aI-1
aI-1
aa(lp2469
I-1
aI-1
aI-1
aI-1
aI-1
aI-1
aa(lp2470
I-1
aI-1
aI-1
aI-1
aI-1
aI-1
aa(lp2471
I-1
aI-1
aI-1
aI-1
aI-1
aI-1
aa(lp2472
I-1
aI-1
aI-1
aI-1
aI-1
aI-1
aa(lp2473
I-1
aI-1
aI-1
aI-1
aI-1
aI-1
aa(lp2474
I-1
aI-1
aI-1
aI-1
aI-1
aI-1
aa(lp2475
I-1
aI-1
aI-1
aI-1
aI-1
aI-1
aa(lp2476
I-1
aI-1
aI-1
aI-1
aI-1
aI-1
aa(lp2477
I-1
aI-1
aI-1
aI-1
aI-1
aI-1
aa(lp2478
I-1
aI-1
aI-1
aI-1
aI-1
aI-1
aa(lp2479
I-1
aI-1
aI-1
aI-1
aI-1
aI-1
aa(lp2480
I-1
aI-1
aI-1
aI-1
aI-1
aI-1
aa(lp2481
I-1
aI-1
aI-1
aI-1
aI-1
aI-1
aa(lp2482
I-1
aI-1
aI-1
aI-1
aI-1
aI-1
aa(lp2483
I-1
aI-1
aI-1
aI-1
aI-1
aI-1
aa(lp2484
I-1
aI-1
aI-1
aI-1
aI-1
aI-1
aa(lp2485
I-1
aI-1
aI-1
aI-1
aI-1
aI-1
aa(lp2486
I-1
aI-1
aI-1
aI-1
aI-1
aI-1
aa(lp2487
I-1
aI-1
aI-1
aI-1
aI-1
aI-1
aa(lp2488
I-1
aI-1
aI-1
aI-1
aI-1
aI-1
aa(lp2489
I-1
aI-1
aI-1
aI-1
aI-1
aI-1
aa(lp2490
I-1
aI-1
aI-1
aI-1
aI-1
aI-1
aa(lp2491
I-1
aI-1
aI-1
aI-1
aI-1
aI-1
aa(lp2492
I-1
aI-1
aI-1
aI-1
aI-1
aI-1
aa(lp2493
I-1
aI-1
aI-1
aI-1
aI-1
aI-1
aa(lp2494
I-1
aI-1
aI-1
aI-1
aI-1
aI-1
aa(lp2495
I-1
aI-1
aI-1
aI-1
aI-1
aI-1
aa(lp2496
I-1
aI-1
aI-1
aI-1
aI-1
aI-1
aa(lp2497
I-1
aI-1
aI-1
aI-1
aI-1
aI-1
aa(lp2498
I-1
aI-1
aI-1
aI-1
aI-1
aI-1
aa(lp2499
I-1
aI-1
aI-1
aI-1
aI-1
aI-1
aa(lp2500
I-1
aI-1
aI-1
aI-1
aI-1
aI-1
aa(lp2501
I-1
aI-1
aI-1
aI-1
aI-1
aI-1
aa(lp2502
I-1
aI-1
aI-1
aI-1
aI-1
aI-1
aa(lp2503
I-1
aI-1
aI-1
aI-1
aI-1
aI-1
aa(lp2504
I-1
aI-1
aI-1
aI-1
aI-1
aI-1
aa(lp2505
I-1
aI-1
aI-1
aI-1
aI-1
aI-1
aa(lp2506
I-1
aI-1
aI-1
aI-1
aI-1
aI-1
aa(lp2507
I-1
aI-1
aI-1
aI-1
aI-1
aI-1
aa(lp2508
I-1
aI-1
aI-1
aI-1
aI-1
aI-1
aa(lp2509
I-1
aI-1
aI-1
aI-1
aI-1
aI-1
aa(lp2510
I-1
aI-1
aI-1
aI-1
aI-1
aI-1
aa(lp2511
I-1
aI-1
aI-1
aI-1
aI-1
aI-1
aa(lp2512
I-1
aI-1
aI-1
aI-1
aI-1
aI-1
aa(lp2513
I-1
aI-1
aI-1
aI-1
aI-1
aI-1
aa(lp2514
I-1
aI-1
aI-1
aI-1
aI-1
aI-1
aa(lp2515
I-1
aI-1
aI-1
aI-1
aI-1
aI-1
aa(lp2516
I-1
aI-1
aI-1
aI-1
aI-1
aI-1
aa(lp2517
I-1
aI-1
aI-1
aI-1
aI-1
aI-1
aa(lp2518
I-1
aI-1
aI-1
aI-1
aI-1
aI-1
aa(lp2519
I-1
aI-1
aI-1
aI-1
aI-1
aI-1
aa(lp2520
I-1
aI-1
aI-1
aI-1
aI-1
aI-1
aa(lp2521
I-1
aI-1
aI-1
aI-1
aI-1
aI-1
aa(lp2522
I-1
aI-1
aI-1
aI-1
aI-1
aI-1
aa(lp2523
I-1
aI-1
aI-1
aI-1
aI-1
aI-1
aa(lp2524
I-1
aI-1
aI-1
aI-1
aI-1
aI-1
aa(lp2525
I-1
aI-1
aI-1
aI-1
aI-1
aI-1
aa(lp2526
I-1
aI-1
aI-1
aI-1
aI-1
aI-1
aa(lp2527
I-1
aI-1
aI-1
aI-1
aI-1
aI-1
aa(lp2528
I-1
aI-1
aI-1
aI-1
aI-1
aI-1
aa(lp2529
I-1
aI-1
aI-1
aI-1
aI-1
aI-1
aa(lp2530
I-1
aI-1
aI-1
aI-1
aI-1
aI-1
aa(lp2531
I-1
aI-1
aI-1
aI-1
aI-1
aI-1
aa(lp2532
I-1
aI-1
aI-1
aI-1
aI-1
aI-1
aa(lp2533
I-1
aI-1
aI-1
aI-1
aI-1
aI-1
aa(lp2534
I-1
aI-1
aI-1
aI-1
aI-1
aI-1
aa(lp2535
I-1
aI-1
aI-1
aI-1
aI-1
aI-1
aa(lp2536
I-1
aI-1
aI-1
aI-1
aI-1
aI-1
aa(lp2537
I-1
aI-1
aI-1
aI-1
aI-1
aI-1
aa(lp2538
I-1
aI-1
aI-1
aI-1
aI-1
aI-1
aa(lp2539
I-1
aI-1
aI-1
aI-1
aI-1
aI-1
aa(lp2540
I-1
aI-1
aI-1
aI-1
aI-1
aI-1
aa(lp2541
I-1
aI-1
aI-1
aI-1
aI-1
aI-1
aa(lp2542
I-1
aI-1
aI-1
aI-1
aI-1
aI-1
aa(lp2543
I-1
aI-1
aI-1
aI-1
aI-1
aI-1
aa(lp2544
I-1
aI-1
aI-1
aI-1
aI-1
aI-1
aa(lp2545
I-1
aI-1
aI-1
aI-1
aI-1
aI-1
aa(lp2546
I-1
aI-1
aI-1
aI-1
aI-1
aI-1
aa(lp2547
I-1
aI-1
aI-1
aI-1
aI-1
aI-1
aa(lp2548
I-1
aI-1
aI-1
aI-1
aI-1
aI-1
aa(lp2549
I-1
aI-1
aI-1
aI-1
aI-1
aI-1
aa(lp2550
I-1
aI-1
aI-1
aI-1
aI-1
aI-1
aa(lp2551
I-1
aI-1
aI-1
aI-1
aI-1
aI-1
aa(lp2552
I-1
aI-1
aI-1
aI-1
aI-1
aI-1
aa(lp2553
I-1
aI-1
aI-1
aI-1
aI-1
aI-1
aa(lp2554
I-1
aI-1
aI-1
aI-1
aI-1
aI-1
aa(lp2555
I-1
aI-1
aI-1
aI-1
aI-1
aI-1
aa(lp2556
I-1
aI-1
aI-1
aI-1
aI-1
aI-1
aa(lp2557
I-1
aI-1
aI-1
aI-1
aI-1
aI-1
aa(lp2558
I-1
aI-1
aI-1
aI-1
aI-1
aI-1
aa(lp2559
I-1
aI-1
aI-1
aI-1
aI-1
aI-1
aa(lp2560
I-1
aI-1
aI-1
aI-1
aI-1
aI-1
aa(lp2561
I-1
aI-1
aI-1
aI-1
aI-1
aI-1
aa(lp2562
I-1
aI-1
aI-1
aI-1
aI-1
aI-1
aa(lp2563
I-1
aI-1
aI-1
aI-1
aI-1
aI-1
aa(lp2564
I-1
aI-1
aI-1
aI-1
aI-1
aI-1
aa(lp2565
I-1
aI-1
aI-1
aI-1
aI-1
aI-1
aa(lp2566
I-1
aI-1
aI-1
aI-1
aI-1
aI-1
aa(lp2567
I-1
aI-1
aI-1
aI-1
aI-1
aI-1
aa(lp2568
I-1
aI-1
aI-1
aI-1
aI-1
aI-1
aa(lp2569
I-1
aI-1
aI-1
aI-1
aI-1
aI-1
aa(lp2570
I-1
aI-1
aI-1
aI-1
aI-1
aI-1
aa(lp2571
I-1
aI-1
aI-1
aI-1
aI-1
aI-1
aa(lp2572
I-1
aI-1
aI-1
aI-1
aI-1
aI-1
aa(lp2573
I-1
aI-1
aI-1
aI-1
aI-1
aI-1
aa(lp2574
I-1
aI-1
aI-1
aI-1
aI-1
aI-1
aa(lp2575
I-1
aI-1
aI-1
aI-1
aI-1
aI-1
aa(lp2576
I-1
aI-1
aI-1
aI-1
aI-1
aI-1
aa(lp2577
I-1
aI-1
aI-1
aI-1
aI-1
aI-1
aa(lp2578
I-1
aI-1
aI-1
aI-1
aI-1
aI-1
aa(lp2579
I-1
aI-1
aI-1
aI-1
aI-1
aI-1
aa(lp2580
I-1
aI-1
aI-1
aI-1
aI-1
aI-1
aa(lp2581
I-1
aI-1
aI-1
aI-1
aI-1
aI-1
aa(lp2582
I-1
aI-1
aI-1
aI-1
aI-1
aI-1
aa(lp2583
I-1
aI-1
aI-1
aI-1
aI-1
aI-1
aa(lp2584
I-1
aI-1
aI-1
aI-1
aI-1
aI-1
aa(lp2585
I-1
aI-1
aI-1
aI-1
aI-1
aI-1
aa(lp2586
I-1
aI-1
aI-1
aI-1
aI-1
aI-1
aa(lp2587
I-1
aI-1
aI-1
aI-1
aI-1
aI-1
aa(lp2588
I-1
aI-1
aI-1
aI-1
aI-1
aI-1
aa(lp2589
I-1
aI-1
aI-1
aI-1
aI-1
aI-1
aa(lp2590
I-1
aI-1
aI-1
aI-1
aI-1
aI-1
aa(lp2591
I-1
aI-1
aI-1
aI-1
aI-1
aI-1
aa(lp2592
I-1
aI-1
aI-1
aI-1
aI-1
aI-1
aa(lp2593
I-1
aI-1
aI-1
aI-1
aI-1
aI-1
aa(lp2594
I-1
aI-1
aI-1
aI-1
aI-1
aI-1
aa(lp2595
I-1
aI-1
aI-1
aI-1
aI-1
aI-1
aa(lp2596
I-1
aI-1
aI-1
aI-1
aI-1
aI-1
aa(lp2597
I-1
aI-1
aI-1
aI-1
aI-1
aI-1
aa(lp2598
I-1
aI-1
aI-1
aI-1
aI-1
aI-1
aa(lp2599
I-1
aI-1
aI-1
aI-1
aI-1
aI-1
aa(lp2600
I-1
aI-1
aI-1
aI-1
aI-1
aI-1
aa(lp2601
I-1
aI-1
aI-1
aI-1
aI-1
aI-1
aa(lp2602
I-1
aI-1
aI-1
aI-1
aI-1
aI-1
aa(lp2603
I-1
aI-1
aI-1
aI-1
aI-1
aI-1
aa(lp2604
I-1
aI-1
aI-1
aI-1
aI-1
aI-1
aa(lp2605
I-1
aI-1
aI-1
aI-1
aI-1
aI-1
aa(lp2606
I-1
aI-1
aI-1
aI-1
aI-1
aI-1
aa(lp2607
I-1
aI-1
aI-1
aI-1
aI-1
aI-1
aa(lp2608
I-1
aI-1
aI-1
aI-1
aI-1
aI-1
aa(lp2609
I-1
aI-1
aI-1
aI-1
aI-1
aI-1
aa(lp2610
I-1
aI-1
aI-1
aI-1
aI-1
aI-1
aa(lp2611
I-1
aI-1
aI-1
aI-1
aI-1
aI-1
aa(lp2612
I-1
aI-1
aI-1
aI-1
aI-1
aI-1
aa(lp2613
I-1
aI-1
aI-1
aI-1
aI-1
aI-1
aa(lp2614
I-1
aI-1
aI-1
aI-1
aI-1
aI-1
aa(lp2615
I-1
aI-1
aI-1
aI-1
aI-1
aI-1
aa(lp2616
I-1
aI-1
aI-1
aI-1
aI-1
aI-1
aa(lp2617
I-1
aI-1
aI-1
aI-1
aI-1
aI-1
aa(lp2618
I-1
aI-1
aI-1
aI-1
aI-1
aI-1
aa(lp2619
I-1
aI-1
aI-1
aI-1
aI-1
aI-1
aa(lp2620
I-1
aI-1
aI-1
aI-1
aI-1
aI-1
aa(lp2621
I-1
aI-1
aI-1
aI-1
aI-1
aI-1
aa(lp2622
I-1
aI-1
aI-1
aI-1
aI-1
aI-1
aa(lp2623
I-1
aI-1
aI-1
aI-1
aI-1
aI-1
aa(lp2624
I-1
aI-1
aI-1
aI-1
aI-1
aI-1
aa(lp2625
I-1
aI-1
aI-1
aI-1
aI-1
aI-1
aa(lp2626
I-1
aI-1
aI-1
aI-1
aI-1
aI-1
aa(lp2627
I-1
aI-1
aI-1
aI-1
aI-1
aI-1
aa(lp2628
I-1
aI-1
aI-1
aI-1
aI-1
aI-1
aa(lp2629
I-1
aI-1
aI-1
aI-1
aI-1
aI-1
aa(lp2630
I-1
aI-1
aI-1
aI-1
aI-1
aI-1
aa(lp2631
I-1
aI-1
aI-1
aI-1
aI-1
aI-1
aa(lp2632
I-1
aI-1
aI-1
aI-1
aI-1
aI-1
aa(lp2633
I-1
aI-1
aI-1
aI-1
aI-1
aI-1
aa(lp2634
I-1
aI-1
aI-1
aI-1
aI-1
aI-1
aa(lp2635
I-1
aI-1
aI-1
aI-1
aI-1
aI-1
aa(lp2636
I-1
aI-1
aI-1
aI-1
aI-1
aI-1
aa(lp2637
I-1
aI-1
aI-1
aI-1
aI-1
aI-1
aa(lp2638
I-1
aI-1
aI-1
aI-1
aI-1
aI-1
aa(lp2639
I-1
aI-1
aI-1
aI-1
aI-1
aI-1
aa(lp2640
I-1
aI-1
aI-1
aI-1
aI-1
aI-1
aa(lp2641
I-1
aI-1
aI-1
aI-1
aI-1
aI-1
aa(lp2642
I-1
aI-1
aI-1
aI-1
aI-1
aI-1
aa(lp2643
I-1
aI-1
aI-1
aI-1
aI-1
aI-1
aa(lp2644
I-1
aI-1
aI-1
aI-1
aI-1
aI-1
aa(lp2645
I-1
aI-1
aI-1
aI-1
aI-1
aI-1
aa(lp2646
I-1
aI-1
aI-1
aI-1
aI-1
aI-1
aa(lp2647
I-1
aI-1
aI-1
aI-1
aI-1
aI-1
aa(lp2648
I-1
aI-1
aI-1
aI-1
aI-1
aI-1
aa(lp2649
I-1
aI-1
aI-1
aI-1
aI-1
aI-1
aa(lp2650
I-1
aI-1
aI-1
aI-1
aI-1
aI-1
aa(lp2651
I-1
aI-1
aI-1
aI-1
aI-1
aI-1
aa(lp2652
I-1
aI-1
aI-1
aI-1
aI-1
aI-1
aa(lp2653
I-1
aI-1
aI-1
aI-1
aI-1
aI-1
aa(lp2654
I-1
aI-1
aI-1
aI-1
aI-1
aI-1
aa(lp2655
I-1
aI-1
aI-1
aI-1
aI-1
aI-1
aa(lp2656
I-1
aI-1
aI-1
aI-1
aI-1
aI-1
aa(lp2657
I-1
aI-1
aI-1
aI-1
aI-1
aI-1
aa(lp2658
I-1
aI-1
aI-1
aI-1
aI-1
aI-1
aa(lp2659
I-1
aI-1
aI-1
aI-1
aI-1
aI-1
aa(lp2660
I-1
aI-1
aI-1
aI-1
aI-1
aI-1
aa(lp2661
I-1
aI-1
aI-1
aI-1
aI-1
aI-1
aa(lp2662
I-1
aI-1
aI-1
aI-1
aI-1
aI-1
aa(lp2663
I-1
aI-1
aI-1
aI-1
aI-1
aI-1
aa(lp2664
I-1
aI-1
aI-1
aI-1
aI-1
aI-1
aa(lp2665
I-1
aI-1
aI-1
aI-1
aI-1
aI-1
aa(lp2666
I-1
aI-1
aI-1
aI-1
aI-1
aI-1
aa(lp2667
I-1
aI-1
aI-1
aI-1
aI-1
aI-1
aa(lp2668
I-1
aI-1
aI-1
aI-1
aI-1
aI-1
aa(lp2669
I-1
aI-1
aI-1
aI-1
aI-1
aI-1
aa(lp2670
I-1
aI-1
aI-1
aI-1
aI-1
aI-1
aa(lp2671
I-1
aI-1
aI-1
aI-1
aI-1
aI-1
aa(lp2672
I-1
aI-1
aI-1
aI-1
aI-1
aI-1
aa(lp2673
I-1
aI-1
aI-1
aI-1
aI-1
aI-1
aa(lp2674
I-1
aI-1
aI-1
aI-1
aI-1
aI-1
aa(lp2675
I-1
aI-1
aI-1
aI-1
aI-1
aI-1
aa(lp2676
I-1
aI-1
aI-1
aI-1
aI-1
aI-1
aa(lp2677
I-1
aI-1
aI-1
aI-1
aI-1
aI-1
aa(lp2678
I-1
aI-1
aI-1
aI-1
aI-1
aI-1
aa(lp2679
I-1
aI-1
aI-1
aI-1
aI-1
aI-1
aa(lp2680
I-1
aI-1
aI-1
aI-1
aI-1
aI-1
aa(lp2681
I-1
aI-1
aI-1
aI-1
aI-1
aI-1
aa(lp2682
I-1
aI-1
aI-1
aI-1
aI-1
aI-1
aa(lp2683
I-1
aI-1
aI-1
aI-1
aI-1
aI-1
aa(lp2684
I-1
aI-1
aI-1
aI-1
aI-1
aI-1
aa(lp2685
I-1
aI-1
aI-1
aI-1
aI-1
aI-1
aa(lp2686
I-1
aI-1
aI-1
aI-1
aI-1
aI-1
aa(lp2687
I-1
aI-1
aI-1
aI-1
aI-1
aI-1
aa(lp2688
I-1
aI-1
aI-1
aI-1
aI-1
aI-1
aa(lp2689
I-1
aI-1
aI-1
aI-1
aI-1
aI-1
aa(lp2690
I-1
aI-1
aI-1
aI-1
aI-1
aI-1
aa(lp2691
I-1
aI-1
aI-1
aI-1
aI-1
aI-1
aa(lp2692
I-1
aI-1
aI-1
aI-1
aI-1
aI-1
aa(lp2693
I-1
aI-1
aI-1
aI-1
aI-1
aI-1
aa(lp2694
I-1
aI-1
aI-1
aI-1
aI-1
aI-1
aa(lp2695
I-1
aI-1
aI-1
aI-1
aI-1
aI-1
aa(lp2696
I-1
aI-1
aI-1
aI-1
aI-1
aI-1
aa(lp2697
I-1
aI-1
aI-1
aI-1
aI-1
aI-1
aa(lp2698
I-1
aI-1
aI-1
aI-1
aI-1
aI-1
aa(lp2699
I-1
aI-1
aI-1
aI-1
aI-1
aI-1
aa(lp2700
I-1
aI-1
aI-1
aI-1
aI-1
aI-1
aa(lp2701
I-1
aI-1
aI-1
aI-1
aI-1
aI-1
aa(lp2702
I-1
aI-1
aI-1
aI-1
aI-1
aI-1
aa(lp2703
I-1
aI-1
aI-1
aI-1
aI-1
aI-1
aa(lp2704
I-1
aI-1
aI-1
aI-1
aI-1
aI-1
aa(lp2705
I-1
aI-1
aI-1
aI-1
aI-1
aI-1
aa(lp2706
I-1
aI-1
aI-1
aI-1
aI-1
aI-1
aa(lp2707
I-1
aI-1
aI-1
aI-1
aI-1
aI-1
aa(lp2708
I-1
aI-1
aI-1
aI-1
aI-1
aI-1
aa(lp2709
I-1
aI-1
aI-1
aI-1
aI-1
aI-1
aa(lp2710
I-1
aI-1
aI-1
aI-1
aI-1
aI-1
aa(lp2711
I-1
aI-1
aI-1
aI-1
aI-1
aI-1
aa(lp2712
I-1
aI-1
aI-1
aI-1
aI-1
aI-1
aa(lp2713
I-1
aI-1
aI-1
aI-1
aI-1
aI-1
aa(lp2714
I-1
aI-1
aI-1
aI-1
aI-1
aI-1
aa(lp2715
I-1
aI-1
aI-1
aI-1
aI-1
aI-1
aa(lp2716
I-1
aI-1
aI-1
aI-1
aI-1
aI-1
aa(lp2717
I-1
aI-1
aI-1
aI-1
aI-1
aI-1
aa(lp2718
I-1
aI-1
aI-1
aI-1
aI-1
aI-1
aa(lp2719
I-1
aI-1
aI-1
aI-1
aI-1
aI-1
aa(lp2720
I-1
aI-1
aI-1
aI-1
aI-1
aI-1
aa(lp2721
I-1
aI-1
aI-1
aI-1
aI-1
aI-1
aa(lp2722
I-1
aI-1
aI-1
aI-1
aI-1
aI-1
aa(lp2723
I-1
aI-1
aI-1
aI-1
aI-1
aI-1
aa(lp2724
I-1
aI-1
aI-1
aI-1
aI-1
aI-1
aa(lp2725
I-1
aI-1
aI-1
aI-1
aI-1
aI-1
aa(lp2726
I-1
aI-1
aI-1
aI-1
aI-1
aI-1
aa(lp2727
I-1
aI-1
aI-1
aI-1
aI-1
aI-1
aa(lp2728
I-1
aI-1
aI-1
aI-1
aI-1
aI-1
aa(lp2729
I-1
aI-1
aI-1
aI-1
aI-1
aI-1
aa(lp2730
I-1
aI-1
aI-1
aI-1
aI-1
aI-1
aa(lp2731
I-1
aI-1
aI-1
aI-1
aI-1
aI-1
aa(lp2732
I-1
aI-1
aI-1
aI-1
aI-1
aI-1
aa(lp2733
I-1
aI-1
aI-1
aI-1
aI-1
aI-1
aa(lp2734
I-1
aI-1
aI-1
aI-1
aI-1
aI-1
aa(lp2735
I-1
aI-1
aI-1
aI-1
aI-1
aI-1
aa(lp2736
I-1
aI-1
aI-1
aI-1
aI-1
aI-1
aa(lp2737
I-1
aI-1
aI-1
aI-1
aI-1
aI-1
aa(lp2738
I-1
aI-1
aI-1
aI-1
aI-1
aI-1
aa(lp2739
I-1
aI-1
aI-1
aI-1
aI-1
aI-1
aa(lp2740
I-1
aI-1
aI-1
aI-1
aI-1
aI-1
aa(lp2741
I-1
aI-1
aI-1
aI-1
aI-1
aI-1
aa(lp2742
I-1
aI-1
aI-1
aI-1
aI-1
aI-1
aa(lp2743
I-1
aI-1
aI-1
aI-1
aI-1
aI-1
aa(lp2744
I-1
aI-1
aI-1
aI-1
aI-1
aI-1
aa(lp2745
I-1
aI-1
aI-1
aI-1
aI-1
aI-1
aa(lp2746
I-1
aI-1
aI-1
aI-1
aI-1
aI-1
aa(lp2747
I-1
aI-1
aI-1
aI-1
aI-1
aI-1
aa(lp2748
I-1
aI-1
aI-1
aI-1
aI-1
aI-1
aa(lp2749
I-1
aI-1
aI-1
aI-1
aI-1
aI-1
aa(lp2750
I-1
aI-1
aI-1
aI-1
aI-1
aI-1
aa(lp2751
I-1
aI-1
aI-1
aI-1
aI-1
aI-1
aa(lp2752
I-1
aI-1
aI-1
aI-1
aI-1
aI-1
aa(lp2753
I-1
aI-1
aI-1
aI-1
aI-1
aI-1
aa(lp2754
I-1
aI-1
aI-1
aI-1
aI-1
aI-1
aa(lp2755
I-1
aI-1
aI-1
aI-1
aI-1
aI-1
aa(lp2756
I-1
aI-1
aI-1
aI-1
aI-1
aI-1
aa(lp2757
I-1
aI-1
aI-1
aI-1
aI-1
aI-1
aa(lp2758
I-1
aI-1
aI-1
aI-1
aI-1
aI-1
aa(lp2759
I-1
aI-1
aI-1
aI-1
aI-1
aI-1
aa(lp2760
I-1
aI-1
aI-1
aI-1
aI-1
aI-1
aa(lp2761
I-1
aI-1
aI-1
aI-1
aI-1
aI-1
aa(lp2762
I-1
aI-1
aI-1
aI-1
aI-1
aI-1
aa(lp2763
I-1
aI-1
aI-1
aI-1
aI-1
aI-1
aa(lp2764
I-1
aI-1
aI-1
aI-1
aI-1
aI-1
aa(lp2765
I-1
aI-1
aI-1
aI-1
aI-1
aI-1
aa(lp2766
I-1
aI-1
aI-1
aI-1
aI-1
aI-1
aa(lp2767
I-1
aI-1
aI-1
aI-1
aI-1
aI-1
aa(lp2768
I-1
aI-1
aI-1
aI-1
aI-1
aI-1
aa(lp2769
I-1
aI-1
aI-1
aI-1
aI-1
aI-1
aa(lp2770
I-1
aI-1
aI-1
aI-1
aI-1
aI-1
aa(lp2771
I-1
aI-1
aI-1
aI-1
aI-1
aI-1
aa(lp2772
I-1
aI-1
aI-1
aI-1
aI-1
aI-1
aa(lp2773
I-1
aI-1
aI-1
aI-1
aI-1
aI-1
aa(lp2774
I-1
aI-1
aI-1
aI-1
aI-1
aI-1
aa(lp2775
I-1
aI-1
aI-1
aI-1
aI-1
aI-1
aa(lp2776
I-1
aI-1
aI-1
aI-1
aI-1
aI-1
aa(lp2777
I-1
aI-1
aI-1
aI-1
aI-1
aI-1
aa(lp2778
I-1
aI-1
aI-1
aI-1
aI-1
aI-1
aa(lp2779
I-1
aI-1
aI-1
aI-1
aI-1
aI-1
aa(lp2780
I-1
aI-1
aI-1
aI-1
aI-1
aI-1
aa(lp2781
I-1
aI-1
aI-1
aI-1
aI-1
aI-1
aa(lp2782
I-1
aI-1
aI-1
aI-1
aI-1
aI-1
aa(lp2783
I-1
aI-1
aI-1
aI-1
aI-1
aI-1
aa(lp2784
I-1
aI-1
aI-1
aI-1
aI-1
aI-1
aa(lp2785
I-1
aI-1
aI-1
aI-1
aI-1
aI-1
aa(lp2786
I-1
aI-1
aI-1
aI-1
aI-1
aI-1
aa(lp2787
I-1
aI-1
aI-1
aI-1
aI-1
aI-1
aa(lp2788
I-1
aI-1
aI-1
aI-1
aI-1
aI-1
aa(lp2789
I-1
aI-1
aI-1
aI-1
aI-1
aI-1
aa(lp2790
I-1
aI-1
aI-1
aI-1
aI-1
aI-1
aa(lp2791
I-1
aI-1
aI-1
aI-1
aI-1
aI-1
aa(lp2792
I-1
aI-1
aI-1
aI-1
aI-1
aI-1
aa(lp2793
I-1
aI-1
aI-1
aI-1
aI-1
aI-1
aa(lp2794
I-1
aI-1
aI-1
aI-1
aI-1
aI-1
aa(lp2795
I-1
aI-1
aI-1
aI-1
aI-1
aI-1
aa(lp2796
I-1
aI-1
aI-1
aI-1
aI-1
aI-1
aa(lp2797
I-1
aI-1
aI-1
aI-1
aI-1
aI-1
aa(lp2798
I-1
aI-1
aI-1
aI-1
aI-1
aI-1
aa(lp2799
I-1
aI-1
aI-1
aI-1
aI-1
aI-1
aa(lp2800
I-1
aI-1
aI-1
aI-1
aI-1
aI-1
aa(lp2801
I-1
aI-1
aI-1
aI-1
aI-1
aI-1
aa(lp2802
I-1
aI-1
aI-1
aI-1
aI-1
aI-1
aa(lp2803
I-1
aI-1
aI-1
aI-1
aI-1
aI-1
aa(lp2804
I-1
aI-1
aI-1
aI-1
aI-1
aI-1
aa(lp2805
I-1
aI-1
aI-1
aI-1
aI-1
aI-1
aa(lp2806
I-1
aI-1
aI-1
aI-1
aI-1
aI-1
aa(lp2807
I-1
aI-1
aI-1
aI-1
aI-1
aI-1
aa(lp2808
I-1
aI-1
aI-1
aI-1
aI-1
aI-1
aa(lp2809
I-1
aI-1
aI-1
aI-1
aI-1
aI-1
aa(lp2810
I-1
aI-1
aI-1
aI-1
aI-1
aI-1
aa(lp2811
I-1
aI-1
aI-1
aI-1
aI-1
aI-1
aa(lp2812
I-1
aI-1
aI-1
aI-1
aI-1
aI-1
aa(lp2813
I-1
aI-1
aI-1
aI-1
aI-1
aI-1
aa(lp2814
I-1
aI-1
aI-1
aI-1
aI-1
aI-1
aa(lp2815
I-1
aI-1
aI-1
aI-1
aI-1
aI-1
aa(lp2816
I-1
aI-1
aI-1
aI-1
aI-1
aI-1
aa(lp2817
I-1
aI-1
aI-1
aI-1
aI-1
aI-1
aa(lp2818
I-1
aI-1
aI-1
aI-1
aI-1
aI-1
aa(lp2819
I-1
aI-1
aI-1
aI-1
aI-1
aI-1
aa(lp2820
I-1
aI-1
aI-1
aI-1
aI-1
aI-1
aa(lp2821
I-1
aI-1
aI-1
aI-1
aI-1
aI-1
aa(lp2822
I-1
aI-1
aI-1
aI-1
aI-1
aI-1
aa(lp2823
I-1
aI-1
aI-1
aI-1
aI-1
aI-1
aa(lp2824
I-1
aI-1
aI-1
aI-1
aI-1
aI-1
aa(lp2825
I-1
aI-1
aI-1
aI-1
aI-1
aI-1
aa(lp2826
I-1
aI-1
aI-1
aI-1
aI-1
aI-1
aa(lp2827
I-1
aI-1
aI-1
aI-1
aI-1
aI-1
aa(lp2828
I-1
aI-1
aI-1
aI-1
aI-1
aI-1
aa(lp2829
I-1
aI-1
aI-1
aI-1
aI-1
aI-1
aa(lp2830
I-1
aI-1
aI-1
aI-1
aI-1
aI-1
aa(lp2831
I-1
aI-1
aI-1
aI-1
aI-1
aI-1
aa(lp2832
I-1
aI-1
aI-1
aI-1
aI-1
aI-1
aa(lp2833
I-1
aI-1
aI-1
aI-1
aI-1
aI-1
aa(lp2834
I-1
aI-1
aI-1
aI-1
aI-1
aI-1
aa(lp2835
I-1
aI-1
aI-1
aI-1
aI-1
aI-1
aa(lp2836
I-1
aI-1
aI-1
aI-1
aI-1
aI-1
aa(lp2837
I-1
aI-1
aI-1
aI-1
aI-1
aI-1
aa(lp2838
I-1
aI-1
aI-1
aI-1
aI-1
aI-1
aa(lp2839
I-1
aI-1
aI-1
aI-1
aI-1
aI-1
aa(lp2840
I-1
aI-1
aI-1
aI-1
aI-1
aI-1
aa(lp2841
I-1
aI-1
aI-1
aI-1
aI-1
aI-1
aa(lp2842
I-1
aI-1
aI-1
aI-1
aI-1
aI-1
aa(lp2843
I-1
aI-1
aI-1
aI-1
aI-1
aI-1
aa(lp2844
I-1
aI-1
aI-1
aI-1
aI-1
aI-1
aa(lp2845
I-1
aI-1
aI-1
aI-1
aI-1
aI-1
aa(lp2846
I-1
aI-1
aI-1
aI-1
aI-1
aI-1
aa(lp2847
I-1
aI-1
aI-1
aI-1
aI-1
aI-1
aa(lp2848
I-1
aI-1
aI-1
aI-1
aI-1
aI-1
aa(lp2849
I-1
aI-1
aI-1
aI-1
aI-1
aI-1
aa(lp2850
I-1
aI-1
aI-1
aI-1
aI-1
aI-1
aa(lp2851
I-1
aI-1
aI-1
aI-1
aI-1
aI-1
aa(lp2852
I-1
aI-1
aI-1
aI-1
aI-1
aI-1
aa(lp2853
I-1
aI-1
aI-1
aI-1
aI-1
aI-1
aa(lp2854
I-1
aI-1
aI-1
aI-1
aI-1
aI-1
aa(lp2855
I-1
aI-1
aI-1
aI-1
aI-1
aI-1
aa(lp2856
I-1
aI-1
aI-1
aI-1
aI-1
aI-1
aa(lp2857
I-1
aI-1
aI-1
aI-1
aI-1
aI-1
aa(lp2858
I-1
aI-1
aI-1
aI-1
aI-1
aI-1
aa(lp2859
I-1
aI-1
aI-1
aI-1
aI-1
aI-1
aa(lp2860
I-1
aI-1
aI-1
aI-1
aI-1
aI-1
aa(lp2861
I-1
aI-1
aI-1
aI-1
aI-1
aI-1
aa(lp2862
I-1
aI-1
aI-1
aI-1
aI-1
aI-1
aa(lp2863
I-1
aI-1
aI-1
aI-1
aI-1
aI-1
aa(lp2864
I-1
aI-1
aI-1
aI-1
aI-1
aI-1
aa(lp2865
I-1
aI-1
aI-1
aI-1
aI-1
aI-1
aa(lp2866
I-1
aI-1
aI-1
aI-1
aI-1
aI-1
aa(lp2867
I-1
aI-1
aI-1
aI-1
aI-1
aI-1
aa(lp2868
I-1
aI-1
aI-1
aI-1
aI-1
aI-1
aa(lp2869
I-1
aI-1
aI-1
aI-1
aI-1
aI-1
aa(lp2870
I-1
aI-1
aI-1
aI-1
aI-1
aI-1
aa(lp2871
I-1
aI-1
aI-1
aI-1
aI-1
aI-1
aa(lp2872
I-1
aI-1
aI-1
aI-1
aI-1
aI-1
aa(lp2873
I-1
aI-1
aI-1
aI-1
aI-1
aI-1
aa(lp2874
I-1
aI-1
aI-1
aI-1
aI-1
aI-1
aa(lp2875
I-1
aI-1
aI-1
aI-1
aI-1
aI-1
aa(lp2876
I-1
aI-1
aI-1
aI-1
aI-1
aI-1
aa(lp2877
I-1
aI-1
aI-1
aI-1
aI-1
aI-1
aa(lp2878
I-1
aI-1
aI-1
aI-1
aI-1
aI-1
aa(lp2879
I-1
aI-1
aI-1
aI-1
aI-1
aI-1
aa(lp2880
I-1
aI-1
aI-1
aI-1
aI-1
aI-1
aa(lp2881
I-1
aI-1
aI-1
aI-1
aI-1
aI-1
aa(lp2882
I-1
aI-1
aI-1
aI-1
aI-1
aI-1
aa(lp2883
I-1
aI-1
aI-1
aI-1
aI-1
aI-1
aa(lp2884
I-1
aI-1
aI-1
aI-1
aI-1
aI-1
aa(lp2885
I-1
aI-1
aI-1
aI-1
aI-1
aI-1
aa(lp2886
I-1
aI-1
aI-1
aI-1
aI-1
aI-1
aa(lp2887
I-1
aI-1
aI-1
aI-1
aI-1
aI-1
aa(lp2888
I-1
aI-1
aI-1
aI-1
aI-1
aI-1
aa(lp2889
I-1
aI-1
aI-1
aI-1
aI-1
aI-1
aa(lp2890
I-1
aI-1
aI-1
aI-1
aI-1
aI-1
aa(lp2891
I-1
aI-1
aI-1
aI-1
aI-1
aI-1
aa(lp2892
I-1
aI-1
aI-1
aI-1
aI-1
aI-1
aa(lp2893
I-1
aI-1
aI-1
aI-1
aI-1
aI-1
aa(lp2894
I-1
aI-1
aI-1
aI-1
aI-1
aI-1
aa(lp2895
I-1
aI-1
aI-1
aI-1
aI-1
aI-1
aa(lp2896
I-1
aI-1
aI-1
aI-1
aI-1
aI-1
aa(lp2897
I-1
aI-1
aI-1
aI-1
aI-1
aI-1
aa(lp2898
I-1
aI-1
aI-1
aI-1
aI-1
aI-1
aa(lp2899
I-1
aI-1
aI-1
aI-1
aI-1
aI-1
aa(lp2900
I-1
aI-1
aI-1
aI-1
aI-1
aI-1
aa(lp2901
I-1
aI-1
aI-1
aI-1
aI-1
aI-1
aa(lp2902
I-1
aI-1
aI-1
aI-1
aI-1
aI-1
aa(lp2903
I-1
aI-1
aI-1
aI-1
aI-1
aI-1
aa(lp2904
I-1
aI-1
aI-1
aI-1
aI-1
aI-1
aa(lp2905
I-1
aI-1
aI-1
aI-1
aI-1
aI-1
aa(lp2906
I-1
aI-1
aI-1
aI-1
aI-1
aI-1
aa(lp2907
I-1
aI-1
aI-1
aI-1
aI-1
aI-1
aa(lp2908
I-1
aI-1
aI-1
aI-1
aI-1
aI-1
aa(lp2909
I-1
aI-1
aI-1
aI-1
aI-1
aI-1
aa(lp2910
I-1
aI-1
aI-1
aI-1
aI-1
aI-1
aa(lp2911
I-1
aI-1
aI-1
aI-1
aI-1
aI-1
aa(lp2912
I-1
aI-1
aI-1
aI-1
aI-1
aI-1
aa(lp2913
I-1
aI-1
aI-1
aI-1
aI-1
aI-1
aa(lp2914
I-1
aI-1
aI-1
aI-1
aI-1
aI-1
aa(lp2915
I-1
aI-1
aI-1
aI-1
aI-1
aI-1
aa(lp2916
I-1
aI-1
aI-1
aI-1
aI-1
aI-1
aa(lp2917
I-1
aI-1
aI-1
aI-1
aI-1
aI-1
aa(lp2918
I-1
aI-1
aI-1
aI-1
aI-1
aI-1
aa(lp2919
I-1
aI-1
aI-1
aI-1
aI-1
aI-1
aa(lp2920
I-1
aI-1
aI-1
aI-1
aI-1
aI-1
aa(lp2921
I-1
aI-1
aI-1
aI-1
aI-1
aI-1
aa(lp2922
I-1
aI-1
aI-1
aI-1
aI-1
aI-1
aa(lp2923
I-1
aI-1
aI-1
aI-1
aI-1
aI-1
aa(lp2924
I-1
aI-1
aI-1
aI-1
aI-1
aI-1
aa(lp2925
I-1
aI-1
aI-1
aI-1
aI-1
aI-1
aa(lp2926
I-1
aI-1
aI-1
aI-1
aI-1
aI-1
aa(lp2927
I-1
aI-1
aI-1
aI-1
aI-1
aI-1
aa(lp2928
I-1
aI-1
aI-1
aI-1
aI-1
aI-1
aa(lp2929
I-1
aI-1
aI-1
aI-1
aI-1
aI-1
aa(lp2930
I-1
aI-1
aI-1
aI-1
aI-1
aI-1
aa(lp2931
I-1
aI-1
aI-1
aI-1
aI-1
aI-1
aa(lp2932
I-1
aI-1
aI-1
aI-1
aI-1
aI-1
aa(lp2933
I-1
aI-1
aI-1
aI-1
aI-1
aI-1
aa(lp2934
I-1
aI-1
aI-1
aI-1
aI-1
aI-1
aa(lp2935
I-1
aI-1
aI-1
aI-1
aI-1
aI-1
aa(lp2936
I-1
aI-1
aI-1
aI-1
aI-1
aI-1
aa(lp2937
I-1
aI-1
aI-1
aI-1
aI-1
aI-1
aa(lp2938
I-1
aI-1
aI-1
aI-1
aI-1
aI-1
aa(lp2939
I-1
aI-1
aI-1
aI-1
aI-1
aI-1
aa(lp2940
I-1
aI-1
aI-1
aI-1
aI-1
aI-1
aa(lp2941
I-1
aI-1
aI-1
aI-1
aI-1
aI-1
aa(lp2942
I-1
aI-1
aI-1
aI-1
aI-1
aI-1
aa(lp2943
I-1
aI-1
aI-1
aI-1
aI-1
aI-1
aa(lp2944
I-1
aI-1
aI-1
aI-1
aI-1
aI-1
aa(lp2945
I-1
aI-1
aI-1
aI-1
aI-1
aI-1
aa(lp2946
I-1
aI-1
aI-1
aI-1
aI-1
aI-1
aa(lp2947
I-1
aI-1
aI-1
aI-1
aI-1
aI-1
aa(lp2948
I-1
aI-1
aI-1
aI-1
aI-1
aI-1
aa(lp2949
I-1
aI-1
aI-1
aI-1
aI-1
aI-1
aa(lp2950
I-1
aI-1
aI-1
aI-1
aI-1
aI-1
aa(lp2951
I-1
aI-1
aI-1
aI-1
aI-1
aI-1
aa(lp2952
I-1
aI-1
aI-1
aI-1
aI-1
aI-1
aa(lp2953
I-1
aI-1
aI-1
aI-1
aI-1
aI-1
aa(lp2954
I-1
aI-1
aI-1
aI-1
aI-1
aI-1
aa(lp2955
I-1
aI-1
aI-1
aI-1
aI-1
aI-1
aa(lp2956
I-1
aI-1
aI-1
aI-1
aI-1
aI-1
aa(lp2957
I-1
aI-1
aI-1
aI-1
aI-1
aI-1
aa(lp2958
I-1
aI-1
aI-1
aI-1
aI-1
aI-1
aa(lp2959
I-1
aI-1
aI-1
aI-1
aI-1
aI-1
aa(lp2960
I-1
aI-1
aI-1
aI-1
aI-1
aI-1
aa(lp2961
I-1
aI-1
aI-1
aI-1
aI-1
aI-1
aa(lp2962
I-1
aI-1
aI-1
aI-1
aI-1
aI-1
aa(lp2963
I-1
aI-1
aI-1
aI-1
aI-1
aI-1
aa(lp2964
I-1
aI-1
aI-1
aI-1
aI-1
aI-1
aa(lp2965
I-1
aI-1
aI-1
aI-1
aI-1
aI-1
aa(lp2966
I-1
aI-1
aI-1
aI-1
aI-1
aI-1
aa(lp2967
I-1
aI-1
aI-1
aI-1
aI-1
aI-1
aa(lp2968
I-1
aI-1
aI-1
aI-1
aI-1
aI-1
aa(lp2969
I-1
aI-1
aI-1
aI-1
aI-1
aI-1
aa(lp2970
I-1
aI-1
aI-1
aI-1
aI-1
aI-1
aa(lp2971
I-1
aI-1
aI-1
aI-1
aI-1
aI-1
aa(lp2972
I-1
aI-1
aI-1
aI-1
aI-1
aI-1
aa(lp2973
I-1
aI-1
aI-1
aI-1
aI-1
aI-1
aa(lp2974
I-1
aI-1
aI-1
aI-1
aI-1
aI-1
aa(lp2975
I-1
aI-1
aI-1
aI-1
aI-1
aI-1
aa(lp2976
I-1
aI-1
aI-1
aI-1
aI-1
aI-1
aa(lp2977
I-1
aI-1
aI-1
aI-1
aI-1
aI-1
aa(lp2978
I-1
aI-1
aI-1
aI-1
aI-1
aI-1
aa(lp2979
I-1
aI-1
aI-1
aI-1
aI-1
aI-1
aa(lp2980
I-1
aI-1
aI-1
aI-1
aI-1
aI-1
aa(lp2981
I-1
aI-1
aI-1
aI-1
aI-1
aI-1
aa(lp2982
I-1
aI-1
aI-1
aI-1
aI-1
aI-1
aa(lp2983
I-1
aI-1
aI-1
aI-1
aI-1
aI-1
aa(lp2984
I-1
aI-1
aI-1
aI-1
aI-1
aI-1
aa(lp2985
I-1
aI-1
aI-1
aI-1
aI-1
aI-1
aa(lp2986
I-1
aI-1
aI-1
aI-1
aI-1
aI-1
aa(lp2987
I-1
aI-1
aI-1
aI-1
aI-1
aI-1
aa(lp2988
I-1
aI-1
aI-1
aI-1
aI-1
aI-1
aa(lp2989
I-1
aI-1
aI-1
aI-1
aI-1
aI-1
aa(lp2990
I-1
aI-1
aI-1
aI-1
aI-1
aI-1
aa(lp2991
I-1
aI-1
aI-1
aI-1
aI-1
aI-1
aa(lp2992
I-1
aI-1
aI-1
aI-1
aI-1
aI-1
aa(lp2993
I-1
aI-1
aI-1
aI-1
aI-1
aI-1
aa(lp2994
I-1
aI-1
aI-1
aI-1
aI-1
aI-1
aa(lp2995
I-1
aI-1
aI-1
aI-1
aI-1
aI-1
aa(lp2996
I-1
aI-1
aI-1
aI-1
aI-1
aI-1
aa(lp2997
I-1
aI-1
aI-1
aI-1
aI-1
aI-1
aa(lp2998
I-1
aI-1
aI-1
aI-1
aI-1
aI-1
aa(lp2999
I-1
aI-1
aI-1
aI-1
aI-1
aI-1
aa(lp3000
I-1
aI-1
aI-1
aI-1
aI-1
aI-1
aa(lp3001
I-1
aI-1
aI-1
aI-1
aI-1
aI-1
aa(lp3002
I-1
aI-1
aI-1
aI-1
aI-1
aI-1
aa(lp3003
I-1
aI-1
aI-1
aI-1
aI-1
aI-1
aa(lp3004
I-1
aI-1
aI-1
aI-1
aI-1
aI-1
aa(lp3005
I-1
aI-1
aI-1
aI-1
aI-1
aI-1
aa(lp3006
I-1
aI-1
aI-1
aI-1
aI-1
aI-1
aa(lp3007
I-1
aI-1
aI-1
aI-1
aI-1
aI-1
aa(lp3008
I-1
aI-1
aI-1
aI-1
aI-1
aI-1
aa(lp3009
I-1
aI-1
aI-1
aI-1
aI-1
aI-1
aa(lp3010
I-1
aI-1
aI-1
aI-1
aI-1
aI-1
aa(lp3011
I-1
aI-1
aI-1
aI-1
aI-1
aI-1
aa(lp3012
I-1
aI-1
aI-1
aI-1
aI-1
aI-1
aa(lp3013
I-1
aI-1
aI-1
aI-1
aI-1
aI-1
aa(lp3014
I-1
aI-1
aI-1
aI-1
aI-1
aI-1
aa(lp3015
I-1
aI-1
aI-1
aI-1
aI-1
aI-1
aa(lp3016
I-1
aI-1
aI-1
aI-1
aI-1
aI-1
aa(lp3017
I-1
aI-1
aI-1
aI-1
aI-1
aI-1
aa(lp3018
I-1
aI-1
aI-1
aI-1
aI-1
aI-1
aa(lp3019
I-1
aI-1
aI-1
aI-1
aI-1
aI-1
aa(lp3020
I-1
aI-1
aI-1
aI-1
aI-1
aI-1
aa(lp3021
I-1
aI-1
aI-1
aI-1
aI-1
aI-1
aa(lp3022
I-1
aI-1
aI-1
aI-1
aI-1
aI-1
aa(lp3023
I-1
aI-1
aI-1
aI-1
aI-1
aI-1
aa(lp3024
I-1
aI-1
aI-1
aI-1
aI-1
aI-1
aa(lp3025
I-1
aI-1
aI-1
aI-1
aI-1
aI-1
aa(lp3026
I-1
aI-1
aI-1
aI-1
aI-1
aI-1
aa(lp3027
I-1
aI-1
aI-1
aI-1
aI-1
aI-1
aa(lp3028
I-1
aI-1
aI-1
aI-1
aI-1
aI-1
aa(lp3029
I-1
aI-1
aI-1
aI-1
aI-1
aI-1
aa(lp3030
I-1
aI-1
aI-1
aI-1
aI-1
aI-1
aa(lp3031
I-1
aI-1
aI-1
aI-1
aI-1
aI-1
aa(lp3032
I-1
aI-1
aI-1
aI-1
aI-1
aI-1
aa(lp3033
I-1
aI-1
aI-1
aI-1
aI-1
aI-1
aa(lp3034
I-1
aI-1
aI-1
aI-1
aI-1
aI-1
aa(lp3035
I-1
aI-1
aI-1
aI-1
aI-1
aI-1
aa(lp3036
I-1
aI-1
aI-1
aI-1
aI-1
aI-1
aa(lp3037
I-1
aI-1
aI-1
aI-1
aI-1
aI-1
aa(lp3038
I-1
aI-1
aI-1
aI-1
aI-1
aI-1
aa(lp3039
I-1
aI-1
aI-1
aI-1
aI-1
aI-1
aa(lp3040
I-1
aI-1
aI-1
aI-1
aI-1
aI-1
aa(lp3041
I-1
aI-1
aI-1
aI-1
aI-1
aI-1
aa(lp3042
I-1
aI-1
aI-1
aI-1
aI-1
aI-1
aa(lp3043
I-1
aI-1
aI-1
aI-1
aI-1
aI-1
aa(lp3044
I-1
aI-1
aI-1
aI-1
aI-1
aI-1
aa(lp3045
I-1
aI-1
aI-1
aI-1
aI-1
aI-1
aa(lp3046
I-1
aI-1
aI-1
aI-1
aI-1
aI-1
aa(lp3047
I-1
aI-1
aI-1
aI-1
aI-1
aI-1
aa(lp3048
I-1
aI-1
aI-1
aI-1
aI-1
aI-1
aa(lp3049
I-1
aI-1
aI-1
aI-1
aI-1
aI-1
aa(lp3050
I-1
aI-1
aI-1
aI-1
aI-1
aI-1
aa(lp3051
I-1
aI-1
aI-1
aI-1
aI-1
aI-1
aa(lp3052
I-1
aI-1
aI-1
aI-1
aI-1
aI-1
aa(lp3053
I-1
aI-1
aI-1
aI-1
aI-1
aI-1
aa(lp3054
I-1
aI-1
aI-1
aI-1
aI-1
aI-1
aa(lp3055
I-1
aI-1
aI-1
aI-1
aI-1
aI-1
aa(lp3056
I-1
aI-1
aI-1
aI-1
aI-1
aI-1
aa(lp3057
I-1
aI-1
aI-1
aI-1
aI-1
aI-1
aa(lp3058
I-1
aI-1
aI-1
aI-1
aI-1
aI-1
aa(lp3059
I-1
aI-1
aI-1
aI-1
aI-1
aI-1
aa(lp3060
I-1
aI-1
aI-1
aI-1
aI-1
aI-1
aa(lp3061
I-1
aI-1
aI-1
aI-1
aI-1
aI-1
aa(lp3062
I-1
aI-1
aI-1
aI-1
aI-1
aI-1
aa(lp3063
I-1
aI-1
aI-1
aI-1
aI-1
aI-1
aa(lp3064
I-1
aI-1
aI-1
aI-1
aI-1
aI-1
aa(lp3065
I-1
aI-1
aI-1
aI-1
aI-1
aI-1
aa(lp3066
I-1
aI-1
aI-1
aI-1
aI-1
aI-1
aa(lp3067
I-1
aI-1
aI-1
aI-1
aI-1
aI-1
aa(lp3068
I-1
aI-1
aI-1
aI-1
aI-1
aI-1
aa(lp3069
I-1
aI-1
aI-1
aI-1
aI-1
aI-1
aa(lp3070
I-1
aI-1
aI-1
aI-1
aI-1
aI-1
aa(lp3071
I-1
aI-1
aI-1
aI-1
aI-1
aI-1
aa(lp3072
I-1
aI-1
aI-1
aI-1
aI-1
aI-1
aa(lp3073
I-1
aI-1
aI-1
aI-1
aI-1
aI-1
aa(lp3074
I-1
aI-1
aI-1
aI-1
aI-1
aI-1
aa(lp3075
I-1
aI-1
aI-1
aI-1
aI-1
aI-1
aa(lp3076
I-1
aI-1
aI-1
aI-1
aI-1
aI-1
aa(lp3077
I-1
aI-1
aI-1
aI-1
aI-1
aI-1
aa(lp3078
I-1
aI-1
aI-1
aI-1
aI-1
aI-1
aa(lp3079
I-1
aI-1
aI-1
aI-1
aI-1
aI-1
aa(lp3080
I-1
aI-1
aI-1
aI-1
aI-1
aI-1
aa(lp3081
I-1
aI-1
aI-1
aI-1
aI-1
aI-1
aa(lp3082
I-1
aI-1
aI-1
aI-1
aI-1
aI-1
aa(lp3083
I-1
aI-1
aI-1
aI-1
aI-1
aI-1
aa(lp3084
I-1
aI-1
aI-1
aI-1
aI-1
aI-1
aa(lp3085
I-1
aI-1
aI-1
aI-1
aI-1
aI-1
aa(lp3086
I-1
aI-1
aI-1
aI-1
aI-1
aI-1
aa(lp3087
I-1
aI-1
aI-1
aI-1
aI-1
aI-1
aa(lp3088
I-1
aI-1
aI-1
aI-1
aI-1
aI-1
aa(lp3089
I-1
aI-1
aI-1
aI-1
aI-1
aI-1
aa(lp3090
I-1
aI-1
aI-1
aI-1
aI-1
aI-1
aa(lp3091
I-1
aI-1
aI-1
aI-1
aI-1
aI-1
aa(lp3092
I-1
aI-1
aI-1
aI-1
aI-1
aI-1
aa(lp3093
I-1
aI-1
aI-1
aI-1
aI-1
aI-1
aa(lp3094
I-1
aI-1
aI-1
aI-1
aI-1
aI-1
aa(lp3095
I-1
aI-1
aI-1
aI-1
aI-1
aI-1
aa(lp3096
I-1
aI-1
aI-1
aI-1
aI-1
aI-1
aa(lp3097
I-1
aI-1
aI-1
aI-1
aI-1
aI-1
aa(lp3098
I-1
aI-1
aI-1
aI-1
aI-1
aI-1
aa(lp3099
I-1
aI-1
aI-1
aI-1
aI-1
aI-1
aa(lp3100
I-1
aI-1
aI-1
aI-1
aI-1
aI-1
aa(lp3101
I-1
aI-1
aI-1
aI-1
aI-1
aI-1
aa(lp3102
I-1
aI-1
aI-1
aI-1
aI-1
aI-1
aa(lp3103
I-1
aI-1
aI-1
aI-1
aI-1
aI-1
aa(lp3104
I-1
aI-1
aI-1
aI-1
aI-1
aI-1
aa(lp3105
I-1
aI-1
aI-1
aI-1
aI-1
aI-1
aa(lp3106
I-1
aI-1
aI-1
aI-1
aI-1
aI-1
aa(lp3107
I-1
aI-1
aI-1
aI-1
aI-1
aI-1
aa(lp3108
I-1
aI-1
aI-1
aI-1
aI-1
aI-1
aa(lp3109
I-1
aI-1
aI-1
aI-1
aI-1
aI-1
aa(lp3110
I-1
aI-1
aI-1
aI-1
aI-1
aI-1
aa(lp3111
I-1
aI-1
aI-1
aI-1
aI-1
aI-1
aa(lp3112
I-1
aI-1
aI-1
aI-1
aI-1
aI-1
aa(lp3113
I-1
aI-1
aI-1
aI-1
aI-1
aI-1
aa(lp3114
I-1
aI-1
aI-1
aI-1
aI-1
aI-1
aa(lp3115
I-1
aI-1
aI-1
aI-1
aI-1
aI-1
aa(lp3116
I-1
aI-1
aI-1
aI-1
aI-1
aI-1
aa(lp3117
I-1
aI-1
aI-1
aI-1
aI-1
aI-1
aa(lp3118
I-1
aI-1
aI-1
aI-1
aI-1
aI-1
aa(lp3119
I-1
aI-1
aI-1
aI-1
aI-1
aI-1
aa(lp3120
I-1
aI-1
aI-1
aI-1
aI-1
aI-1
aa(lp3121
I-1
aI-1
aI-1
aI-1
aI-1
aI-1
aa(lp3122
I-1
aI-1
aI-1
aI-1
aI-1
aI-1
aa(lp3123
I-1
aI-1
aI-1
aI-1
aI-1
aI-1
aa(lp3124
I-1
aI-1
aI-1
aI-1
aI-1
aI-1
aa(lp3125
I-1
aI-1
aI-1
aI-1
aI-1
aI-1
aa(lp3126
I-1
aI-1
aI-1
aI-1
aI-1
aI-1
aa(lp3127
I-1
aI-1
aI-1
aI-1
aI-1
aI-1
aa(lp3128
I-1
aI-1
aI-1
aI-1
aI-1
aI-1
aa(lp3129
I-1
aI-1
aI-1
aI-1
aI-1
aI-1
aa(lp3130
I-1
aI-1
aI-1
aI-1
aI-1
aI-1
aa(lp3131
I-1
aI-1
aI-1
aI-1
aI-1
aI-1
aa(lp3132
I-1
aI-1
aI-1
aI-1
aI-1
aI-1
aa(lp3133
I-1
aI-1
aI-1
aI-1
aI-1
aI-1
aa(lp3134
I-1
aI-1
aI-1
aI-1
aI-1
aI-1
aa(lp3135
I-1
aI-1
aI-1
aI-1
aI-1
aI-1
aa(lp3136
I-1
aI-1
aI-1
aI-1
aI-1
aI-1
aa(lp3137
I-1
aI-1
aI-1
aI-1
aI-1
aI-1
aa(lp3138
I-1
aI-1
aI-1
aI-1
aI-1
aI-1
aa(lp3139
I-1
aI-1
aI-1
aI-1
aI-1
aI-1
aa(lp3140
I-1
aI-1
aI-1
aI-1
aI-1
aI-1
aa(lp3141
I-1
aI-1
aI-1
aI-1
aI-1
aI-1
aa(lp3142
I-1
aI-1
aI-1
aI-1
aI-1
aI-1
aa(lp3143
I-1
aI-1
aI-1
aI-1
aI-1
aI-1
aa(lp3144
I-1
aI-1
aI-1
aI-1
aI-1
aI-1
aa(lp3145
I-1
aI-1
aI-1
aI-1
aI-1
aI-1
aa(lp3146
I-1
aI-1
aI-1
aI-1
aI-1
aI-1
aa(lp3147
I-1
aI-1
aI-1
aI-1
aI-1
aI-1
aa(lp3148
I-1
aI-1
aI-1
aI-1
aI-1
aI-1
aa(lp3149
I-1
aI-1
aI-1
aI-1
aI-1
aI-1
aa(lp3150
I-1
aI-1
aI-1
aI-1
aI-1
aI-1
aa(lp3151
I-1
aI-1
aI-1
aI-1
aI-1
aI-1
aa(lp3152
I-1
aI-1
aI-1
aI-1
aI-1
aI-1
aa(lp3153
I-1
aI-1
aI-1
aI-1
aI-1
aI-1
aa(lp3154
I-1
aI-1
aI-1
aI-1
aI-1
aI-1
aa(lp3155
I-1
aI-1
aI-1
aI-1
aI-1
aI-1
aa(lp3156
I-1
aI-1
aI-1
aI-1
aI-1
aI-1
aa(lp3157
I-1
aI-1
aI-1
aI-1
aI-1
aI-1
aa(lp3158
I-1
aI-1
aI-1
aI-1
aI-1
aI-1
aa(lp3159
I-1
aI-1
aI-1
aI-1
aI-1
aI-1
aa(lp3160
I-1
aI-1
aI-1
aI-1
aI-1
aI-1
aa(lp3161
I-1
aI-1
aI-1
aI-1
aI-1
aI-1
aa(lp3162
I-1
aI-1
aI-1
aI-1
aI-1
aI-1
aa(lp3163
I-1
aI-1
aI-1
aI-1
aI-1
aI-1
aa(lp3164
I-1
aI-1
aI-1
aI-1
aI-1
aI-1
aa(lp3165
I-1
aI-1
aI-1
aI-1
aI-1
aI-1
aa(lp3166
I-1
aI-1
aI-1
aI-1
aI-1
aI-1
aa(lp3167
I-1
aI-1
aI-1
aI-1
aI-1
aI-1
aa(lp3168
I-1
aI-1
aI-1
aI-1
aI-1
aI-1
aa(lp3169
I-1
aI-1
aI-1
aI-1
aI-1
aI-1
aa(lp3170
I-1
aI-1
aI-1
aI-1
aI-1
aI-1
aa(lp3171
I-1
aI-1
aI-1
aI-1
aI-1
aI-1
aa(lp3172
I-1
aI-1
aI-1
aI-1
aI-1
aI-1
aa(lp3173
I-1
aI-1
aI-1
aI-1
aI-1
aI-1
aa(lp3174
I-1
aI-1
aI-1
aI-1
aI-1
aI-1
aa(lp3175
I-1
aI-1
aI-1
aI-1
aI-1
aI-1
aa(lp3176
I-1
aI-1
aI-1
aI-1
aI-1
aI-1
aa(lp3177
I-1
aI-1
aI-1
aI-1
aI-1
aI-1
aa(lp3178
I-1
aI-1
aI-1
aI-1
aI-1
aI-1
aa(lp3179
I-1
aI-1
aI-1
aI-1
aI-1
aI-1
aa(lp3180
I-1
aI-1
aI-1
aI-1
aI-1
aI-1
aa(lp3181
I-1
aI-1
aI-1
aI-1
aI-1
aI-1
aa(lp3182
I-1
aI-1
aI-1
aI-1
aI-1
aI-1
aa(lp3183
I-1
aI-1
aI-1
aI-1
aI-1
aI-1
aa(lp3184
I-1
aI-1
aI-1
aI-1
aI-1
aI-1
aa(lp3185
I-1
aI-1
aI-1
aI-1
aI-1
aI-1
aa(lp3186
I-1
aI-1
aI-1
aI-1
aI-1
aI-1
aa(lp3187
I-1
aI-1
aI-1
aI-1
aI-1
aI-1
aa(lp3188
I-1
aI-1
aI-1
aI-1
aI-1
aI-1
aa(lp3189
I-1
aI-1
aI-1
aI-1
aI-1
aI-1
aa(lp3190
I-1
aI-1
aI-1
aI-1
aI-1
aI-1
aa(lp3191
I-1
aI-1
aI-1
aI-1
aI-1
aI-1
aa(lp3192
I-1
aI-1
aI-1
aI-1
aI-1
aI-1
aa(lp3193
I-1
aI-1
aI-1
aI-1
aI-1
aI-1
aa(lp3194
I-1
aI-1
aI-1
aI-1
aI-1
aI-1
aa(lp3195
I-1
aI-1
aI-1
aI-1
aI-1
aI-1
aa(lp3196
I-1
aI-1
aI-1
aI-1
aI-1
aI-1
aa(lp3197
I-1
aI-1
aI-1
aI-1
aI-1
aI-1
aa(lp3198
I-1
aI-1
aI-1
aI-1
aI-1
aI-1
aa(lp3199
I-1
aI-1
aI-1
aI-1
aI-1
aI-1
aa(lp3200
I-1
aI-1
aI-1
aI-1
aI-1
aI-1
aa(lp3201
I-1
aI-1
aI-1
aI-1
aI-1
aI-1
aa(lp3202
I-1
aI-1
aI-1
aI-1
aI-1
aI-1
aa(lp3203
I-1
aI-1
aI-1
aI-1
aI-1
aI-1
aa(lp3204
I-1
aI-1
aI-1
aI-1
aI-1
aI-1
aa(lp3205
I-1
aI-1
aI-1
aI-1
aI-1
aI-1
aa(lp3206
I-1
aI-1
aI-1
aI-1
aI-1
aI-1
aa(lp3207
I-1
aI-1
aI-1
aI-1
aI-1
aI-1
aa(lp3208
I-1
aI-1
aI-1
aI-1
aI-1
aI-1
aa(lp3209
I-1
aI-1
aI-1
aI-1
aI-1
aI-1
aa(lp3210
I-1
aI-1
aI-1
aI-1
aI-1
aI-1
aa(lp3211
I-1
aI-1
aI-1
aI-1
aI-1
aI-1
aa(lp3212
I-1
aI-1
aI-1
aI-1
aI-1
aI-1
aa(lp3213
I-1
aI-1
aI-1
aI-1
aI-1
aI-1
aa(lp3214
I-1
aI-1
aI-1
aI-1
aI-1
aI-1
aa(lp3215
I-1
aI-1
aI-1
aI-1
aI-1
aI-1
aa(lp3216
I-1
aI-1
aI-1
aI-1
aI-1
aI-1
aa(lp3217
I-1
aI-1
aI-1
aI-1
aI-1
aI-1
aa(lp3218
I-1
aI-1
aI-1
aI-1
aI-1
aI-1
aa(lp3219
I-1
aI-1
aI-1
aI-1
aI-1
aI-1
aa(lp3220
I-1
aI-1
aI-1
aI-1
aI-1
aI-1
aa(lp3221
I-1
aI-1
aI-1
aI-1
aI-1
aI-1
aa(lp3222
I-1
aI-1
aI-1
aI-1
aI-1
aI-1
aa(lp3223
I-1
aI-1
aI-1
aI-1
aI-1
aI-1
aa(lp3224
I-1
aI-1
aI-1
aI-1
aI-1
aI-1
aa(lp3225
I-1
aI-1
aI-1
aI-1
aI-1
aI-1
aa(lp3226
I-1
aI-1
aI-1
aI-1
aI-1
aI-1
aa(lp3227
I-1
aI-1
aI-1
aI-1
aI-1
aI-1
aa(lp3228
I-1
aI-1
aI-1
aI-1
aI-1
aI-1
aa(lp3229
I-1
aI-1
aI-1
aI-1
aI-1
aI-1
aa(lp3230
I-1
aI-1
aI-1
aI-1
aI-1
aI-1
aa(lp3231
I-1
aI-1
aI-1
aI-1
aI-1
aI-1
aa(lp3232
I-1
aI-1
aI-1
aI-1
aI-1
aI-1
aa(lp3233
I-1
aI-1
aI-1
aI-1
aI-1
aI-1
aa(lp3234
I-1
aI-1
aI-1
aI-1
aI-1
aI-1
aa(lp3235
I-1
aI-1
aI-1
aI-1
aI-1
aI-1
aa(lp3236
I-1
aI-1
aI-1
aI-1
aI-1
aI-1
aa(lp3237
I-1
aI-1
aI-1
aI-1
aI-1
aI-1
aa(lp3238
I-1
aI-1
aI-1
aI-1
aI-1
aI-1
aa(lp3239
I-1
aI-1
aI-1
aI-1
aI-1
aI-1
aa(lp3240
I-1
aI-1
aI-1
aI-1
aI-1
aI-1
aa(lp3241
I-1
aI-1
aI-1
aI-1
aI-1
aI-1
aa(lp3242
I-1
aI-1
aI-1
aI-1
aI-1
aI-1
aa(lp3243
I-1
aI-1
aI-1
aI-1
aI-1
aI-1
aa(lp3244
I-1
aI-1
aI-1
aI-1
aI-1
aI-1
aa(lp3245
I-1
aI-1
aI-1
aI-1
aI-1
aI-1
aa(lp3246
I-1
aI-1
aI-1
aI-1
aI-1
aI-1
aa(lp3247
I-1
aI-1
aI-1
aI-1
aI-1
aI-1
aa(lp3248
I-1
aI-1
aI-1
aI-1
aI-1
aI-1
aa(lp3249
I-1
aI-1
aI-1
aI-1
aI-1
aI-1
aa(lp3250
I-1
aI-1
aI-1
aI-1
aI-1
aI-1
aa(lp3251
I-1
aI-1
aI-1
aI-1
aI-1
aI-1
aa(lp3252
I-1
aI-1
aI-1
aI-1
aI-1
aI-1
aa(lp3253
I-1
aI-1
aI-1
aI-1
aI-1
aI-1
aa(lp3254
I-1
aI-1
aI-1
aI-1
aI-1
aI-1
aa(lp3255
I-1
aI-1
aI-1
aI-1
aI-1
aI-1
aa(lp3256
I-1
aI-1
aI-1
aI-1
aI-1
aI-1
aa(lp3257
I-1
aI-1
aI-1
aI-1
aI-1
aI-1
aa(lp3258
I-1
aI-1
aI-1
aI-1
aI-1
aI-1
aa(lp3259
I-1
aI-1
aI-1
aI-1
aI-1
aI-1
aa(lp3260
I-1
aI-1
aI-1
aI-1
aI-1
aI-1
aa(lp3261
I-1
aI-1
aI-1
aI-1
aI-1
aI-1
aa(lp3262
I-1
aI-1
aI-1
aI-1
aI-1
aI-1
aa(lp3263
I-1
aI-1
aI-1
aI-1
aI-1
aI-1
aa(lp3264
I-1
aI-1
aI-1
aI-1
aI-1
aI-1
aa(lp3265
I-1
aI-1
aI-1
aI-1
aI-1
aI-1
aa(lp3266
I-1
aI-1
aI-1
aI-1
aI-1
aI-1
aa(lp3267
I-1
aI-1
aI-1
aI-1
aI-1
aI-1
aa(lp3268
I-1
aI-1
aI-1
aI-1
aI-1
aI-1
aa(lp3269
I-1
aI-1
aI-1
aI-1
aI-1
aI-1
aa(lp3270
I-1
aI-1
aI-1
aI-1
aI-1
aI-1
aa(lp3271
I-1
aI-1
aI-1
aI-1
aI-1
aI-1
aa(lp3272
I-1
aI-1
aI-1
aI-1
aI-1
aI-1
aa(lp3273
I-1
aI-1
aI-1
aI-1
aI-1
aI-1
aa(lp3274
I-1
aI-1
aI-1
aI-1
aI-1
aI-1
aa(lp3275
I-1
aI-1
aI-1
aI-1
aI-1
aI-1
aa(lp3276
I-1
aI-1
aI-1
aI-1
aI-1
aI-1
aa(lp3277
I-1
aI-1
aI-1
aI-1
aI-1
aI-1
aa(lp3278
I-1
aI-1
aI-1
aI-1
aI-1
aI-1
aa(lp3279
I-1
aI-1
aI-1
aI-1
aI-1
aI-1
aa(lp3280
I-1
aI-1
aI-1
aI-1
aI-1
aI-1
aa(lp3281
I-1
aI-1
aI-1
aI-1
aI-1
aI-1
aa(lp3282
I-1
aI-1
aI-1
aI-1
aI-1
aI-1
aa(lp3283
I-1
aI-1
aI-1
aI-1
aI-1
aI-1
aa(lp3284
I-1
aI-1
aI-1
aI-1
aI-1
aI-1
aa(lp3285
I-1
aI-1
aI-1
aI-1
aI-1
aI-1
aa(lp3286
I-1
aI-1
aI-1
aI-1
aI-1
aI-1
aa(lp3287
I-1
aI-1
aI-1
aI-1
aI-1
aI-1
aa(lp3288
I-1
aI-1
aI-1
aI-1
aI-1
aI-1
aa(lp3289
I-1
aI-1
aI-1
aI-1
aI-1
aI-1
aa(lp3290
I-1
aI-1
aI-1
aI-1
aI-1
aI-1
aa(lp3291
I-1
aI-1
aI-1
aI-1
aI-1
aI-1
aa(lp3292
I-1
aI-1
aI-1
aI-1
aI-1
aI-1
aa(lp3293
I-1
aI-1
aI-1
aI-1
aI-1
aI-1
aa(lp3294
I-1
aI-1
aI-1
aI-1
aI-1
aI-1
aa(lp3295
I-1
aI-1
aI-1
aI-1
aI-1
aI-1
aa(lp3296
I-1
aI-1
aI-1
aI-1
aI-1
aI-1
aa(lp3297
I-1
aI-1
aI-1
aI-1
aI-1
aI-1
aa(lp3298
I-1
aI-1
aI-1
aI-1
aI-1
aI-1
aa(lp3299
I-1
aI-1
aI-1
aI-1
aI-1
aI-1
aa(lp3300
I-1
aI-1
aI-1
aI-1
aI-1
aI-1
aa(lp3301
I-1
aI-1
aI-1
aI-1
aI-1
aI-1
aa(lp3302
I-1
aI-1
aI-1
aI-1
aI-1
aI-1
aa(lp3303
I-1
aI-1
aI-1
aI-1
aI-1
aI-1
aa(lp3304
I-1
aI-1
aI-1
aI-1
aI-1
aI-1
aa(lp3305
I-1
aI-1
aI-1
aI-1
aI-1
aI-1
aa(lp3306
I-1
aI-1
aI-1
aI-1
aI-1
aI-1
aa(lp3307
I-1
aI-1
aI-1
aI-1
aI-1
aI-1
aa(lp3308
I-1
aI-1
aI-1
aI-1
aI-1
aI-1
aa(lp3309
I-1
aI-1
aI-1
aI-1
aI-1
aI-1
aa(lp3310
I-1
aI-1
aI-1
aI-1
aI-1
aI-1
aa(lp3311
I-1
aI-1
aI-1
aI-1
aI-1
aI-1
aa(lp3312
I-1
aI-1
aI-1
aI-1
aI-1
aI-1
aa(lp3313
I-1
aI-1
aI-1
aI-1
aI-1
aI-1
aa(lp3314
I-1
aI-1
aI-1
aI-1
aI-1
aI-1
aa(lp3315
I-1
aI-1
aI-1
aI-1
aI-1
aI-1
aa(lp3316
I-1
aI-1
aI-1
aI-1
aI-1
aI-1
aa(lp3317
I-1
aI-1
aI-1
aI-1
aI-1
aI-1
aa(lp3318
I-1
aI-1
aI-1
aI-1
aI-1
aI-1
aa(lp3319
I-1
aI-1
aI-1
aI-1
aI-1
aI-1
aa(lp3320
I-1
aI-1
aI-1
aI-1
aI-1
aI-1
aa(lp3321
I-1
aI-1
aI-1
aI-1
aI-1
aI-1
aa(lp3322
I-1
aI-1
aI-1
aI-1
aI-1
aI-1
aa(lp3323
I-1
aI-1
aI-1
aI-1
aI-1
aI-1
aa(lp3324
I-1
aI-1
aI-1
aI-1
aI-1
aI-1
aa(lp3325
I-1
aI-1
aI-1
aI-1
aI-1
aI-1
aa(lp3326
I-1
aI-1
aI-1
aI-1
aI-1
aI-1
aa(lp3327
I-1
aI-1
aI-1
aI-1
aI-1
aI-1
aa(lp3328
I-1
aI-1
aI-1
aI-1
aI-1
aI-1
aa(lp3329
I-1
aI-1
aI-1
aI-1
aI-1
aI-1
aa(lp3330
I-1
aI-1
aI-1
aI-1
aI-1
aI-1
aa(lp3331
I-1
aI-1
aI-1
aI-1
aI-1
aI-1
aa(lp3332
I-1
aI-1
aI-1
aI-1
aI-1
aI-1
aa(lp3333
I-1
aI-1
aI-1
aI-1
aI-1
aI-1
aa(lp3334
I-1
aI-1
aI-1
aI-1
aI-1
aI-1
aa(lp3335
I-1
aI-1
aI-1
aI-1
aI-1
aI-1
aa(lp3336
I-1
aI-1
aI-1
aI-1
aI-1
aI-1
aa(lp3337
I-1
aI-1
aI-1
aI-1
aI-1
aI-1
aa(lp3338
I-1
aI-1
aI-1
aI-1
aI-1
aI-1
aa(lp3339
I-1
aI-1
aI-1
aI-1
aI-1
aI-1
aa(lp3340
I-1
aI-1
aI-1
aI-1
aI-1
aI-1
aa(lp3341
I-1
aI-1
aI-1
aI-1
aI-1
aI-1
aa(lp3342
I-1
aI-1
aI-1
aI-1
aI-1
aI-1
aa(lp3343
I-1
aI-1
aI-1
aI-1
aI-1
aI-1
aa(lp3344
I-1
aI-1
aI-1
aI-1
aI-1
aI-1
aa(lp3345
I-1
aI-1
aI-1
aI-1
aI-1
aI-1
aa(lp3346
I-1
aI-1
aI-1
aI-1
aI-1
aI-1
aa(lp3347
I-1
aI-1
aI-1
aI-1
aI-1
aI-1
aa(lp3348
I-1
aI-1
aI-1
aI-1
aI-1
aI-1
aa(lp3349
I-1
aI-1
aI-1
aI-1
aI-1
aI-1
aa(lp3350
I-1
aI-1
aI-1
aI-1
aI-1
aI-1
aa(lp3351
I-1
aI-1
aI-1
aI-1
aI-1
aI-1
aa(lp3352
I-1
aI-1
aI-1
aI-1
aI-1
aI-1
aa(lp3353
I-1
aI-1
aI-1
aI-1
aI-1
aI-1
aa(lp3354
I-1
aI-1
aI-1
aI-1
aI-1
aI-1
aa(lp3355
I-1
aI-1
aI-1
aI-1
aI-1
aI-1
aa(lp3356
I-1
aI-1
aI-1
aI-1
aI-1
aI-1
aa(lp3357
I-1
aI-1
aI-1
aI-1
aI-1
aI-1
aa(lp3358
I-1
aI-1
aI-1
aI-1
aI-1
aI-1
aa(lp3359
I-1
aI-1
aI-1
aI-1
aI-1
aI-1
aa(lp3360
I-1
aI-1
aI-1
aI-1
aI-1
aI-1
aa(lp3361
I-1
aI-1
aI-1
aI-1
aI-1
aI-1
aa(lp3362
I-1
aI-1
aI-1
aI-1
aI-1
aI-1
aa(lp3363
I-1
aI-1
aI-1
aI-1
aI-1
aI-1
aa(lp3364
I-1
aI-1
aI-1
aI-1
aI-1
aI-1
aa(lp3365
I-1
aI-1
aI-1
aI-1
aI-1
aI-1
aa(lp3366
I-1
aI-1
aI-1
aI-1
aI-1
aI-1
aa(lp3367
I-1
aI-1
aI-1
aI-1
aI-1
aI-1
aa(lp3368
I-1
aI-1
aI-1
aI-1
aI-1
aI-1
aa(lp3369
I-1
aI-1
aI-1
aI-1
aI-1
aI-1
aa(lp3370
I-1
aI-1
aI-1
aI-1
aI-1
aI-1
aa(lp3371
I-1
aI-1
aI-1
aI-1
aI-1
aI-1
aa(lp3372
I-1
aI-1
aI-1
aI-1
aI-1
aI-1
aa(lp3373
I-1
aI-1
aI-1
aI-1
aI-1
aI-1
aa(lp3374
I-1
aI-1
aI-1
aI-1
aI-1
aI-1
aa(lp3375
I-1
aI-1
aI-1
aI-1
aI-1
aI-1
aa(lp3376
I-1
aI-1
aI-1
aI-1
aI-1
aI-1
aa(lp3377
I-1
aI-1
aI-1
aI-1
aI-1
aI-1
aa(lp3378
I-1
aI-1
aI-1
aI-1
aI-1
aI-1
aa(lp3379
I-1
aI-1
aI-1
aI-1
aI-1
aI-1
aa(lp3380
I-1
aI-1
aI-1
aI-1
aI-1
aI-1
aa(lp3381
I-1
aI-1
aI-1
aI-1
aI-1
aI-1
aa(lp3382
I-1
aI-1
aI-1
aI-1
aI-1
aI-1
aa(lp3383
I-1
aI-1
aI-1
aI-1
aI-1
aI-1
aa(lp3384
I-1
aI-1
aI-1
aI-1
aI-1
aI-1
aa(lp3385
I-1
aI-1
aI-1
aI-1
aI-1
aI-1
aa(lp3386
I-1
aI-1
aI-1
aI-1
aI-1
aI-1
aa(lp3387
I-1
aI-1
aI-1
aI-1
aI-1
aI-1
aa(lp3388
I-1
aI-1
aI-1
aI-1
aI-1
aI-1
aa(lp3389
I-1
aI-1
aI-1
aI-1
aI-1
aI-1
aa(lp3390
I-1
aI-1
aI-1
aI-1
aI-1
aI-1
aa(lp3391
I-1
aI-1
aI-1
aI-1
aI-1
aI-1
aa(lp3392
I-1
aI-1
aI-1
aI-1
aI-1
aI-1
aa(lp3393
I-1
aI-1
aI-1
aI-1
aI-1
aI-1
aa(lp3394
I-1
aI-1
aI-1
aI-1
aI-1
aI-1
aa(lp3395
I-1
aI-1
aI-1
aI-1
aI-1
aI-1
aa(lp3396
I-1
aI-1
aI-1
aI-1
aI-1
aI-1
aa(lp3397
I-1
aI-1
aI-1
aI-1
aI-1
aI-1
aa(lp3398
I-1
aI-1
aI-1
aI-1
aI-1
aI-1
aa(lp3399
I-1
aI-1
aI-1
aI-1
aI-1
aI-1
aa(lp3400
I-1
aI-1
aI-1
aI-1
aI-1
aI-1
aa(lp3401
I-1
aI-1
aI-1
aI-1
aI-1
aI-1
aa(lp3402
I-1
aI-1
aI-1
aI-1
aI-1
aI-1
aa(lp3403
I-1
aI-1
aI-1
aI-1
aI-1
aI-1
aa(lp3404
I-1
aI-1
aI-1
aI-1
aI-1
aI-1
aa(lp3405
I-1
aI-1
aI-1
aI-1
aI-1
aI-1
aa(lp3406
I-1
aI-1
aI-1
aI-1
aI-1
aI-1
aa(lp3407
I-1
aI-1
aI-1
aI-1
aI-1
aI-1
aa(lp3408
I-1
aI-1
aI-1
aI-1
aI-1
aI-1
aa(lp3409
I-1
aI-1
aI-1
aI-1
aI-1
aI-1
aa(lp3410
I-1
aI-1
aI-1
aI-1
aI-1
aI-1
aa(lp3411
I-1
aI-1
aI-1
aI-1
aI-1
aI-1
aa(lp3412
I-1
aI-1
aI-1
aI-1
aI-1
aI-1
aa(lp3413
I-1
aI-1
aI-1
aI-1
aI-1
aI-1
aa(lp3414
I-1
aI-1
aI-1
aI-1
aI-1
aI-1
aa(lp3415
I-1
aI-1
aI-1
aI-1
aI-1
aI-1
aa(lp3416
I-1
aI-1
aI-1
aI-1
aI-1
aI-1
aa(lp3417
I-1
aI-1
aI-1
aI-1
aI-1
aI-1
aa(lp3418
I-1
aI-1
aI-1
aI-1
aI-1
aI-1
aa(lp3419
I-1
aI-1
aI-1
aI-1
aI-1
aI-1
aa(lp3420
I-1
aI-1
aI-1
aI-1
aI-1
aI-1
aa(lp3421
I-1
aI-1
aI-1
aI-1
aI-1
aI-1
aa(lp3422
I-1
aI-1
aI-1
aI-1
aI-1
aI-1
aa(lp3423
I-1
aI-1
aI-1
aI-1
aI-1
aI-1
aa(lp3424
I-1
aI-1
aI-1
aI-1
aI-1
aI-1
aa(lp3425
I-1
aI-1
aI-1
aI-1
aI-1
aI-1
aa(lp3426
I-1
aI-1
aI-1
aI-1
aI-1
aI-1
aa(lp3427
I-1
aI-1
aI-1
aI-1
aI-1
aI-1
aa(lp3428
I-1
aI-1
aI-1
aI-1
aI-1
aI-1
aa(lp3429
I-1
aI-1
aI-1
aI-1
aI-1
aI-1
aa(lp3430
I-1
aI-1
aI-1
aI-1
aI-1
aI-1
aa(lp3431
I-1
aI-1
aI-1
aI-1
aI-1
aI-1
aa(lp3432
I-1
aI-1
aI-1
aI-1
aI-1
aI-1
aa(lp3433
I-1
aI-1
aI-1
aI-1
aI-1
aI-1
aa(lp3434
I-1
aI-1
aI-1
aI-1
aI-1
aI-1
aa(lp3435
I-1
aI-1
aI-1
aI-1
aI-1
aI-1
aa(lp3436
I-1
aI-1
aI-1
aI-1
aI-1
aI-1
aa(lp3437
I-1
aI-1
aI-1
aI-1
aI-1
aI-1
aa(lp3438
I-1
aI-1
aI-1
aI-1
aI-1
aI-1
aa(lp3439
I-1
aI-1
aI-1
aI-1
aI-1
aI-1
aa(lp3440
I-1
aI-1
aI-1
aI-1
aI-1
aI-1
aa(lp3441
I-1
aI-1
aI-1
aI-1
aI-1
aI-1
aa(lp3442
I-1
aI-1
aI-1
aI-1
aI-1
aI-1
aa(lp3443
I-1
aI-1
aI-1
aI-1
aI-1
aI-1
aa(lp3444
I-1
aI-1
aI-1
aI-1
aI-1
aI-1
aa(lp3445
I-1
aI-1
aI-1
aI-1
aI-1
aI-1
aa(lp3446
I-1
aI-1
aI-1
aI-1
aI-1
aI-1
aa(lp3447
I-1
aI-1
aI-1
aI-1
aI-1
aI-1
aa(lp3448
I-1
aI-1
aI-1
aI-1
aI-1
aI-1
aa(lp3449
I-1
aI-1
aI-1
aI-1
aI-1
aI-1
aa(lp3450
I-1
aI-1
aI-1
aI-1
aI-1
aI-1
aa(lp3451
I-1
aI-1
aI-1
aI-1
aI-1
aI-1
aa(lp3452
I-1
aI-1
aI-1
aI-1
aI-1
aI-1
aa(lp3453
I-1
aI-1
aI-1
aI-1
aI-1
aI-1
aa(lp3454
I-1
aI-1
aI-1
aI-1
aI-1
aI-1
aa(lp3455
I-1
aI-1
aI-1
aI-1
aI-1
aI-1
aa(lp3456
I-1
aI-1
aI-1
aI-1
aI-1
aI-1
aa(lp3457
I-1
aI-1
aI-1
aI-1
aI-1
aI-1
aa(lp3458
I-1
aI-1
aI-1
aI-1
aI-1
aI-1
aa(lp3459
I-1
aI-1
aI-1
aI-1
aI-1
aI-1
aa(lp3460
I-1
aI-1
aI-1
aI-1
aI-1
aI-1
aa(lp3461
I-1
aI-1
aI-1
aI-1
aI-1
aI-1
aa(lp3462
I-1
aI-1
aI-1
aI-1
aI-1
aI-1
aa(lp3463
I-1
aI-1
aI-1
aI-1
aI-1
aI-1
aa(lp3464
I-1
aI-1
aI-1
aI-1
aI-1
aI-1
aa(lp3465
I-1
aI-1
aI-1
aI-1
aI-1
aI-1
aa(lp3466
I-1
aI-1
aI-1
aI-1
aI-1
aI-1
aa(lp3467
I-1
aI-1
aI-1
aI-1
aI-1
aI-1
aa(lp3468
I-1
aI-1
aI-1
aI-1
aI-1
aI-1
aa(lp3469
I-1
aI-1
aI-1
aI-1
aI-1
aI-1
aa(lp3470
I-1
aI-1
aI-1
aI-1
aI-1
aI-1
aa(lp3471
I-1
aI-1
aI-1
aI-1
aI-1
aI-1
aa(lp3472
I-1
aI-1
aI-1
aI-1
aI-1
aI-1
aa(lp3473
I-1
aI-1
aI-1
aI-1
aI-1
aI-1
aa(lp3474
I-1
aI-1
aI-1
aI-1
aI-1
aI-1
aa(lp3475
I-1
aI-1
aI-1
aI-1
aI-1
aI-1
aa(lp3476
I-1
aI-1
aI-1
aI-1
aI-1
aI-1
aa(lp3477
I-1
aI-1
aI-1
aI-1
aI-1
aI-1
aa(lp3478
I-1
aI-1
aI-1
aI-1
aI-1
aI-1
aa(lp3479
I-1
aI-1
aI-1
aI-1
aI-1
aI-1
aa(lp3480
I-1
aI-1
aI-1
aI-1
aI-1
aI-1
aa(lp3481
I-1
aI-1
aI-1
aI-1
aI-1
aI-1
aa(lp3482
I-1
aI-1
aI-1
aI-1
aI-1
aI-1
aa(lp3483
I-1
aI-1
aI-1
aI-1
aI-1
aI-1
aa(lp3484
I-1
aI-1
aI-1
aI-1
aI-1
aI-1
aa(lp3485
I-1
aI-1
aI-1
aI-1
aI-1
aI-1
aa(lp3486
I-1
aI-1
aI-1
aI-1
aI-1
aI-1
aa(lp3487
I-1
aI-1
aI-1
aI-1
aI-1
aI-1
aa(lp3488
I-1
aI-1
aI-1
aI-1
aI-1
aI-1
aa(lp3489
I-1
aI-1
aI-1
aI-1
aI-1
aI-1
aa(lp3490
I-1
aI-1
aI-1
aI-1
aI-1
aI-1
aa(lp3491
I-1
aI-1
aI-1
aI-1
aI-1
aI-1
aa(lp3492
I-1
aI-1
aI-1
aI-1
aI-1
aI-1
aa(lp3493
I-1
aI-1
aI-1
aI-1
aI-1
aI-1
aa(lp3494
I-1
aI-1
aI-1
aI-1
aI-1
aI-1
aa(lp3495
I-1
aI-1
aI-1
aI-1
aI-1
aI-1
aa(lp3496
I-1
aI-1
aI-1
aI-1
aI-1
aI-1
aa(lp3497
I-1
aI-1
aI-1
aI-1
aI-1
aI-1
aa(lp3498
I-1
aI-1
aI-1
aI-1
aI-1
aI-1
aa(lp3499
I-1
aI-1
aI-1
aI-1
aI-1
aI-1
aa(lp3500
I-1
aI-1
aI-1
aI-1
aI-1
aI-1
aa(lp3501
I-1
aI-1
aI-1
aI-1
aI-1
aI-1
aa(lp3502
I-1
aI-1
aI-1
aI-1
aI-1
aI-1
aa(lp3503
I-1
aI-1
aI-1
aI-1
aI-1
aI-1
aa(lp3504
I-1
aI-1
aI-1
aI-1
aI-1
aI-1
aa(lp3505
I-1
aI-1
aI-1
aI-1
aI-1
aI-1
aa(lp3506
I-1
aI-1
aI-1
aI-1
aI-1
aI-1
aa(lp3507
I-1
aI-1
aI-1
aI-1
aI-1
aI-1
aa(lp3508
I-1
aI-1
aI-1
aI-1
aI-1
aI-1
aa(lp3509
I-1
aI-1
aI-1
aI-1
aI-1
aI-1
aa(lp3510
I-1
aI-1
aI-1
aI-1
aI-1
aI-1
aa(lp3511
I-1
aI-1
aI-1
aI-1
aI-1
aI-1
aa(lp3512
I-1
aI-1
aI-1
aI-1
aI-1
aI-1
aa(lp3513
I-1
aI-1
aI-1
aI-1
aI-1
aI-1
aa(lp3514
I-1
aI-1
aI-1
aI-1
aI-1
aI-1
aa(lp3515
I-1
aI-1
aI-1
aI-1
aI-1
aI-1
aa(lp3516
I-1
aI-1
aI-1
aI-1
aI-1
aI-1
aa(lp3517
I-1
aI-1
aI-1
aI-1
aI-1
aI-1
aa(lp3518
I-1
aI-1
aI-1
aI-1
aI-1
aI-1
aa(lp3519
I-1
aI-1
aI-1
aI-1
aI-1
aI-1
aa(lp3520
I-1
aI-1
aI-1
aI-1
aI-1
aI-1
aa(lp3521
I-1
aI-1
aI-1
aI-1
aI-1
aI-1
aa(lp3522
I-1
aI-1
aI-1
aI-1
aI-1
aI-1
aa(lp3523
I-1
aI-1
aI-1
aI-1
aI-1
aI-1
aa(lp3524
I-1
aI-1
aI-1
aI-1
aI-1
aI-1
aa(lp3525
I-1
aI-1
aI-1
aI-1
aI-1
aI-1
aa(lp3526
I-1
aI-1
aI-1
aI-1
aI-1
aI-1
aa(lp3527
I-1
aI-1
aI-1
aI-1
aI-1
aI-1
aa(lp3528
I-1
aI-1
aI-1
aI-1
aI-1
aI-1
aasS'american'
p3529
(lp3530
(lp3531
I-1
aI-1
aI-1
aI-1
aI-1
aI-1
aa(lp3532
I-1
aI-1
aI-1
aI-1
aI-1
aI-1
aa(lp3533
I-1
aI-1
aI-1
aI-1
aI-1
aI-1
aa(lp3534
I-1
aI-1
aI-1
aI-1
aI-1
aI-1
aa(lp3535
I-1
aI-1
aI-1
aI-1
aI-1
aI-1
aa(lp3536
I-1
aI-1
aI-1
aI-1
aI-1
aI-1
aa(lp3537
I-1
aI-1
aI-1
aI-1
aI-1
aI-1
aa(lp3538
I-1
aI-1
aI-1
aI-1
aI-1
aI-1
aa(lp3539
I-1
aI-1
aI-1
aI-1
aI-1
aI-1
aa(lp3540
I-1
aI-1
aI-1
aI-1
aI-1
aI-1
aa(lp3541
I-1
aI-1
aI-1
aI-1
aI-1
aI-1
aa(lp3542
I-1
aI-1
aI-1
aI-1
aI-1
aI-1
aa(lp3543
I-1
aI-1
aI-1
aI-1
aI-1
aI-1
aa(lp3544
I-1
aI-1
aI-1
aI-1
aI-1
aI-1
aa(lp3545
I-1
aI-1
aI-1
aI-1
aI-1
aI-1
aa(lp3546
I-1
aI-1
aI-1
aI-1
aI-1
aI-1
aa(lp3547
I-1
aI-1
aI-1
aI-1
aI-1
aI-1
aasS'college'
p3548
(lp3549
(lp3550
I-1
aI-1
aI-1
aI-1
aI-1
aI-1
aa(lp3551
I-1
aI-1
aI-1
aI-1
aI-1
aI-1
aa(lp3552
I-1
aI-1
aI-1
aI-1
aI-1
aI-1
aa(lp3553
I-1
aI-1
aI-1
aI-1
aI-1
aI-1
aa(lp3554
I-1
aI-1
aI-1
aI-1
aI-1
aI-1
aa(lp3555
I-1
aI-1
aI-1
aI-1
aI-1
aI-1
aa(lp3556
I-1
aI-1
aI-1
aI-1
aI-1
aI-1
aa(lp3557
I-1
aI-1
aI-1
aI-1
aI-1
aI-1
aa(lp3558
I-1
aI-1
aI-1
aI-1
aI-1
aI-1
aa(lp3559
I-1
aI-1
aI-1
aI-1
aI-1
aI-1
aa(lp3560
I-1
aI-1
aI-1
aI-1
aI-1
aI-1
aa(lp3561
I-1
aI-1
aI-1
aI-1
aI-1
aI-1
aa(lp3562
I-1
aI-1
aI-1
aI-1
aI-1
aI-1
aa(lp3563
I-1
aI-1
aI-1
aI-1
aI-1
aI-1
aa(lp3564
I-1
aI-1
aI-1
aI-1
aI-1
aI-1
aa(lp3565
I-1
aI-1
aI-1
aI-1
aI-1
aI-1
aa(lp3566
I-1
aI-1
aI-1
aI-1
aI-1
aI-1
aa(lp3567
I-1
aI-1
aI-1
aI-1
aI-1
aI-1
aa(lp3568
I-1
aI-1
aI-1
aI-1
aI-1
aI-1
aa(lp3569
I-1
aI-1
aI-1
aI-1
aI-1
aI-1
aa(lp3570
I-1
aI-1
aI-1
aI-1
aI-1
aI-1
aa(lp3571
I-1
aI-1
aI-1
aI-1
aI-1
aI-1
aa(lp3572
I-1
aI-1
aI-1
aI-1
aI-1
aI-1
aa(lp3573
I-1
aI-1
aI-1
aI-1
aI-1
aI-1
aa(lp3574
I-1
aI-1
aI-1
aI-1
aI-1
aI-1
aa(lp3575
I-1
aI-1
aI-1
aI-1
aI-1
aI-1
aa(lp3576
I-1
aI-1
aI-1
aI-1
aI-1
aI-1
aa(lp3577
I-1
aI-1
aI-1
aI-1
aI-1
aI-1
aa(lp3578
I-1
aI-1
aI-1
aI-1
aI-1
aI-1
aa(lp3579
I-1
aI-1
aI-1
aI-1
aI-1
aI-1
aa(lp3580
I-1
aI-1
aI-1
aI-1
aI-1
aI-1
aa(lp3581
I-1
aI-1
aI-1
aI-1
aI-1
aI-1
aa(lp3582
I-1
aI-1
aI-1
aI-1
aI-1
aI-1
aa(lp3583
I-1
aI-1
aI-1
aI-1
aI-1
aI-1
aa(lp3584
I-1
aI-1
aI-1
aI-1
aI-1
aI-1
aa(lp3585
I-1
aI-1
aI-1
aI-1
aI-1
aI-1
aa(lp3586
I-1
aI-1
aI-1
aI-1
aI-1
aI-1
aa(lp3587
I-1
aI-1
aI-1
aI-1
aI-1
aI-1
aa(lp3588
I-1
aI-1
aI-1
aI-1
aI-1
aI-1
aa(lp3589
I-1
aI-1
aI-1
aI-1
aI-1
aI-1
aa(lp3590
I-1
aI-1
aI-1
aI-1
aI-1
aI-1
aa(lp3591
I-1
aI-1
aI-1
aI-1
aI-1
aI-1
aa(lp3592
I-1
aI-1
aI-1
aI-1
aI-1
aI-1
aa(lp3593
I-1
aI-1
aI-1
aI-1
aI-1
aI-1
aa(lp3594
I-1
aI-1
aI-1
aI-1
aI-1
aI-1
aa(lp3595
I-1
aI-1
aI-1
aI-1
aI-1
aI-1
aa(lp3596
I-1
aI-1
aI-1
aI-1
aI-1
aI-1
aa(lp3597
I-1
aI-1
aI-1
aI-1
aI-1
aI-1
aa(lp3598
I-1
aI-1
aI-1
aI-1
aI-1
aI-1
aa(lp3599
I-1
aI-1
aI-1
aI-1
aI-1
aI-1
aa(lp3600
I-1
aI-1
aI-1
aI-1
aI-1
aI-1
aa(lp3601
I-1
aI-1
aI-1
aI-1
aI-1
aI-1
aa(lp3602
I-1
aI-1
aI-1
aI-1
aI-1
aI-1
aa(lp3603
I-1
aI-1
aI-1
aI-1
aI-1
aI-1
aa(lp3604
I-1
aI-1
aI-1
aI-1
aI-1
aI-1
aa(lp3605
I-1
aI-1
aI-1
aI-1
aI-1
aI-1
aa(lp3606
I-1
aI-1
aI-1
aI-1
aI-1
aI-1
aa(lp3607
I-1
aI-1
aI-1
aI-1
aI-1
aI-1
aa(lp3608
I-1
aI-1
aI-1
aI-1
aI-1
aI-1
aa(lp3609
I-1
aI-1
aI-1
aI-1
aI-1
aI-1
aa(lp3610
I-1
aI-1
aI-1
aI-1
aI-1
aI-1
aa(lp3611
I-1
aI-1
aI-1
aI-1
aI-1
aI-1
aa(lp3612
I-1
aI-1
aI-1
aI-1
aI-1
aI-1
aa(lp3613
I-1
aI-1
aI-1
aI-1
aI-1
aI-1
aa(lp3614
I-1
aI-1
aI-1
aI-1
aI-1
aI-1
aa(lp3615
I-1
aI-1
aI-1
aI-1
aI-1
aI-1
aa(lp3616
I-1
aI-1
aI-1
aI-1
aI-1
aI-1
aa(lp3617
I-1
aI-1
aI-1
aI-1
aI-1
aI-1
aa(lp3618
I-1
aI-1
aI-1
aI-1
aI-1
aI-1
aasS'church'
p3619
(lp3620
(lp3621
I-1
aI-1
aI-1
aI-1
aI-1
aI-1
aa(lp3622
I-1
aI-1
aI-1
aI-1
aI-1
aI-1
aa(lp3623
I-1
aI-1
aI-1
aI-1
aI-1
aI-1
aa(lp3624
I-1
aI-1
aI-1
aI-1
aI-1
aI-1
aa(lp3625
I-1
aI-1
aI-1
aI-1
aI-1
aI-1
aa(lp3626
I-1
aI-1
aI-1
aI-1
aI-1
aI-1
aa(lp3627
I-1
aI-1
aI-1
aI-1
aI-1
aI-1
aa(lp3628
I-1
aI-1
aI-1
aI-1
aI-1
aI-1
aa(lp3629
I-1
aI-1
aI-1
aI-1
aI-1
aI-1
aa(lp3630
I-1
aI-1
aI-1
aI-1
aI-1
aI-1
aa(lp3631
I-1
aI-1
aI-1
aI-1
aI-1
aI-1
aa(lp3632
I-1
aI-1
aI-1
aI-1
aI-1
aI-1
aa(lp3633
I-1
aI-1
aI-1
aI-1
aI-1
aI-1
aa(lp3634
I-1
aI-1
aI-1
aI-1
aI-1
aI-1
aa(lp3635
I-1
aI-1
aI-1
aI-1
aI-1
aI-1
aa(lp3636
I-1
aI-1
aI-1
aI-1
aI-1
aI-1
aa(lp3637
I-1
aI-1
aI-1
aI-1
aI-1
aI-1
aa(lp3638
I-1
aI-1
aI-1
aI-1
aI-1
aI-1
aa(lp3639
I-1
aI-1
aI-1
aI-1
aI-1
aI-1
aa(lp3640
I-1
aI-1
aI-1
aI-1
aI-1
aI-1
aa(lp3641
I-1
aI-1
aI-1
aI-1
aI-1
aI-1
aa(lp3642
I-1
aI-1
aI-1
aI-1
aI-1
aI-1
aa(lp3643
I-1
aI-1
aI-1
aI-1
aI-1
aI-1
aa(lp3644
I-1
aI-1
aI-1
aI-1
aI-1
aI-1
aa(lp3645
I-1
aI-1
aI-1
aI-1
aI-1
aI-1
aa(lp3646
I-1
aI-1
aI-1
aI-1
aI-1
aI-1
aa(lp3647
I-1
aI-1
aI-1
aI-1
aI-1
aI-1
aa(lp3648
I-1
aI-1
aI-1
aI-1
aI-1
aI-1
aa(lp3649
I-1
aI-1
aI-1
aI-1
aI-1
aI-1
aa(lp3650
I-1
aI-1
aI-1
aI-1
aI-1
aI-1
aa(lp3651
I-1
aI-1
aI-1
aI-1
aI-1
aI-1
aa(lp3652
I-1
aI-1
aI-1
aI-1
aI-1
aI-1
aa(lp3653
I-1
aI-1
aI-1
aI-1
aI-1
aI-1
aa(lp3654
I-1
aI-1
aI-1
aI-1
aI-1
aI-1
aa(lp3655
I-1
aI-1
aI-1
aI-1
aI-1
aI-1
aa(lp3656
I-1
aI-1
aI-1
aI-1
aI-1
aI-1
aa(lp3657
I-1
aI-1
aI-1
aI-1
aI-1
aI-1
aa(lp3658
I-1
aI-1
aI-1
aI-1
aI-1
aI-1
aa(lp3659
I-1
aI-1
aI-1
aI-1
aI-1
aI-1
aa(lp3660
I-1
aI-1
aI-1
aI-1
aI-1
aI-1
aa(lp3661
I-1
aI-1
aI-1
aI-1
aI-1
aI-1
aa(lp3662
I-1
aI-1
aI-1
aI-1
aI-1
aI-1
aa(lp3663
I-1
aI-1
aI-1
aI-1
aI-1
aI-1
aa(lp3664
I-1
aI-1
aI-1
aI-1
aI-1
aI-1
aa(lp3665
I-1
aI-1
aI-1
aI-1
aI-1
aI-1
aa(lp3666
I-1
aI-1
aI-1
aI-1
aI-1
aI-1
aa(lp3667
I-1
aI-1
aI-1
aI-1
aI-1
aI-1
aa(lp3668
I-1
aI-1
aI-1
aI-1
aI-1
aI-1
aa(lp3669
I-1
aI-1
aI-1
aI-1
aI-1
aI-1
aa(lp3670
I-1
aI-1
aI-1
aI-1
aI-1
aI-1
aa(lp3671
I-1
aI-1
aI-1
aI-1
aI-1
aI-1
aa(lp3672
I-1
aI-1
aI-1
aI-1
aI-1
aI-1
aa(lp3673
I-1
aI-1
aI-1
aI-1
aI-1
aI-1
aa(lp3674
I-1
aI-1
aI-1
aI-1
aI-1
aI-1
aa(lp3675
I-1
aI-1
aI-1
aI-1
aI-1
aI-1
aa(lp3676
I-1
aI-1
aI-1
aI-1
aI-1
aI-1
aa(lp3677
I-1
aI-1
aI-1
aI-1
aI-1
aI-1
aa(lp3678
I-1
aI-1
aI-1
aI-1
aI-1
aI-1
aa(lp3679
I-1
aI-1
aI-1
aI-1
aI-1
aI-1
aa(lp3680
I-1
aI-1
aI-1
aI-1
aI-1
aI-1
aa(lp3681
I-1
aI-1
aI-1
aI-1
aI-1
aI-1
aa(lp3682
I-1
aI-1
aI-1
aI-1
aI-1
aI-1
aa(lp3683
I-1
aI-1
aI-1
aI-1
aI-1
aI-1
aa(lp3684
I-1
aI-1
aI-1
aI-1
aI-1
aI-1
aa(lp3685
I-1
aI-1
aI-1
aI-1
aI-1
aI-1
aa(lp3686
I-1
aI-1
aI-1
aI-1
aI-1
aI-1
aa(lp3687
I-1
aI-1
aI-1
aI-1
aI-1
aI-1
aa(lp3688
I-1
aI-1
aI-1
aI-1
aI-1
aI-1
aa(lp3689
I-1
aI-1
aI-1
aI-1
aI-1
aI-1
aa(lp3690
I-1
aI-1
aI-1
aI-1
aI-1
aI-1
aa(lp3691
I-1
aI-1
aI-1
aI-1
aI-1
aI-1
aa(lp3692
I-1
aI-1
aI-1
aI-1
aI-1
aI-1
aa(lp3693
I-1
aI-1
aI-1
aI-1
aI-1
aI-1
aa(lp3694
I-1
aI-1
aI-1
aI-1
aI-1
aI-1
aa(lp3695
I-1
aI-1
aI-1
aI-1
aI-1
aI-1
aa(lp3696
I-1
aI-1
aI-1
aI-1
aI-1
aI-1
aa(lp3697
I-1
aI-1
aI-1
aI-1
aI-1
aI-1
aa(lp3698
I-1
aI-1
aI-1
aI-1
aI-1
aI-1
aa(lp3699
I-1
aI-1
aI-1
aI-1
aI-1
aI-1
aa(lp3700
I-1
aI-1
aI-1
aI-1
aI-1
aI-1
aa(lp3701
I-1
aI-1
aI-1
aI-1
aI-1
aI-1
aa(lp3702
I-1
aI-1
aI-1
aI-1
aI-1
aI-1
aa(lp3703
I-1
aI-1
aI-1
aI-1
aI-1
aI-1
aa(lp3704
I-1
aI-1
aI-1
aI-1
aI-1
aI-1
aa(lp3705
I-1
aI-1
aI-1
aI-1
aI-1
aI-1
aa(lp3706
I-1
aI-1
aI-1
aI-1
aI-1
aI-1
aa(lp3707
I-1
aI-1
aI-1
aI-1
aI-1
aI-1
aa(lp3708
I-1
aI-1
aI-1
aI-1
aI-1
aI-1
aa(lp3709
I-1
aI-1
aI-1
aI-1
aI-1
aI-1
aa(lp3710
I-1
aI-1
aI-1
aI-1
aI-1
aI-1
aa(lp3711
I-1
aI-1
aI-1
aI-1
aI-1
aI-1
aa(lp3712
I-1
aI-1
aI-1
aI-1
aI-1
aI-1
aa(lp3713
I-1
aI-1
aI-1
aI-1
aI-1
aI-1
aa(lp3714
I-1
aI-1
aI-1
aI-1
aI-1
aI-1
aa(lp3715
I-1
aI-1
aI-1
aI-1
aI-1
aI-1
aa(lp3716
I-1
aI-1
aI-1
aI-1
aI-1
aI-1
aa(lp3717
I-1
aI-1
aI-1
aI-1
aI-1
aI-1
aa(lp3718
I-1
aI-1
aI-1
aI-1
aI-1
aI-1
aa(lp3719
I-1
aI-1
aI-1
aI-1
aI-1
aI-1
aa(lp3720
I-1
aI-1
aI-1
aI-1
aI-1
aI-1
aa(lp3721
I-1
aI-1
aI-1
aI-1
aI-1
aI-1
aa(lp3722
I-1
aI-1
aI-1
aI-1
aI-1
aI-1
aa(lp3723
I-1
aI-1
aI-1
aI-1
aI-1
aI-1
aa(lp3724
I-1
aI-1
aI-1
aI-1
aI-1
aI-1
aa(lp3725
I-1
aI-1
aI-1
aI-1
aI-1
aI-1
aa(lp3726
I-1
aI-1
aI-1
aI-1
aI-1
aI-1
aa(lp3727
I-1
aI-1
aI-1
aI-1
aI-1
aI-1
aa(lp3728
I-1
aI-1
aI-1
aI-1
aI-1
aI-1
aa(lp3729
I-1
aI-1
aI-1
aI-1
aI-1
aI-1
aa(lp3730
I-1
aI-1
aI-1
aI-1
aI-1
aI-1
aa(lp3731
I-1
aI-1
aI-1
aI-1
aI-1
aI-1
aa(lp3732
I-1
aI-1
aI-1
aI-1
aI-1
aI-1
aa(lp3733
I-1
aI-1
aI-1
aI-1
aI-1
aI-1
aa(lp3734
I-1
aI-1
aI-1
aI-1
aI-1
aI-1
aa(lp3735
I-1
aI-1
aI-1
aI-1
aI-1
aI-1
aa(lp3736
I-1
aI-1
aI-1
aI-1
aI-1
aI-1
aa(lp3737
I-1
aI-1
aI-1
aI-1
aI-1
aI-1
aa(lp3738
I-1
aI-1
aI-1
aI-1
aI-1
aI-1
aa(lp3739
I-1
aI-1
aI-1
aI-1
aI-1
aI-1
aa(lp3740
I-1
aI-1
aI-1
aI-1
aI-1
aI-1
aa(lp3741
I-1
aI-1
aI-1
aI-1
aI-1
aI-1
aa(lp3742
I-1
aI-1
aI-1
aI-1
aI-1
aI-1
aa(lp3743
I-1
aI-1
aI-1
aI-1
aI-1
aI-1
aa(lp3744
I-1
aI-1
aI-1
aI-1
aI-1
aI-1
aa(lp3745
I-1
aI-1
aI-1
aI-1
aI-1
aI-1
aa(lp3746
I-1
aI-1
aI-1
aI-1
aI-1
aI-1
aa(lp3747
I-1
aI-1
aI-1
aI-1
aI-1
aI-1
aa(lp3748
I-1
aI-1
aI-1
aI-1
aI-1
aI-1
aa(lp3749
I-1
aI-1
aI-1
aI-1
aI-1
aI-1
aa(lp3750
I-1
aI-1
aI-1
aI-1
aI-1
aI-1
aa(lp3751
I-1
aI-1
aI-1
aI-1
aI-1
aI-1
aa(lp3752
I-1
aI-1
aI-1
aI-1
aI-1
aI-1
aa(lp3753
I-1
aI-1
aI-1
aI-1
aI-1
aI-1
aa(lp3754
I-1
aI-1
aI-1
aI-1
aI-1
aI-1
aa(lp3755
I-1
aI-1
aI-1
aI-1
aI-1
aI-1
aa(lp3756
I-1
aI-1
aI-1
aI-1
aI-1
aI-1
aa(lp3757
I-1
aI-1
aI-1
aI-1
aI-1
aI-1
aa(lp3758
I-1
aI-1
aI-1
aI-1
aI-1
aI-1
aa(lp3759
I-1
aI-1
aI-1
aI-1
aI-1
aI-1
aa(lp3760
I-1
aI-1
aI-1
aI-1
aI-1
aI-1
aa(lp3761
I-1
aI-1
aI-1
aI-1
aI-1
aI-1
aa(lp3762
I-1
aI-1
aI-1
aI-1
aI-1
aI-1
aa(lp3763
I-1
aI-1
aI-1
aI-1
aI-1
aI-1
aa(lp3764
I-1
aI-1
aI-1
aI-1
aI-1
aI-1
aa(lp3765
I-1
aI-1
aI-1
aI-1
aI-1
aI-1
aa(lp3766
I-1
aI-1
aI-1
aI-1
aI-1
aI-1
aa(lp3767
I-1
aI-1
aI-1
aI-1
aI-1
aI-1
aa(lp3768
I-1
aI-1
aI-1
aI-1
aI-1
aI-1
aa(lp3769
I-1
aI-1
aI-1
aI-1
aI-1
aI-1
aa(lp3770
I-1
aI-1
aI-1
aI-1
aI-1
aI-1
aa(lp3771
I-1
aI-1
aI-1
aI-1
aI-1
aI-1
aa(lp3772
I-1
aI-1
aI-1
aI-1
aI-1
aI-1
aa(lp3773
I-1
aI-1
aI-1
aI-1
aI-1
aI-1
aa(lp3774
I-1
aI-1
aI-1
aI-1
aI-1
aI-1
aa(lp3775
I-1
aI-1
aI-1
aI-1
aI-1
aI-1
aa(lp3776
I-1
aI-1
aI-1
aI-1
aI-1
aI-1
aa(lp3777
I-1
aI-1
aI-1
aI-1
aI-1
aI-1
aa(lp3778
I-1
aI-1
aI-1
aI-1
aI-1
aI-1
aa(lp3779
I-1
aI-1
aI-1
aI-1
aI-1
aI-1
aa(lp3780
I-1
aI-1
aI-1
aI-1
aI-1
aI-1
aa(lp3781
I-1
aI-1
aI-1
aI-1
aI-1
aI-1
aa(lp3782
I-1
aI-1
aI-1
aI-1
aI-1
aI-1
aa(lp3783
I-1
aI-1
aI-1
aI-1
aI-1
aI-1
aa(lp3784
I-1
aI-1
aI-1
aI-1
aI-1
aI-1
aasS'military'
p3785
(lp3786
(lp3787
I-1
aI-1
aI-1
aI-1
aI-1
aI-1
aa(lp3788
I-1
aI-1
aI-1
aI-1
aI-1
aI-1
aa(lp3789
I-1
aI-1
aI-1
aI-1
aI-1
aI-1
aa(lp3790
I-1
aI-1
aI-1
aI-1
aI-1
aI-1
aa(lp3791
I-1
aI-1
aI-1
aI-1
aI-1
aI-1
aa(lp3792
I-1
aI-1
aI-1
aI-1
aI-1
aI-1
aa(lp3793
I-1
aI-1
aI-1
aI-1
aI-1
aI-1
aa(lp3794
I-1
aI-1
aI-1
aI-1
aI-1
aI-1
aa(lp3795
I-1
aI-1
aI-1
aI-1
aI-1
aI-1
aa(lp3796
I-1
aI-1
aI-1
aI-1
aI-1
aI-1
aa(lp3797
I-1
aI-1
aI-1
aI-1
aI-1
aI-1
aa(lp3798
I-1
aI-1
aI-1
aI-1
aI-1
aI-1
aa(lp3799
I-1
aI-1
aI-1
aI-1
aI-1
aI-1
aa(lp3800
I-1
aI-1
aI-1
aI-1
aI-1
aI-1
aa(lp3801
I-1
aI-1
aI-1
aI-1
aI-1
aI-1
aa(lp3802
I-1
aI-1
aI-1
aI-1
aI-1
aI-1
aa(lp3803
I-1
aI-1
aI-1
aI-1
aI-1
aI-1
aa(lp3804
I-1
aI-1
aI-1
aI-1
aI-1
aI-1
aa(lp3805
I-1
aI-1
aI-1
aI-1
aI-1
aI-1
aa(lp3806
I-1
aI-1
aI-1
aI-1
aI-1
aI-1
aa(lp3807
I-1
aI-1
aI-1
aI-1
aI-1
aI-1
aa(lp3808
I-1
aI-1
aI-1
aI-1
aI-1
aI-1
aa(lp3809
I-1
aI-1
aI-1
aI-1
aI-1
aI-1
aa(lp3810
I-1
aI-1
aI-1
aI-1
aI-1
aI-1
aa(lp3811
I-1
aI-1
aI-1
aI-1
aI-1
aI-1
aa(lp3812
I-1
aI-1
aI-1
aI-1
aI-1
aI-1
aa(lp3813
I-1
aI-1
aI-1
aI-1
aI-1
aI-1
aa(lp3814
I-1
aI-1
aI-1
aI-1
aI-1
aI-1
aa(lp3815
I-1
aI-1
aI-1
aI-1
aI-1
aI-1
aa(lp3816
I-1
aI-1
aI-1
aI-1
aI-1
aI-1
aa(lp3817
I-1
aI-1
aI-1
aI-1
aI-1
aI-1
aa(lp3818
I-1
aI-1
aI-1
aI-1
aI-1
aI-1
aa(lp3819
I-1
aI-1
aI-1
aI-1
aI-1
aI-1
aa(lp3820
I-1
aI-1
aI-1
aI-1
aI-1
aI-1
aa(lp3821
I-1
aI-1
aI-1
aI-1
aI-1
aI-1
aa(lp3822
I-1
aI-1
aI-1
aI-1
aI-1
aI-1
aa(lp3823
I-1
aI-1
aI-1
aI-1
aI-1
aI-1
aa(lp3824
I-1
aI-1
aI-1
aI-1
aI-1
aI-1
aa(lp3825
I-1
aI-1
aI-1
aI-1
aI-1
aI-1
aa(lp3826
I-1
aI-1
aI-1
aI-1
aI-1
aI-1
aa(lp3827
I-1
aI-1
aI-1
aI-1
aI-1
aI-1
aa(lp3828
I-1
aI-1
aI-1
aI-1
aI-1
aI-1
aa(lp3829
I-1
aI-1
aI-1
aI-1
aI-1
aI-1
aa(lp3830
I-1
aI-1
aI-1
aI-1
aI-1
aI-1
aa(lp3831
I-1
aI-1
aI-1
aI-1
aI-1
aI-1
aa(lp3832
I-1
aI-1
aI-1
aI-1
aI-1
aI-1
aa(lp3833
I-1
aI-1
aI-1
aI-1
aI-1
aI-1
aa(lp3834
I-1
aI-1
aI-1
aI-1
aI-1
aI-1
aa(lp3835
I-1
aI-1
aI-1
aI-1
aI-1
aI-1
aa(lp3836
I-1
aI-1
aI-1
aI-1
aI-1
aI-1
aa(lp3837
I-1
aI-1
aI-1
aI-1
aI-1
aI-1
aa(lp3838
I-1
aI-1
aI-1
aI-1
aI-1
aI-1
aa(lp3839
I-1
aI-1
aI-1
aI-1
aI-1
aI-1
aa(lp3840
I-1
aI-1
aI-1
aI-1
aI-1
aI-1
aa(lp3841
I-1
aI-1
aI-1
aI-1
aI-1
aI-1
aa(lp3842
I-1
aI-1
aI-1
aI-1
aI-1
aI-1
aa(lp3843
I-1
aI-1
aI-1
aI-1
aI-1
aI-1
aa(lp3844
I-1
aI-1
aI-1
aI-1
aI-1
aI-1
aa(lp3845
I-1
aI-1
aI-1
aI-1
aI-1
aI-1
aa(lp3846
I-1
aI-1
aI-1
aI-1
aI-1
aI-1
aa(lp3847
I-1
aI-1
aI-1
aI-1
aI-1
aI-1
aa(lp3848
I-1
aI-1
aI-1
aI-1
aI-1
aI-1
aa(lp3849
I-1
aI-1
aI-1
aI-1
aI-1
aI-1
aa(lp3850
I-1
aI-1
aI-1
aI-1
aI-1
aI-1
aa(lp3851
I-1
aI-1
aI-1
aI-1
aI-1
aI-1
aa(lp3852
I-1
aI-1
aI-1
aI-1
aI-1
aI-1
aa(lp3853
I-1
aI-1
aI-1
aI-1
aI-1
aI-1
aa(lp3854
I-1
aI-1
aI-1
aI-1
aI-1
aI-1
aa(lp3855
I-1
aI-1
aI-1
aI-1
aI-1
aI-1
aa(lp3856
I-1
aI-1
aI-1
aI-1
aI-1
aI-1
aa(lp3857
I-1
aI-1
aI-1
aI-1
aI-1
aI-1
aa(lp3858
I-1
aI-1
aI-1
aI-1
aI-1
aI-1
aa(lp3859
I-1
aI-1
aI-1
aI-1
aI-1
aI-1
aa(lp3860
I-1
aI-1
aI-1
aI-1
aI-1
aI-1
aa(lp3861
I-1
aI-1
aI-1
aI-1
aI-1
aI-1
aa(lp3862
I-1
aI-1
aI-1
aI-1
aI-1
aI-1
aa(lp3863
I-1
aI-1
aI-1
aI-1
aI-1
aI-1
aa(lp3864
I-1
aI-1
aI-1
aI-1
aI-1
aI-1
aa(lp3865
I-1
aI-1
aI-1
aI-1
aI-1
aI-1
aa(lp3866
I-1
aI-1
aI-1
aI-1
aI-1
aI-1
aa(lp3867
I-1
aI-1
aI-1
aI-1
aI-1
aI-1
aa(lp3868
I-1
aI-1
aI-1
aI-1
aI-1
aI-1
aa(lp3869
I-1
aI-1
aI-1
aI-1
aI-1
aI-1
aa(lp3870
I-1
aI-1
aI-1
aI-1
aI-1
aI-1
aa(lp3871
I-1
aI-1
aI-1
aI-1
aI-1
aI-1
aa(lp3872
I-1
aI-1
aI-1
aI-1
aI-1
aI-1
aa(lp3873
I-1
aI-1
aI-1
aI-1
aI-1
aI-1
aa(lp3874
I-1
aI-1
aI-1
aI-1
aI-1
aI-1
aa(lp3875
I-1
aI-1
aI-1
aI-1
aI-1
aI-1
aa(lp3876
I-1
aI-1
aI-1
aI-1
aI-1
aI-1
aa(lp3877
I-1
aI-1
aI-1
aI-1
aI-1
aI-1
aa(lp3878
I-1
aI-1
aI-1
aI-1
aI-1
aI-1
aa(lp3879
I-1
aI-1
aI-1
aI-1
aI-1
aI-1
aa(lp3880
I-1
aI-1
aI-1
aI-1
aI-1
aI-1
aa(lp3881
I-1
aI-1
aI-1
aI-1
aI-1
aI-1
aa(lp3882
I-1
aI-1
aI-1
aI-1
aI-1
aI-1
aa(lp3883
I-1
aI-1
aI-1
aI-1
aI-1
aI-1
aa(lp3884
I-1
aI-1
aI-1
aI-1
aI-1
aI-1
aa(lp3885
I-1
aI-1
aI-1
aI-1
aI-1
aI-1
aa(lp3886
I-1
aI-1
aI-1
aI-1
aI-1
aI-1
aa(lp3887
I-1
aI-1
aI-1
aI-1
aI-1
aI-1
aa(lp3888
I-1
aI-1
aI-1
aI-1
aI-1
aI-1
aa(lp3889
I-1
aI-1
aI-1
aI-1
aI-1
aI-1
aa(lp3890
I-1
aI-1
aI-1
aI-1
aI-1
aI-1
aa(lp3891
I-1
aI-1
aI-1
aI-1
aI-1
aI-1
aa(lp3892
I-1
aI-1
aI-1
aI-1
aI-1
aI-1
aa(lp3893
I-1
aI-1
aI-1
aI-1
aI-1
aI-1
aa(lp3894
I-1
aI-1
aI-1
aI-1
aI-1
aI-1
aa(lp3895
I-1
aI-1
aI-1
aI-1
aI-1
aI-1
aa(lp3896
I-1
aI-1
aI-1
aI-1
aI-1
aI-1
aa(lp3897
I-1
aI-1
aI-1
aI-1
aI-1
aI-1
aa(lp3898
I-1
aI-1
aI-1
aI-1
aI-1
aI-1
aa(lp3899
I-1
aI-1
aI-1
aI-1
aI-1
aI-1
aa(lp3900
I-1
aI-1
aI-1
aI-1
aI-1
aI-1
aa(lp3901
I-1
aI-1
aI-1
aI-1
aI-1
aI-1
aa(lp3902
I-1
aI-1
aI-1
aI-1
aI-1
aI-1
aa(lp3903
I-1
aI-1
aI-1
aI-1
aI-1
aI-1
aa(lp3904
I-1
aI-1
aI-1
aI-1
aI-1
aI-1
aa(lp3905
I-1
aI-1
aI-1
aI-1
aI-1
aI-1
aa(lp3906
I-1
aI-1
aI-1
aI-1
aI-1
aI-1
aa(lp3907
I-1
aI-1
aI-1
aI-1
aI-1
aI-1
aa(lp3908
I-1
aI-1
aI-1
aI-1
aI-1
aI-1
aa(lp3909
I-1
aI-1
aI-1
aI-1
aI-1
aI-1
aa(lp3910
I-1
aI-1
aI-1
aI-1
aI-1
aI-1
aa(lp3911
I-1
aI-1
aI-1
aI-1
aI-1
aI-1
aa(lp3912
I-1
aI-1
aI-1
aI-1
aI-1
aI-1
aa(lp3913
I-1
aI-1
aI-1
aI-1
aI-1
aI-1
aa(lp3914
I-1
aI-1
aI-1
aI-1
aI-1
aI-1
aa(lp3915
I-1
aI-1
aI-1
aI-1
aI-1
aI-1
aa(lp3916
I-1
aI-1
aI-1
aI-1
aI-1
aI-1
aa(lp3917
I-1
aI-1
aI-1
aI-1
aI-1
aI-1
aa(lp3918
I-1
aI-1
aI-1
aI-1
aI-1
aI-1
aa(lp3919
I-1
aI-1
aI-1
aI-1
aI-1
aI-1
aa(lp3920
I-1
aI-1
aI-1
aI-1
aI-1
aI-1
aa(lp3921
I-1
aI-1
aI-1
aI-1
aI-1
aI-1
aa(lp3922
I-1
aI-1
aI-1
aI-1
aI-1
aI-1
aa(lp3923
I-1
aI-1
aI-1
aI-1
aI-1
aI-1
aa(lp3924
I-1
aI-1
aI-1
aI-1
aI-1
aI-1
aa(lp3925
I-1
aI-1
aI-1
aI-1
aI-1
aI-1
aa(lp3926
I-1
aI-1
aI-1
aI-1
aI-1
aI-1
aa(lp3927
I-1
aI-1
aI-1
aI-1
aI-1
aI-1
aa(lp3928
I-1
aI-1
aI-1
aI-1
aI-1
aI-1
aa(lp3929
I-1
aI-1
aI-1
aI-1
aI-1
aI-1
aa(lp3930
I-1
aI-1
aI-1
aI-1
aI-1
aI-1
aa(lp3931
I-1
aI-1
aI-1
aI-1
aI-1
aI-1
aa(lp3932
I-1
aI-1
aI-1
aI-1
aI-1
aI-1
aa(lp3933
I-1
aI-1
aI-1
aI-1
aI-1
aI-1
aa(lp3934
I-1
aI-1
aI-1
aI-1
aI-1
aI-1
aa(lp3935
I-1
aI-1
aI-1
aI-1
aI-1
aI-1
aa(lp3936
I-1
aI-1
aI-1
aI-1
aI-1
aI-1
aa(lp3937
I-1
aI-1
aI-1
aI-1
aI-1
aI-1
aa(lp3938
I-1
aI-1
aI-1
aI-1
aI-1
aI-1
aa(lp3939
I-1
aI-1
aI-1
aI-1
aI-1
aI-1
aa(lp3940
I-1
aI-1
aI-1
aI-1
aI-1
aI-1
aa(lp3941
I-1
aI-1
aI-1
aI-1
aI-1
aI-1
aa(lp3942
I-1
aI-1
aI-1
aI-1
aI-1
aI-1
aa(lp3943
I-1
aI-1
aI-1
aI-1
aI-1
aI-1
aa(lp3944
I-1
aI-1
aI-1
aI-1
aI-1
aI-1
aa(lp3945
I-1
aI-1
aI-1
aI-1
aI-1
aI-1
aa(lp3946
I-1
aI-1
aI-1
aI-1
aI-1
aI-1
aa(lp3947
I-1
aI-1
aI-1
aI-1
aI-1
aI-1
aa(lp3948
I-1
aI-1
aI-1
aI-1
aI-1
aI-1
aa(lp3949
I-1
aI-1
aI-1
aI-1
aI-1
aI-1
aa(lp3950
I-1
aI-1
aI-1
aI-1
aI-1
aI-1
aa(lp3951
I-1
aI-1
aI-1
aI-1
aI-1
aI-1
aa(lp3952
I-1
aI-1
aI-1
aI-1
aI-1
aI-1
aa(lp3953
I-1
aI-1
aI-1
aI-1
aI-1
aI-1
aa(lp3954
I-1
aI-1
aI-1
aI-1
aI-1
aI-1
aa(lp3955
I-1
aI-1
aI-1
aI-1
aI-1
aI-1
aa(lp3956
I-1
aI-1
aI-1
aI-1
aI-1
aI-1
aa(lp3957
I-1
aI-1
aI-1
aI-1
aI-1
aI-1
aa(lp3958
I-1
aI-1
aI-1
aI-1
aI-1
aI-1
aa(lp3959
I-1
aI-1
aI-1
aI-1
aI-1
aI-1
aa(lp3960
I-1
aI-1
aI-1
aI-1
aI-1
aI-1
aa(lp3961
I-1
aI-1
aI-1
aI-1
aI-1
aI-1
aa(lp3962
I-1
aI-1
aI-1
aI-1
aI-1
aI-1
aa(lp3963
I-1
aI-1
aI-1
aI-1
aI-1
aI-1
aa(lp3964
I-1
aI-1
aI-1
aI-1
aI-1
aI-1
aa(lp3965
I-1
aI-1
aI-1
aI-1
aI-1
aI-1
aa(lp3966
I-1
aI-1
aI-1
aI-1
aI-1
aI-1
aa(lp3967
I-1
aI-1
aI-1
aI-1
aI-1
aI-1
aa(lp3968
I-1
aI-1
aI-1
aI-1
aI-1
aI-1
aa(lp3969
I-1
aI-1
aI-1
aI-1
aI-1
aI-1
aa(lp3970
I-1
aI-1
aI-1
aI-1
aI-1
aI-1
aa(lp3971
I-1
aI-1
aI-1
aI-1
aI-1
aI-1
aa(lp3972
I-1
aI-1
aI-1
aI-1
aI-1
aI-1
aa(lp3973
I-1
aI-1
aI-1
aI-1
aI-1
aI-1
aa(lp3974
I-1
aI-1
aI-1
aI-1
aI-1
aI-1
aa(lp3975
I-1
aI-1
aI-1
aI-1
aI-1
aI-1
aa(lp3976
I-1
aI-1
aI-1
aI-1
aI-1
aI-1
aa(lp3977
I-1
aI-1
aI-1
aI-1
aI-1
aI-1
aa(lp3978
I-1
aI-1
aI-1
aI-1
aI-1
aI-1
aa(lp3979
I-1
aI-1
aI-1
aI-1
aI-1
aI-1
aa(lp3980
I-1
aI-1
aI-1
aI-1
aI-1
aI-1
aa(lp3981
I-1
aI-1
aI-1
aI-1
aI-1
aI-1
aa(lp3982
I-1
aI-1
aI-1
aI-1
aI-1
aI-1
aa(lp3983
I-1
aI-1
aI-1
aI-1
aI-1
aI-1
aa(lp3984
I-1
aI-1
aI-1
aI-1
aI-1
aI-1
aa(lp3985
I-1
aI-1
aI-1
aI-1
aI-1
aI-1
aa(lp3986
I-1
aI-1
aI-1
aI-1
aI-1
aI-1
aa(lp3987
I-1
aI-1
aI-1
aI-1
aI-1
aI-1
aa(lp3988
I-1
aI-1
aI-1
aI-1
aI-1
aI-1
aa(lp3989
I-1
aI-1
aI-1
aI-1
aI-1
aI-1
aa(lp3990
I-1
aI-1
aI-1
aI-1
aI-1
aI-1
aa(lp3991
I-1
aI-1
aI-1
aI-1
aI-1
aI-1
aa(lp3992
I-1
aI-1
aI-1
aI-1
aI-1
aI-1
aa(lp3993
I-1
aI-1
aI-1
aI-1
aI-1
aI-1
aa(lp3994
I-1
aI-1
aI-1
aI-1
aI-1
aI-1
aa(lp3995
I-1
aI-1
aI-1
aI-1
aI-1
aI-1
aa(lp3996
I-1
aI-1
aI-1
aI-1
aI-1
aI-1
aa(lp3997
I-1
aI-1
aI-1
aI-1
aI-1
aI-1
aa(lp3998
I-1
aI-1
aI-1
aI-1
aI-1
aI-1
aa(lp3999
I-1
aI-1
aI-1
aI-1
aI-1
aI-1
aa(lp4000
I-1
aI-1
aI-1
aI-1
aI-1
aI-1
aa(lp4001
I-1
aI-1
aI-1
aI-1
aI-1
aI-1
aa(lp4002
I-1
aI-1
aI-1
aI-1
aI-1
aI-1
aa(lp4003
I-1
aI-1
aI-1
aI-1
aI-1
aI-1
aa(lp4004
I-1
aI-1
aI-1
aI-1
aI-1
aI-1
aa(lp4005
I-1
aI-1
aI-1
aI-1
aI-1
aI-1
aa(lp4006
I-1
aI-1
aI-1
aI-1
aI-1
aI-1
aa(lp4007
I-1
aI-1
aI-1
aI-1
aI-1
aI-1
aa(lp4008
I-1
aI-1
aI-1
aI-1
aI-1
aI-1
aa(lp4009
I-1
aI-1
aI-1
aI-1
aI-1
aI-1
aa(lp4010
I-1
aI-1
aI-1
aI-1
aI-1
aI-1
aa(lp4011
I-1
aI-1
aI-1
aI-1
aI-1
aI-1
aa(lp4012
I-1
aI-1
aI-1
aI-1
aI-1
aI-1
aa(lp4013
I-1
aI-1
aI-1
aI-1
aI-1
aI-1
aa(lp4014
I-1
aI-1
aI-1
aI-1
aI-1
aI-1
aa(lp4015
I-1
aI-1
aI-1
aI-1
aI-1
aI-1
aa(lp4016
I-1
aI-1
aI-1
aI-1
aI-1
aI-1
aa(lp4017
I-1
aI-1
aI-1
aI-1
aI-1
aI-1
aa(lp4018
I-1
aI-1
aI-1
aI-1
aI-1
aI-1
aa(lp4019
I-1
aI-1
aI-1
aI-1
aI-1
aI-1
aas.