(dp0
S'clipper'
p1
(lp2
(lp3
I2
aI1
aI0
aI3
aI4
aI5
aa(lp4
I8
aI7
aI6
aI9
aI10
aI11
aa(lp5
I2
aI1
aI0
aI3
aI4
aI5
aa(lp6
I2
aI1
aI0
aI3
aI4
aI5
aa(lp7
I2
aI1
aI0
aI3
aI4
aI5
aa(lp8
I14
aI13
aI12
aI15
aI7
aI16
aa(lp9
I14
aI13
aI12
aI15
aI7
aI17
aa(lp10
I14
aI13
aI12
aI15
aI7
aI18
aa(lp11
I20
aI19
aI0
aI21
aI22
aI0
aa(lp12
I24
aI23
aI0
aI25
aI26
aI27
aa(lp13
I30
aI29
aI28
aI31
aI32
aI33
aa(lp14
I14
aI13
aI12
aI15
aI7
aI17
aa(lp15
I23
aI0
aI34
aI35
aI14
aI36
aa(lp16
I39
aI38
aI37
aI15
aI18
aI40
aa(lp17
I8
aI7
aI6
aI9
aI10
aI41
aa(lp18
I14
aI13
aI12
aI15
aI7
aI17
aa(lp19
I43
aI42
aI0
aI15
aI44
aI45
aa(lp20
I2
aI1
aI0
aI3
aI4
aI5
aa(lp21
I37
aI24
aI46
aI47
aI48
aI49
aa(lp22
I43
aI42
aI0
aI15
aI50
aI51
aa(lp23
I14
aI13
aI12
aI15
aI7
aI18
aa(lp24
I14
aI13
aI12
aI15
aI7
aI16
aa(lp25
I14
aI13
aI12
aI15
aI7
aI17
aa(lp26
I37
aI24
aI46
aI47
aI48
aI49
aa(lp27
I2
aI1
aI0
aI3
aI4
aI5
aa(lp28
I12
aI53
aI52
aI54
aI55
aI56
aa(lp29
I58
aI57
aI0
aI59
aI35
aI60
aa(lp30
I14
aI13
aI12
aI15
aI7
aI41
aa(lp31
I63
aI62
aI61
aI64
aI65
aI66
aa(lp32
I8
aI7
aI6
aI9
aI10
aI17
aa(lp33
I8
aI7
aI6
aI9
aI10
aI11
aa(lp34
I14
aI13
aI12
aI15
aI7
aI17
aa(lp35
I14
aI13
aI12
aI15
aI7
aI16
aa(lp36
I67
aI29
aI28
aI68
aI69
aI70
aa(lp37
I14
aI13
aI12
aI15
aI7
aI71
aa(lp38
I37
aI24
aI46
aI47
aI48
aI49
aa(lp39
I14
aI13
aI12
aI15
aI7
aI17
aa(lp40
I8
aI7
aI6
aI9
aI10
aI17
aa(lp41
I37
aI24
aI46
aI47
aI48
aI49
aa(lp42
I73
aI72
aI0
aI15
aI74
aI75
aa(lp43
I14
aI13
aI12
aI15
aI7
aI17
aa(lp44
I24
aI23
aI0
aI25
aI26
aI27
aa(lp45
I2
aI1
aI0
aI3
aI4
aI5
aa(lp46
I14
aI13
aI12
aI15
aI7
aI17
aa(lp47
I14
aI13
aI12
aI15
aI7
aI17
aa(lp48
I14
aI13
aI12
aI15
aI7
aI17
aa(lp49
I24
aI50
aI0
aI76
aI77
aI78
aa(lp50
I37
aI24
aI46
aI47
aI48
aI49
aa(lp51
I79
aI15
aI8
aI80
aI81
aI17
aa(lp52
I14
aI13
aI12
aI15
aI7
aI16
aa(lp53
I8
aI7
aI6
aI9
aI10
aI17
aa(lp54
I14
aI13
aI12
aI15
aI7
aI17
aa(lp55
I37
aI24
aI46
aI47
aI48
aI49
aa(lp56
I83
aI57
aI82
aI84
aI85
aI86
aa(lp57
I87
aI47
aI0
aI54
aI0
aI88
aa(lp58
I37
aI89
aI63
aI90
aI91
aI92
aa(lp59
I30
aI29
aI28
aI31
aI32
aI33
aa(lp60
I12
aI94
aI93
aI15
aI95
aI44
aa(lp61
I97
aI96
aI8
aI98
aI99
aI100
aa(lp62
I101
aI42
aI0
aI15
aI102
aI103
aa(lp63
I37
aI24
aI46
aI47
aI48
aI49
aa(lp64
I8
aI7
aI6
aI9
aI10
aI17
aa(lp65
I14
aI13
aI12
aI15
aI7
aI17
aa(lp66
I24
aI50
aI0
aI76
aI77
aI78
aa(lp67
I14
aI13
aI12
aI15
aI7
aI41
aa(lp68
I21
aI3
aI104
aI15
aI105
aI106
aa(lp69
I2
aI1
aI0
aI3
aI4
aI5
aa(lp70
I24
aI23
aI0
aI25
aI26
aI27
aa(lp71
I2
aI1
aI0
aI3
aI4
aI5
aa(lp72
I14
aI13
aI12
aI15
aI7
aI17
aa(lp73
I14
aI13
aI12
aI15
aI7
aI17
aa(lp74
I14
aI13
aI12
aI15
aI7
aI17
aa(lp75
I30
aI29
aI28
aI31
aI32
aI33
aa(lp76
I21
aI3
aI104
aI15
aI105
aI106
aa(lp77
I14
aI13
aI12
aI15
aI7
aI17
aa(lp78
I37
aI24
aI46
aI47
aI48
aI49
aa(lp79
I107
aI93
aI0
aI108
aI109
aI89
aa(lp80
I8
aI7
aI6
aI9
aI10
aI41
aa(lp81
I2
aI1
aI0
aI3
aI4
aI5
aa(lp82
I14
aI13
aI12
aI15
aI7
aI17
aa(lp83
I37
aI24
aI46
aI47
aI48
aI49
aa(lp84
I14
aI13
aI12
aI15
aI7
aI80
aa(lp85
I99
aI110
aI8
aI98
aI99
aI100
aa(lp86
I14
aI13
aI12
aI15
aI7
aI18
aa(lp87
I58
aI57
aI0
aI59
aI35
aI60
aa(lp88
I14
aI13
aI12
aI15
aI7
aI111
aa(lp89
I37
aI24
aI46
aI47
aI48
aI49
aa(lp90
I44
aI103
aI83
aI112
aI113
aI114
aa(lp91
I115
aI57
aI0
aI15
aI54
aI116
aa(lp92
I14
aI13
aI12
aI15
aI7
aI17
aa(lp93
I8
aI7
aI6
aI9
aI10
aI18
aa(lp94
I20
aI19
aI0
aI21
aI22
aI0
aa(lp95
I87
aI47
aI0
aI54
aI0
aI88
aa(lp96
I37
aI24
aI46
aI47
aI48
aI49
aa(lp97
I14
aI13
aI12
aI15
aI7
aI17
aa(lp98
I14
aI13
aI12
aI15
aI7
aI17
aa(lp99
I37
aI24
aI46
aI47
aI48
aI49
aa(lp100
I118
aI117
aI0
aI15
aI14
aI119
aa(lp101
I8
aI7
aI6
aI9
aI10
aI92
aa(lp102
I3
aI120
aI0
aI15
aI22
aI121
aa(lp103
I24
aI23
aI0
aI25
aI26
aI27
aa(lp104
I66
aI122
aI0
aI15
aI123
aI124
aa(lp105
I125
aI37
aI24
aI15
aI126
aI127
aa(lp106
I14
aI13
aI12
aI15
aI128
aI16
aa(lp107
I43
aI42
aI0
aI15
aI106
aI129
aa(lp108
I14
aI13
aI12
aI15
aI7
aI41
aa(lp109
I3
aI120
aI0
aI15
aI22
aI121
aa(lp110
I8
aI7
aI6
aI9
aI10
aI92
aa(lp111
I8
aI7
aI6
aI9
aI10
aI17
aa(lp112
I37
aI24
aI46
aI47
aI48
aI49
aa(lp113
I14
aI13
aI12
aI15
aI7
aI16
aa(lp114
I8
aI7
aI6
aI9
aI10
aI80
aa(lp115
I14
aI13
aI12
aI15
aI7
aI17
aa(lp116
I14
aI13
aI12
aI15
aI7
aI17
aa(lp117
I8
aI7
aI6
aI9
aI10
aI17
aa(lp118
I24
aI50
aI0
aI76
aI77
aI78
aa(lp119
I8
aI7
aI6
aI9
aI10
aI41
aa(lp120
I14
aI13
aI12
aI15
aI7
aI41
aa(lp121
I14
aI13
aI12
aI15
aI7
aI17
aa(lp122
I131
aI130
aI0
aI15
aI116
aI132
aa(lp123
I8
aI7
aI6
aI9
aI10
aI92
aa(lp124
I133
aI37
aI46
aI47
aI48
aI49
aa(lp125
I37
aI23
aI0
aI25
aI26
aI27
aa(lp126
I14
aI13
aI12
aI15
aI7
aI18
aa(lp127
I24
aI50
aI0
aI76
aI77
aI78
aa(lp128
I118
aI117
aI0
aI15
aI14
aI119
aa(lp129
I14
aI13
aI12
aI15
aI7
aI17
aa(lp130
I14
aI13
aI12
aI15
aI7
aI134
aa(lp131
I14
aI13
aI12
aI15
aI7
aI135
aa(lp132
I2
aI1
aI0
aI3
aI4
aI5
aa(lp133
I14
aI13
aI12
aI15
aI128
aI17
aa(lp134
I118
aI117
aI0
aI15
aI14
aI119
aa(lp135
I2
aI1
aI0
aI3
aI4
aI5
aa(lp136
I2
aI1
aI0
aI3
aI4
aI5
aa(lp137
I8
aI7
aI6
aI9
aI10
aI80
aa(lp138
I14
aI13
aI12
aI15
aI7
aI17
aa(lp139
I14
aI13
aI12
aI15
aI7
aI17
aa(lp140
I136
aI42
aI0
aI15
aI137
aI135
aa(lp141
I8
aI7
aI6
aI9
aI10
aI41
aa(lp142
I24
aI50
aI0
aI76
aI77
aI78
aa(lp143
I14
aI13
aI12
aI15
aI7
aI135
aa(lp144
I14
aI138
aI0
aI139
aI14
aI140
aa(lp145
I136
aI42
aI0
aI15
aI137
aI135
aa(lp146
I8
aI7
aI6
aI9
aI10
aI18
aa(lp147
I67
aI29
aI28
aI68
aI141
aI142
aa(lp148
I144
aI143
aI37
aI15
aI126
aI127
aa(lp149
I87
aI47
aI0
aI54
aI0
aI88
aa(lp150
I14
aI146
aI145
aI8
aI79
aI80
aa(lp151
I14
aI13
aI12
aI15
aI7
aI17
aa(lp152
I2
aI1
aI0
aI3
aI4
aI5
aa(lp153
I14
aI13
aI12
aI15
aI7
aI16
aa(lp154
I147
aI93
aI0
aI148
aI149
aI0
aa(lp155
I147
aI93
aI0
aI148
aI149
aI0
aa(lp156
I8
aI7
aI6
aI9
aI10
aI18
aa(lp157
I2
aI1
aI0
aI3
aI4
aI5
aa(lp158
I14
aI13
aI12
aI15
aI7
aI17
aa(lp159
I2
aI1
aI0
aI3
aI4
aI5
aa(lp160
I152
aI151
aI150
aI153
aI154
aI155
aa(lp161
I14
aI13
aI12
aI15
aI7
aI17
aa(lp162
I2
aI1
aI0
aI3
aI4
aI5
aa(lp163
I3
aI120
aI0
aI15
aI22
aI121
aa(lp164
I37
aI50
aI0
aI76
aI77
aI78
aa(lp165
I3
aI120
aI0
aI15
aI22
aI121
aa(lp166
I8
aI7
aI6
aI9
aI10
aI22
aa(lp167
I157
aI156
aI0
aI15
aI14
aI66
aa(lp168
I64
aI55
aI0
aI158
aI159
aI160
aa(lp169
I14
aI13
aI12
aI15
aI7
aI16
aa(lp170
I14
aI13
aI12
aI15
aI7
aI17
aa(lp171
I8
aI7
aI6
aI9
aI10
aI41
aa(lp172
I161
aI37
aI24
aI15
aI41
aI162
aa(lp173
I163
aI93
aI0
aI15
aI77
aI7
aasS'division'
p174
(lp175
(lp176
I2
aI1
aI0
aI3
aI4
aI5
aa(lp177
I8
aI7
aI6
aI9
aI10
aI11
aa(lp178
I5
aI12
aI7
aI13
aI14
aI15
aa(lp179
I7
aI17
aI16
aI18
aI7
aI19
aa(lp180
I21
aI20
aI7
aI22
aI7
aI23
aa(lp181
I5
aI24
aI7
aI25
aI1
aI26
aa(lp182
I27
aI9
aI7
aI28
aI25
aI29
aa(lp183
I7
aI31
aI30
aI16
aI7
aI32
aa(lp184
I35
aI34
aI33
aI16
aI36
aI37
aa(lp185
I39
aI38
aI7
aI40
aI20
aI13
aa(lp186
I42
aI41
aI7
aI43
aI9
aI44
aa(lp187
I45
aI45
aI33
aI16
aI46
aI47
aa(lp188
I49
aI33
aI48
aI50
aI51
aI52
aa(lp189
I55
aI54
aI53
aI37
aI56
aI57
aa(lp190
I59
aI58
aI7
aI7
aI60
aI18
aa(lp191
I62
aI61
aI33
aI16
aI63
aI64
aa(lp192
I27
aI9
aI7
aI28
aI25
aI29
aa(lp193
I65
aI58
aI33
aI66
aI8
aI67
aa(lp194
I68
aI5
aI7
aI8
aI69
aI40
aa(lp195
I7
aI71
aI70
aI72
aI73
aI74
aa(lp196
I77
aI76
aI75
aI78
aI79
aI80
aa(lp197
I35
aI81
aI33
aI16
aI82
aI83
aa(lp198
I84
aI7
aI44
aI85
aI20
aI13
aa(lp199
I86
aI9
aI7
aI7
aI87
aI88
aa(lp200
I90
aI59
aI89
aI41
aI7
aI91
aa(lp201
I93
aI33
aI92
aI78
aI5
aI94
aa(lp202
I55
aI54
aI53
aI37
aI95
aI57
aa(lp203
I5
aI24
aI33
aI76
aI96
aI97
aa(lp204
I33
aI99
aI98
aI16
aI100
aI101
aa(lp205
I103
aI9
aI102
aI104
aI105
aI106
aa(lp206
I49
aI33
aI48
aI50
aI51
aI52
aa(lp207
I16
aI7
aI107
aI16
aI108
aI109
aa(lp208
I111
aI33
aI110
aI8
aI33
aI112
aa(lp209
I114
aI113
aI33
aI66
aI7
aI115
aa(lp210
I116
aI7
aI44
aI38
aI117
aI118
aa(lp211
I49
aI120
aI119
aI3
aI4
aI5
aa(lp212
I121
aI24
aI119
aI7
aI122
aI8
aa(lp213
I16
aI7
aI123
aI124
aI8
aI125
aa(lp214
I23
aI9
aI119
aI126
aI127
aI128
aa(lp215
I129
aI9
aI102
aI130
aI131
aI132
aa(lp216
I5
aI24
aI33
aI76
aI96
aI97
aa(lp217
I27
aI9
aI7
aI28
aI25
aI29
aa(lp218
I134
aI133
aI33
aI16
aI135
aI136
aa(lp219
I35
aI34
aI33
aI16
aI36
aI37
aa(lp220
I138
aI7
aI137
aI139
aI18
aI140
aa(lp221
I7
aI71
aI70
aI72
aI73
aI74
aa(lp222
I16
aI142
aI141
aI143
aI16
aI144
aa(lp223
I103
aI9
aI102
aI104
aI105
aI106
aa(lp224
I147
aI146
aI145
aI113
aI148
aI149
aa(lp225
I150
aI24
aI7
aI96
aI151
aI152
aa(lp226
I155
aI154
aI153
aI16
aI156
aI157
aa(lp227
I160
aI159
aI158
aI41
aI161
aI162
aa(lp228
I5
aI12
aI7
aI13
aI14
aI15
aa(lp229
I164
aI163
aI7
aI165
aI85
aI166
aa(lp230
I168
aI167
aI39
aI22
aI7
aI169
aa(lp231
I35
aI34
aI33
aI16
aI36
aI37
aa(lp232
I27
aI9
aI7
aI28
aI25
aI29
aa(lp233
I52
aI170
aI7
aI171
aI172
aI16
aa(lp234
I175
aI174
aI173
aI7
aI176
aI23
aa(lp235
I106
aI58
aI7
aI8
aI177
aI178
aa(lp236
I150
aI24
aI7
aI96
aI151
aI152
aa(lp237
I171
aI7
aI44
aI10
aI179
aI180
aa(lp238
I182
aI181
aI7
aI183
aI184
aI5
aa(lp239
I9
aI7
aI185
aI186
aI187
aI117
aa(lp240
I18
aI33
aI188
aI16
aI7
aI189
aa(lp241
I20
aI190
aI105
aI73
aI191
aI9
aa(lp242
I171
aI7
aI44
aI192
aI193
aI194
aa(lp243
I195
aI18
aI33
aI16
aI196
aI197
aa(lp244
I52
aI40
aI33
aI141
aI198
aI136
aa(lp245
I199
aI24
aI7
aI200
aI3
aI201
aa(lp246
I20
aI9
aI119
aI202
aI203
aI204
aa(lp247
I164
aI163
aI7
aI165
aI85
aI166
aa(lp248
I171
aI205
aI9
aI202
aI65
aI206
aa(lp249
I207
aI24
aI7
aI208
aI10
aI209
aa(lp250
I210
aI159
aI7
aI119
aI193
aI211
aa(lp251
I171
aI7
aI44
aI192
aI193
aI194
aa(lp252
I5
aI24
aI33
aI76
aI96
aI97
aa(lp253
I214
aI213
aI212
aI171
aI215
aI216
aa(lp254
I3
aI24
aI7
aI217
aI5
aI7
aa(lp255
I25
aI7
aI218
aI40
aI219
aI186
aa(lp256
I33
aI174
aI173
aI78
aI121
aI93
aa(lp257
I9
aI7
aI220
aI7
aI221
aI222
aa(lp258
I223
aI16
aI102
aI-1
aI-1
aI-1
aa(lp259
I45
aI45
aI33
aI16
aI46
aI47
aa(lp260
I150
aI24
aI7
aI96
aI151
aI152
aa(lp261
I33
aI99
aI98
aI16
aI100
aI101
aa(lp262
I33
aI174
aI173
aI78
aI121
aI93
aa(lp263
I59
aI58
aI7
aI7
aI60
aI18
aa(lp264
I45
aI45
aI33
aI16
aI46
aI47
aa(lp265
I45
aI45
aI33
aI16
aI46
aI47
aa(lp266
I175
aI174
aI173
aI7
aI176
aI23
aa(lp267
I9
aI7
aI224
aI225
aI7
aI226
aa(lp268
I45
aI45
aI33
aI16
aI46
aI47
aa(lp269
I228
aI7
aI227
aI229
aI7
aI230
aa(lp270
I59
aI58
aI7
aI7
aI60
aI18
aa(lp271
I168
aI167
aI39
aI22
aI7
aI169
aa(lp272
I232
aI231
aI110
aI233
aI5
aI234
aa(lp273
I52
aI40
aI33
aI141
aI198
aI136
aa(lp274
I35
aI34
aI33
aI16
aI36
aI235
aa(lp275
I5
aI24
aI7
aI25
aI1
aI26
aa(lp276
I237
aI7
aI236
aI238
aI59
aI239
aa(lp277
I27
aI9
aI7
aI28
aI25
aI29
aa(lp278
I223
aI16
aI105
aI240
aI241
aI105
aa(lp279
I223
aI16
aI7
aI242
aI243
aI244
aa(lp280
I23
aI9
aI102
aI245
aI175
aI246
aa(lp281
I24
aI7
aI247
aI9
aI248
aI192
aa(lp282
I9
aI7
aI185
aI39
aI33
aI249
aa(lp283
I164
aI163
aI7
aI165
aI85
aI166
aa(lp284
I5
aI24
aI33
aI76
aI96
aI97
aa(lp285
I7
aI251
aI250
aI9
aI248
aI252
aa(lp286
I27
aI9
aI7
aI28
aI25
aI29
aa(lp287
I23
aI9
aI102
aI245
aI175
aI246
aa(lp288
I39
aI253
aI9
aI254
aI16
aI119
aa(lp289
I9
aI7
aI255
aI8
aI256
aI23
aa(lp290
I45
aI45
aI33
aI16
aI46
aI47
aa(lp291
I214
aI213
aI212
aI171
aI215
aI216
aa(lp292
I35
aI34
aI33
aI16
aI36
aI37
aa(lp293
I106
aI58
aI7
aI73
aI33
aI257
aa(lp294
I168
aI18
aI258
aI259
aI7
aI260
aa(lp295
I258
aI7
aI261
aI133
aI262
aI7
aasS'israeli'
p296
(lp297
(lp298
I2
aI1
aI0
aI3
aI4
aI5
aa(lp299
I8
aI7
aI6
aI3
aI9
aI10
aa(lp300
I12
aI11
aI0
aI13
aI14
aI15
aa(lp301
I12
aI11
aI0
aI13
aI14
aI15
aa(lp302
I18
aI17
aI16
aI19
aI5
aI17
aa(lp303
I8
aI7
aI6
aI3
aI9
aI10
aa(lp304
I21
aI20
aI14
aI22
aI5
aI23
aa(lp305
I24
aI7
aI6
aI3
aI9
aI10
aa(lp306
I17
aI26
aI25
aI27
aI5
aI17
aa(lp307
I18
aI17
aI16
aI19
aI5
aI17
aa(lp308
I18
aI17
aI16
aI19
aI5
aI17
aa(lp309
I24
aI7
aI6
aI3
aI9
aI10
aa(lp310
I24
aI7
aI6
aI3
aI9
aI10
aa(lp311
I24
aI7
aI6
aI3
aI28
aI0
aa(lp312
I24
aI7
aI6
aI3
aI9
aI10
aa(lp313
I18
aI17
aI16
aI19
aI5
aI17
aa(lp314
I24
aI7
aI6
aI3
aI9
aI10
aa(lp315
I31
aI30
aI29
aI3
aI5
aI32
aasS'government'
p316
(lp317
(lp318
I2
aI1
aI0
aI3
aI4
aI5
aa(lp319
I7
aI6
aI0
aI8
aI0
aI9
aa(lp320
I12
aI11
aI10
aI13
aI0
aI14
aa(lp321
I16
aI15
aI0
aI17
aI0
aI18
aa(lp322
I20
aI19
aI0
aI1
aI21
aI22
aa(lp323
I24
aI15
aI23
aI25
aI26
aI27
aa(lp324
I2
aI1
aI0
aI3
aI4
aI5
aa(lp325
I29
aI28
aI0
aI30
aI31
aI32
aa(lp326
I34
aI33
aI0
aI35
aI36
aI37
aa(lp327
I38
aI32
aI0
aI27
aI39
aI40
aa(lp328
I38
aI42
aI41
aI43
aI31
aI44
aa(lp329
I46
aI45
aI19
aI47
aI48
aI20
aa(lp330
I50
aI49
aI28
aI20
aI51
aI52
aa(lp331
I54
aI1
aI53
aI55
aI56
aI0
aa(lp332
I58
aI0
aI57
aI59
aI60
aI61
aa(lp333
I64
aI63
aI62
aI65
aI66
aI67
aa(lp334
I12
aI11
aI10
aI13
aI0
aI14
aa(lp335
I69
aI0
aI68
aI7
aI6
aI0
aa(lp336
I32
aI0
aI70
aI55
aI27
aI71
aa(lp337
I73
aI55
aI72
aI74
aI75
aI62
aa(lp338
I77
aI76
aI0
aI1
aI78
aI17
aa(lp339
I19
aI0
aI68
aI62
aI79
aI55
aa(lp340
I81
aI15
aI80
aI65
aI15
aI82
aa(lp341
I15
aI83
aI19
aI84
aI0
aI85
aa(lp342
I38
aI86
aI0
aI55
aI87
aI88
aa(lp343
I90
aI89
aI0
aI91
aI92
aI0
aa(lp344
I1
aI94
aI93
aI62
aI95
aI19
aa(lp345
I2
aI1
aI0
aI96
aI97
aI98
aa(lp346
I19
aI0
aI68
aI32
aI0
aI99
aa(lp347
I102
aI101
aI100
aI103
aI104
aI105
aa(lp348
I0
aI11
aI10
aI91
aI79
aI55
aa(lp349
I108
aI107
aI106
aI66
aI109
aI110
aa(lp350
I95
aI89
aI28
aI111
aI87
aI112
aa(lp351
I114
aI0
aI113
aI115
aI66
aI116
aa(lp352
I108
aI107
aI106
aI66
aI109
aI110
aa(lp353
I118
aI117
aI0
aI119
aI120
aI121
aa(lp354
I122
aI35
aI0
aI101
aI123
aI43
aa(lp355
I125
aI106
aI124
aI43
aI87
aI126
aa(lp356
I127
aI89
aI0
aI128
aI66
aI129
aa(lp357
I19
aI0
aI113
aI130
aI131
aI15
aa(lp358
I1
aI0
aI70
aI132
aI133
aI134
aa(lp359
I135
aI33
aI106
aI65
aI52
aI136
aa(lp360
I131
aI0
aI113
aI137
aI106
aI138
aa(lp361
I139
aI33
aI0
aI140
aI141
aI0
aa(lp362
I142
aI0
aI57
aI140
aI143
aI144
aa(lp363
I1
aI145
aI35
aI15
aI146
aI15
aa(lp364
I147
aI42
aI0
aI148
aI0
aI149
aa(lp365
I152
aI151
aI150
aI153
aI55
aI87
aa(lp366
I154
aI33
aI0
aI140
aI141
aI0
aa(lp367
I29
aI28
aI0
aI30
aI31
aI32
aa(lp368
I1
aI0
aI57
aI66
aI103
aI155
aa(lp369
I35
aI156
aI0
aI7
aI87
aI157
aa(lp370
I20
aI159
aI158
aI2
aI160
aI106
aa(lp371
I162
aI161
aI68
aI91
aI163
aI15
aa(lp372
I52
aI164
aI52
aI165
aI166
aI167
aa(lp373
I35
aI0
aI168
aI169
aI55
aI41
aa(lp374
I38
aI170
aI125
aI33
aI171
aI172
aa(lp375
I175
aI174
aI173
aI42
aI20
aI176
aa(lp376
I16
aI20
aI177
aI178
aI15
aI179
aa(lp377
I9
aI15
aI180
aI181
aI15
aI182
aa(lp378
I183
aI1
aI0
aI89
aI184
aI185
aa(lp379
I14
aI89
aI0
aI91
aI186
aI187
aa(lp380
I189
aI188
aI0
aI190
aI61
aI89
aa(lp381
I191
aI11
aI10
aI192
aI31
aI32
aa(lp382
I193
aI142
aI70
aI194
aI195
aI196
aa(lp383
I198
aI0
aI197
aI199
aI200
aI201
aa(lp384
I202
aI106
aI191
aI1
aI62
aI203
aa(lp385
I204
aI32
aI0
aI55
aI205
aI106
aa(lp386
I1
aI206
aI80
aI80
aI207
aI32
aa(lp387
I91
aI208
aI19
aI15
aI17
aI209
aa(lp388
I211
aI0
aI210
aI212
aI20
aI213
aa(lp389
I129
aI1
aI214
aI66
aI91
aI38
aa(lp390
I216
aI0
aI215
aI217
aI23
aI218
aa(lp391
I58
aI77
aI219
aI17
aI220
aI89
aa(lp392
I221
aI29
aI0
aI105
aI222
aI223
aa(lp393
I224
aI1
aI0
aI225
aI105
aI226
aa(lp394
I227
aI1
aI0
aI228
aI229
aI155
aa(lp395
I231
aI230
aI0
aI144
aI232
aI35
aa(lp396
I233
aI23
aI0
aI52
aI0
aI234
aa(lp397
I235
aI20
aI0
aI236
aI33
aI237
aa(lp398
I87
aI238
aI91
aI239
aI15
aI240
aa(lp399
I55
aI6
aI0
aI241
aI49
aI66
aa(lp400
I15
aI0
aI57
aI91
aI242
aI243
aa(lp401
I244
aI229
aI0
aI17
aI245
aI1
aa(lp402
I246
aI91
aI0
aI26
aI247
aI229
aa(lp403
I248
aI2
aI15
aI249
aI0
aI250
aa(lp404
I1
aI0
aI57
aI91
aI55
aI251
aa(lp405
I36
aI19
aI0
aI252
aI27
aI61
aa(lp406
I73
aI0
aI57
aI55
aI253
aI23
aa(lp407
I42
aI254
aI57
aI255
aI77
aI256
aa(lp408
I258
aI188
aI257
aI259
aI146
aI15
aa(lp409
I202
aI260
aI0
aI261
aI262
aI263
aa(lp410
I264
aI1
aI0
aI265
aI266
aI91
aa(lp411
I268
aI120
aI267
aI269
aI270
aI15
aa(lp412
I271
aI3
aI32
aI272
aI273
aI188
aa(lp413
I108
aI107
aI106
aI66
aI109
aI110
aa(lp414
I274
aI1
aI0
aI120
aI275
aI276
aa(lp415
I277
aI202
aI63
aI278
aI279
aI280
aa(lp416
I281
aI55
aI0
aI15
aI282
aI127
aa(lp417
I283
aI0
aI168
aI284
aI285
aI1
aa(lp418
I66
aI35
aI0
aI123
aI223
aI286
aa(lp419
I1
aI0
aI113
aI19
aI287
aI0
aa(lp420
I288
aI62
aI37
aI65
aI17
aI62
aa(lp421
I9
aI33
aI37
aI289
aI55
aI6
aa(lp422
I290
aI42
aI0
aI291
aI292
aI120
aa(lp423
I293
aI19
aI0
aI15
aI294
aI19
aa(lp424
I295
aI291
aI41
aI7
aI143
aI152
aa(lp425
I29
aI297
aI296
aI272
aI298
aI15
aa(lp426
I87
aI42
aI0
aI19
aI0
aI221
aa(lp427
I300
aI66
aI299
aI65
aI301
aI302
aa(lp428
I35
aI156
aI0
aI7
aI87
aI157
aa(lp429
I30
aI304
aI303
aI2
aI171
aI123
aa(lp430
I305
aI0
aI10
aI265
aI89
aI0
aa(lp431
I15
aI307
aI306
aI308
aI17
aI63
aa(lp432
I19
aI0
aI309
aI15
aI310
aI89
aa(lp433
I20
aI311
aI0
aI17
aI312
aI313
aa(lp434
I15
aI89
aI0
aI91
aI314
aI1
aa(lp435
I39
aI89
aI0
aI190
aI57
aI91
aa(lp436
I315
aI7
aI0
aI316
aI55
aI317
aa(lp437
I89
aI292
aI0
aI318
aI106
aI319
aa(lp438
I0
aI320
aI1
aI15
aI321
aI106
aa(lp439
I41
aI117
aI322
aI0
aI323
aI91
aa(lp440
I265
aI161
aI68
aI91
aI163
aI15
aa(lp441
I252
aI63
aI324
aI325
aI15
aI326
aa(lp442
I327
aI1
aI0
aI103
aI38
aI89
aa(lp443
I277
aI202
aI63
aI278
aI279
aI280
aa(lp444
I328
aI1
aI0
aI329
aI0
aI330
aa(lp445
I331
aI116
aI0
aI292
aI0
aI332
aa(lp446
I188
aI106
aI333
aI35
aI0
aI334
aa(lp447
I336
aI335
aI0
aI188
aI55
aI326
aa(lp448
I337
aI326
aI0
aI35
aI338
aI339
aa(lp449
I0
aI11
aI10
aI340
aI341
aI125
aa(lp450
I41
aI342
aI15
aI63
aI116
aI343
aa(lp451
I315
aI7
aI0
aI316
aI55
aI317
aa(lp452
I345
aI0
aI344
aI91
aI38
aI346
aa(lp453
I106
aI347
aI228
aI89
aI106
aI51
aa(lp454
I125
aI0
aI70
aI20
aI348
aI120
aa(lp455
I41
aI117
aI322
aI349
aI350
aI351
aa(lp456
I288
aI62
aI37
aI65
aI17
aI62
aa(lp457
I16
aI66
aI292
aI352
aI353
aI123
aa(lp458
I354
aI0
aI57
aI33
aI0
aI355
aa(lp459
I89
aI0
aI113
aI103
aI106
aI159
aa(lp460
I356
aI0
aI68
aI357
aI66
aI358
aa(lp461
I108
aI107
aI106
aI66
aI109
aI110
aa(lp462
I19
aI0
aI68
aI32
aI0
aI99
aa(lp463
I360
aI359
aI125
aI33
aI361
aI52
aa(lp464
I362
aI42
aI0
aI363
aI23
aI120
aa(lp465
I366
aI365
aI364
aI367
aI15
aI368
aa(lp466
I370
aI369
aI1
aI305
aI15
aI239
aa(lp467
I371
aI202
aI0
aI291
aI372
aI66
aa(lp468
I175
aI174
aI173
aI42
aI20
aI176
aa(lp469
I312
aI0
aI68
aI91
aI152
aI373
aa(lp470
I374
aI0
aI197
aI375
aI94
aI376
aa(lp471
I362
aI42
aI0
aI363
aI23
aI120
aa(lp472
I244
aI229
aI0
aI17
aI245
aI1
aa(lp473
I125
aI106
aI124
aI43
aI87
aI126
aa(lp474
I378
aI377
aI0
aI379
aI74
aI380
aa(lp475
I202
aI260
aI0
aI261
aI262
aI263
aa(lp476
I36
aI19
aI0
aI252
aI27
aI61
aa(lp477
I354
aI0
aI57
aI33
aI0
aI355
aa(lp478
I381
aI89
aI0
aI382
aI91
aI383
aa(lp479
I0
aI291
aI333
aI42
aI61
aI7
aa(lp480
I384
aI1
aI383
aI4
aI385
aI15
aa(lp481
I386
aI32
aI0
aI387
aI91
aI388
aa(lp482
I389
aI89
aI0
aI91
aI390
aI391
aa(lp483
I202
aI106
aI191
aI1
aI62
aI203
aa(lp484
I392
aI0
aI70
aI7
aI87
aI7
aa(lp485
I393
aI1
aI62
aI65
aI229
aI394
aa(lp486
I315
aI7
aI0
aI316
aI55
aI317
aa(lp487
I0
aI325
aI1
aI38
aI55
aI395
aa(lp488
I0
aI396
aI1
aI275
aI87
aI55
aa(lp489
I397
aI23
aI0
aI42
aI30
aI223
aa(lp490
I398
aI161
aI68
aI91
aI163
aI15
aa(lp491
I27
aI125
aI0
aI399
aI42
aI32
aa(lp492
I58
aI0
aI57
aI59
aI60
aI61
aa(lp493
I247
aI401
aI400
aI402
aI91
aI403
aa(lp494
I405
aI106
aI404
aI406
aI1
aI106
aa(lp495
I77
aI0
aI407
aI17
aI408
aI409
aa(lp496
I410
aI377
aI0
aI17
aI57
aI23
aa(lp497
I412
aI411
aI0
aI52
aI106
aI413
aa(lp498
I414
aI1
aI0
aI91
aI281
aI0
aa(lp499
I392
aI0
aI70
aI7
aI87
aI7
aa(lp500
I123
aI415
aI0
aI349
aI350
aI123
aa(lp501
I0
aI291
aI333
aI42
aI61
aI7
aa(lp502
I416
aI23
aI0
aI417
aI418
aI343
aa(lp503
I419
aI42
aI0
aI420
aI421
aI55
aa(lp504
I423
aI0
aI422
aI424
aI425
aI174
aa(lp505
I66
aI427
aI426
aI428
aI30
aI223
aa(lp506
I429
aI429
aI0
aI430
aI431
aI66
aa(lp507
I392
aI0
aI70
aI7
aI87
aI7
aa(lp508
I91
aI432
aI55
aI433
aI434
aI435
aa(lp509
I437
aI436
aI0
aI55
aI27
aI15
aa(lp510
I1
aI0
aI68
aI123
aI438
aI439
aa(lp511
I0
aI441
aI440
aI103
aI442
aI20
aa(lp512
I252
aI335
aI0
aI443
aI202
aI18
aa(lp513
I445
aI444
aI77
aI446
aI59
aI4
aa(lp514
I448
aI447
aI0
aI437
aI67
aI55
aa(lp515
I193
aI142
aI70
aI194
aI195
aI196
aa(lp516
I224
aI1
aI41
aI15
aI30
aI449
aa(lp517
I91
aI208
aI19
aI15
aI17
aI209
aa(lp518
I34
aI33
aI0
aI35
aI36
aI37
aa(lp519
I27
aI247
aI0
aI335
aI450
aI451
aa(lp520
I55
aI452
aI89
aI91
aI20
aI0
aa(lp521
I1
aI206
aI80
aI80
aI207
aI32
aa(lp522
I453
aI1
aI41
aI454
aI455
aI456
aa(lp523
I20
aI0
aI457
aI15
aI458
aI146
aa(lp524
I459
aI89
aI0
aI372
aI94
aI14
aa(lp525
I325
aI66
aI6
aI55
aI460
aI118
aa(lp526
I461
aI0
aI168
aI55
aI462
aI463
aa(lp527
I108
aI107
aI106
aI66
aI109
aI110
aa(lp528
I0
aI464
aI361
aI465
aI27
aI38
aa(lp529
I25
aI33
aI466
aI432
aI55
aI210
aa(lp530
I55
aI467
aI23
aI468
aI17
aI312
aa(lp531
I470
aI0
aI469
aI17
aI106
aI258
aa(lp532
I415
aI472
aI471
aI20
aI473
aI474
aa(lp533
I73
aI0
aI57
aI55
aI253
aI23
aa(lp534
I476
aI475
aI444
aI382
aI477
aI478
aa(lp535
I480
aI479
aI0
aI242
aI66
aI481
aa(lp536
I66
aI91
aI259
aI258
aI55
aI482
aa(lp537
I483
aI1
aI0
aI15
aI150
aI0
aa(lp538
I12
aI11
aI10
aI13
aI0
aI14
aa(lp539
I14
aI1
aI0
aI55
aI484
aI66
aa(lp540
I485
aI19
aI0
aI101
aI486
aI487
aa(lp541
I488
aI42
aI0
aI489
aI490
aI491
aa(lp542
I192
aI188
aI346
aI449
aI1
aI0
aa(lp543
I37
aI492
aI1
aI55
aI175
aI55
aa(lp544
I305
aI493
aI89
aI494
aI495
aI243
aa(lp545
I392
aI0
aI70
aI7
aI87
aI7
aa(lp546
I496
aI33
aI20
aI33
aI20
aI497
aa(lp547
I499
aI0
aI498
aI55
aI500
aI126
aa(lp548
I502
aI0
aI501
aI1
aI503
aI504
aa(lp549
I61
aI229
aI106
aI505
aI506
aI507
aa(lp550
I509
aI0
aI508
aI61
aI116
aI3
aa(lp551
I511
aI510
aI0
aI116
aI512
aI513
aa(lp552
I449
aI0
aI514
aI199
aI515
aI243
aa(lp553
I0
aI516
aI1
aI517
aI91
aI89
aa(lp554
I89
aI106
aI383
aI7
aI518
aI349
aa(lp555
I125
aI0
aI519
aI520
aI0
aI361
aa(lp556
I19
aI0
aI68
aI1
aI521
aI522
aa(lp557
I19
aI0
aI309
aI15
aI310
aI89
aa(lp558
I89
aI0
aI197
aI523
aI20
aI53
aa(lp559
I49
aI0
aI309
aI524
aI89
aI66
aa(lp560
I193
aI142
aI70
aI194
aI195
aI196
aa(lp561
I526
aI259
aI525
aI66
aI140
aI26
aa(lp562
I528
aI527
aI0
aI89
aI296
aI529
aa(lp563
I362
aI42
aI0
aI363
aI23
aI120
aa(lp564
I3
aI530
aI0
aI265
aI66
aI531
aa(lp565
I1
aI106
aI466
aI382
aI20
aI532
aa(lp566
I445
aI444
aI77
aI446
aI59
aI4
aa(lp567
I1
aI0
aI57
aI335
aI289
aI55
aa(lp568
I122
aI35
aI0
aI101
aI123
aI43
aa(lp569
I94
aI325
aI1
aI42
aI120
aI91
aa(lp570
I410
aI377
aI0
aI17
aI57
aI23
aa(lp571
I452
aI89
aI0
aI7
aI27
aI66
aa(lp572
I1
aI126
aI481
aI105
aI229
aI533
aa(lp573
I383
aI15
aI534
aI229
aI38
aI535
aa(lp574
I40
aI89
aI0
aI405
aI536
aI23
aa(lp575
I290
aI42
aI0
aI291
aI292
aI120
aa(lp576
I276
aI203
aI1
aI32
aI537
aI538
aa(lp577
I89
aI0
aI70
aI140
aI539
aI106
aa(lp578
I91
aI540
aI70
aI116
aI15
aI7
aa(lp579
I541
aI155
aI94
aI325
aI55
aI542
aa(lp580
I544
aI15
aI543
aI61
aI43
aI38
aa(lp581
I349
aI545
aI55
aI546
aI547
aI285
aa(lp582
I0
aI179
aI548
aI91
aI400
aI549
aa(lp583
I100
aI1
aI2
aI65
aI229
aI550
aa(lp584
I49
aI0
aI309
aI116
aI518
aI205
aa(lp585
I1
aI0
aI70
aI20
aI34
aI0
aa(lp586
I389
aI551
aI0
aI552
aI553
aI20
aa(lp587
I62
aI1
aI0
aI554
aI89
aI555
aa(lp588
I557
aI556
aI1
aI557
aI558
aI20
aa(lp589
I89
aI0
aI57
aI67
aI55
aI87
aa(lp590
I336
aI437
aI0
aI26
aI87
aI106
aa(lp591
I290
aI42
aI0
aI291
aI292
aI120
aa(lp592
I559
aI66
aI0
aI89
aI427
aI106
aa(lp593
I61
aI560
aI68
aI561
aI32
aI327
aa(lp594
I562
aI19
aI0
aI563
aI564
aI43
aa(lp595
I63
aI15
aI0
aI335
aI8
aI565
aa(lp596
I19
aI0
aI68
aI62
aI79
aI55
aa(lp597
I566
aI202
aI0
aI91
aI55
aI87
aa(lp598
I488
aI42
aI0
aI489
aI490
aI491
aa(lp599
I568
aI0
aI567
aI215
aI20
aI473
aa(lp600
I61
aI229
aI106
aI505
aI506
aI507
aa(lp601
I258
aI188
aI257
aI259
aI146
aI15
aa(lp602
I1
aI0
aI113
aI19
aI287
aI0
aa(lp603
I290
aI42
aI0
aI291
aI292
aI120
aa(lp604
I15
aI83
aI19
aI84
aI0
aI85
aa(lp605
I290
aI42
aI0
aI291
aI292
aI120
aa(lp606
I1
aI214
aI0
aI1
aI214
aI0
aa(lp607
I356
aI0
aI68
aI357
aI66
aI358
aa(lp608
I150
aI41
aI569
aI570
aI571
aI572
aa(lp609
I445
aI444
aI77
aI446
aI59
aI4
aa(lp610
I339
aI573
aI1
aI574
aI575
aI576
aa(lp611
I356
aI0
aI68
aI357
aI66
aI358
aa(lp612
I336
aI0
aI57
aI577
aI86
aI55
aa(lp613
I41
aI563
aI15
aI578
aI77
aI579
aa(lp614
I106
aI110
aI33
aI65
aI89
aI43
aa(lp615
I450
aI580
aI1
aI345
aI105
aI4
aa(lp616
I1
aI581
aI15
aI65
aI582
aI55
aa(lp617
I290
aI42
aI0
aI291
aI292
aI120
aa(lp618
I0
aI583
aI15
aI91
aI121
aI584
aa(lp619
I1
aI585
aI534
aI586
aI587
aI15
aa(lp620
I589
aI1
aI588
aI65
aI20
aI590
aa(lp621
I19
aI0
aI53
aI259
aI591
aI19
aa(lp622
I209
aI18
aI20
aI592
aI321
aI43
aa(lp623
I408
aI0
aI57
aI419
aI593
aI336
aa(lp624
I32
aI452
aI0
aI505
aI209
aI594
aa(lp625
I55
aI29
aI41
aI15
aI595
aI596
aa(lp626
I55
aI27
aI125
aI258
aI597
aI598
aa(lp627
I546
aI11
aI10
aI43
aI27
aI89
aa(lp628
I489
aI0
aI168
aI66
aI215
aI272
aa(lp629
I290
aI42
aI0
aI291
aI292
aI120
aa(lp630
I599
aI518
aI19
aI111
aI42
aI120
aa(lp631
I20
aI0
aI600
aI252
aI601
aI105
aa(lp632
I602
aI52
aI106
aI215
aI603
aI353
aa(lp633
I404
aI203
aI1
aI229
aI604
aI15
aa(lp634
I246
aI518
aI229
aI65
aI285
aI1
aa(lp635
I389
aI89
aI0
aI93
aI106
aI605
aa(lp636
I606
aI199
aI0
aI382
aI106
aI607
aa(lp637
I392
aI0
aI70
aI7
aI87
aI7
aa(lp638
I35
aI0
aI57
aI19
aI205
aI89
aa(lp639
I609
aI608
aI0
aI55
aI610
aI59
aa(lp640
I38
aI86
aI0
aI55
aI87
aI88
aa(lp641
I61
aI229
aI106
aI505
aI506
aI507
aa(lp642
I32
aI611
aI0
aI1
aI0
aI142
aa(lp643
I281
aI0
aI70
aI335
aI38
aI38
aa(lp644
I0
aI612
aI1
aI0
aI613
aI9
aa(lp645
I0
aI441
aI440
aI55
aI614
aI557
aa(lp646
I416
aI23
aI0
aI417
aI66
aI91
aa(lp647
I91
aI208
aI19
aI15
aI17
aI209
aa(lp648
I488
aI39
aI0
aI335
aI91
aI24
aa(lp649
I247
aI91
aI0
aI27
aI125
aI615
aa(lp650
I336
aI0
aI57
aI577
aI86
aI55
aa(lp651
I462
aI616
aI106
aI1
aI617
aI618
aa(lp652
I619
aI15
aI0
aI0
aI620
aI621
aa(lp653
I622
aI0
aI469
aI137
aI623
aI624
aa(lp654
I123
aI389
aI120
aI17
aI66
aI625
aa(lp655
I627
aI12
aI626
aI628
aI55
aI629
aa(lp656
I631
aI630
aI106
aI89
aI116
aI632
aa(lp657
I271
aI3
aI32
aI272
aI273
aI188
aa(lp658
I15
aI633
aI20
aI33
aI27
aI61
aa(lp659
I635
aI123
aI634
aI636
aI428
aI-1
aa(lp660
I638
aI637
aI19
aI48
aI639
aI640
aa(lp661
I209
aI18
aI20
aI592
aI321
aI43
aa(lp662
I642
aI19
aI641
aI15
aI194
aI643
aa(lp663
I258
aI188
aI257
aI259
aI146
aI15
aa(lp664
I277
aI202
aI63
aI278
aI279
aI280
aa(lp665
I528
aI527
aI0
aI89
aI296
aI529
aa(lp666
I131
aI0
aI113
aI137
aI106
aI138
aa(lp667
I644
aI49
aI0
aI124
aI55
aI251
aa(lp668
I646
aI645
aI400
aI317
aI647
aI648
aa(lp669
I381
aI89
aI0
aI382
aI91
aI383
aa(lp670
I259
aI649
aI20
aI650
aI651
aI123
aa(lp671
I216
aI0
aI215
aI217
aI23
aI218
aa(lp672
I1
aI214
aI0
aI1
aI214
aI0
aa(lp673
I91
aI42
aI0
aI1
aI0
aI652
aa(lp674
I77
aI123
aI219
aI17
aI220
aI89
aa(lp675
I336
aI437
aI0
aI26
aI87
aI106
aa(lp676
I653
aI89
aI0
aI275
aI654
aI66
aa(lp677
I193
aI142
aI70
aI194
aI195
aI196
aa(lp678
I656
aI105
aI655
aI657
aI15
aI658
aa(lp679
I599
aI518
aI19
aI111
aI42
aI120
aa(lp680
I233
aI23
aI0
aI52
aI0
aI234
aa(lp681
I659
aI1
aI106
aI65
aI268
aI126
aa(lp682
I82
aI660
aI125
aI661
aI662
aI123
aa(lp683
I664
aI663
aI0
aI91
aI665
aI666
aa(lp684
I258
aI188
aI257
aI259
aI146
aI15
aa(lp685
I14
aI41
aI667
aI43
aI486
aI521
aa(lp686
I19
aI0
aI68
aI62
aI79
aI55
aa(lp687
I1
aI0
aI113
aI126
aI10
aI668
aa(lp688
I669
aI35
aI0
aI581
aI670
aI292
aa(lp689
I243
aI55
aI0
aI150
aI28
aI671
aa(lp690
I259
aI649
aI20
aI672
aI651
aI-1
aa(lp691
I612
aI0
aI57
aI55
aI673
aI674
aa(lp692
I675
aI72
aI0
aI7
aI676
aI37
aa(lp693
I259
aI106
aI677
aI678
aI679
aI275
aa(lp694
I189
aI188
aI0
aI190
aI61
aI89
aa(lp695
I61
aI229
aI106
aI505
aI506
aI507
aa(lp696
I681
aI680
aI125
aI612
aI682
aI683
aa(lp697
I89
aI0
aI383
aI105
aI684
aI335
aa(lp698
I252
aI116
aI0
aI190
aI202
aI671
aa(lp699
I386
aI32
aI0
aI387
aI91
aI388
aa(lp700
I315
aI274
aI0
aI150
aI177
aI685
aa(lp701
I686
aI638
aI538
aI215
aI188
aI687
aa(lp702
I381
aI89
aI0
aI382
aI91
aI383
aa(lp703
I389
aI551
aI0
aI552
aI553
aI20
aa(lp704
I193
aI142
aI70
aI194
aI195
aI196
aa(lp705
I42
aI254
aI57
aI255
aI77
aI256
aa(lp706
I655
aI35
aI0
aI15
aI655
aI517
aa(lp707
I688
aI125
aI94
aI496
aI15
aI223
aa(lp708
I1
aI247
aI0
aI265
aI15
aI336
aa(lp709
I690
aI106
aI689
aI15
aI66
aI43
aa(lp710
I0
aI691
aI1
aI610
aI7
aI675
aa(lp711
I19
aI0
aI68
aI32
aI0
aI99
aa(lp712
I203
aI106
aI267
aI89
aI270
aI15
aa(lp713
I193
aI194
aI195
aI196
aI526
aI692
aa(lp714
I693
aI15
aI0
aI353
aI30
aI417
aa(lp715
I694
aI130
aI53
aI15
aI89
aI1
aa(lp716
I244
aI229
aI0
aI17
aI245
aI1
aa(lp717
I1
aI0
aI113
aI19
aI287
aI0
aa(lp718
I159
aI89
aI0
aI140
aI38
aI451
aa(lp719
I264
aI0
aI53
aI116
aI695
aI120
aa(lp720
I35
aI0
aI546
aI1
aI11
aI696
aa(lp721
I19
aI0
aI68
aI1
aI521
aI522
aa(lp722
I468
aI19
aI0
aI101
aI177
aI305
aa(lp723
I698
aI697
aI1
aI111
aI91
aI699
aa(lp724
I89
aI0
aI383
aI105
aI684
aI335
aa(lp725
I700
aI1
aI0
aI27
aI0
aI272
aa(lp726
I362
aI42
aI0
aI363
aI23
aI120
aa(lp727
I702
aI701
aI20
aI52
aI20
aI703
aa(lp728
I19
aI0
aI704
aI705
aI20
aI706
aa(lp729
I707
aI0
aI70
aI708
aI106
aI709
aa(lp730
I410
aI377
aI0
aI17
aI57
aI23
aa(lp731
I488
aI42
aI0
aI489
aI490
aI491
aa(lp732
I0
aI441
aI440
aI20
aI710
aI55
aa(lp733
I452
aI0
aI711
aI292
aI712
aI713
aa(lp734
I0
aI715
aI714
aI716
aI717
aI0
aa(lp735
I719
aI368
aI718
aI249
aI52
aI720
aa(lp736
I229
aI38
aI106
aI659
aI33
aI171
aa(lp737
I281
aI55
aI106
aI215
aI14
aI593
aa(lp738
I290
aI42
aI0
aI291
aI292
aI120
aa(lp739
I89
aI722
aI721
aI2
aI15
aI649
aa(lp740
I35
aI0
aI546
aI1
aI11
aI696
aa(lp741
I19
aI424
aI0
aI723
aI66
aI52
aa(lp742
I41
aI117
aI322
aI349
aI350
aI351
aa(lp743
I725
aI724
aI15
aI726
aI727
aI20
aa(lp744
I729
aI0
aI728
aI91
aI730
aI52
aa(lp745
I1
aI290
aI0
aI116
aI731
aI0
aa(lp746
I77
aI0
aI57
aI33
aI229
aI61
aa(lp747
I262
aI35
aI0
aI399
aI123
aI374
aa(lp748
I733
aI0
aI732
aI1
aI214
aI734
aa(lp749
I735
aI89
aI0
aI7
aI87
aI88
aa(lp750
I736
aI42
aI94
aI199
aI148
aI174
aa(lp751
I73
aI0
aI57
aI55
aI253
aI23
aa(lp752
I417
aI737
aI581
aI365
aI738
aI739
aa(lp753
I0
aI516
aI1
aI517
aI91
aI89
aa(lp754
I350
aI0
aI740
aI419
aI101
aI417
aa(lp755
I55
aI675
aI41
aI262
aI35
aI0
aa(lp756
I20
aI710
aI0
aI17
aI685
aI741
aa(lp757
I229
aI292
aI19
aI65
aI91
aI742
aa(lp758
I655
aI656
aI0
aI43
aI289
aI743
aa(lp759
I50
aI49
aI28
aI20
aI51
aI52
aa(lp760
I744
aI32
aI0
aI55
aI745
aI23
aa(lp761
I32
aI0
aI57
aI746
aI747
aI19
aa(lp762
I748
aI401
aI42
aI91
aI38
aI73
aa(lp763
I295
aI291
aI41
aI7
aI143
aI152
aa(lp764
I252
aI116
aI0
aI190
aI202
aI671
aa(lp765
I749
aI583
aI15
aI750
aI751
aI55
aa(lp766
I41
aI117
aI322
aI349
aI350
aI351
aa(lp767
I684
aI55
aI654
aI752
aI228
aI52
aa(lp768
I35
aI0
aI600
aI600
aI753
aI196
aa(lp769
I374
aI0
aI309
aI84
aI15
aI84
aa(lp770
I20
aI0
aI70
aI0
aI272
aI1
aa(lp771
I89
aI0
aI383
aI105
aI684
aI335
aa(lp772
I35
aI106
aI704
aI89
aI226
aI38
aa(lp773
I61
aI229
aI106
aI505
aI506
aI507
aa(lp774
I0
aI754
aI9
aI15
aI19
aI57
aa(lp775
I755
aI106
aI159
aI89
aI116
aI756
aa(lp776
I1
aI0
aI757
aI55
aI482
aI232
aa(lp777
I55
aI0
aI57
aI89
aI336
aI66
aa(lp778
I758
aI449
aI383
aI111
aI1
aI759
aa(lp779
I188
aI660
aI718
aI249
aI247
aI27
aa(lp780
I760
aI15
aI0
aI761
aI762
aI20
aa(lp781
I93
aI763
aI20
aI89
aI764
aI1
aa(lp782
I653
aI32
aI765
aI249
aI15
aI716
aa(lp783
I655
aI766
aI0
aI243
aI0
aI767
aa(lp784
I145
aI1
aI557
aI49
aI321
aI17
aa(lp785
I19
aI0
aI309
aI15
aI310
aI89
aa(lp786
I24
aI15
aI23
aI25
aI26
aI27
aa(lp787
I1
aI0
aI113
aI19
aI287
aI0
aa(lp788
I64
aI63
aI62
aI65
aI66
aI67
aa(lp789
I106
aI768
aI507
aI15
aI105
aI7
aa(lp790
I55
aI769
aI0
aI15
aI66
aI581
aa(lp791
I554
aI400
aI546
aI340
aI341
aI125
aa(lp792
I770
aI1
aI0
aI1
aI771
aI15
aa(lp793
I758
aI449
aI383
aI111
aI1
aI759
aa(lp794
I106
aI768
aI507
aI15
aI105
aI7
aa(lp795
I135
aI33
aI106
aI65
aI52
aI136
aa(lp796
I35
aI156
aI0
aI7
aI87
aI157
aa(lp797
I415
aI472
aI471
aI20
aI473
aI474
aa(lp798
I25
aI33
aI466
aI432
aI55
aI210
aa(lp799
I55
aI27
aI125
aI258
aI597
aI598
aa(lp800
I1
aI0
aI113
aI19
aI287
aI0
aa(lp801
I772
aI1
aI0
aI1
aI78
aI38
aa(lp802
I15
aI83
aI19
aI84
aI0
aI85
aa(lp803
I773
aI89
aI0
aI774
aI775
aI87
aa(lp804
I777
aI776
aI23
aI660
aI125
aI184
aa(lp805
I1
aI188
aI778
aI779
aI780
aI781
aa(lp806
I19
aI0
aI782
aI66
aI63
aI783
aa(lp807
I174
aI120
aI784
aI785
aI0
aI786
aa(lp808
I0
aI787
aI70
aI0
aI788
aI789
aa(lp809
I34
aI33
aI0
aI35
aI36
aI37
aa(lp810
I25
aI33
aI466
aI432
aI55
aI210
aa(lp811
I89
aI0
aI383
aI105
aI684
aI335
aa(lp812
I790
aI0
aI70
aI17
aI292
aI184
aa(lp813
I19
aI0
aI70
aI20
aI783
aI383
aa(lp814
I38
aI247
aI0
aI86
aI55
aI791
aa(lp815
I142
aI0
aI57
aI140
aI143
aI144
aa(lp816
I19
aI0
aI70
aI15
aI792
aI686
aa(lp817
I793
aI55
aI0
aI244
aI229
aI89
aa(lp818
I374
aI0
aI197
aI375
aI94
aI376
aa(lp819
I559
aI794
aI106
aI554
aI0
aI795
aa(lp820
I189
aI41
aI70
aI55
aI29
aI442
aa(lp821
I791
aI89
aI0
aI705
aI655
aI796
aa(lp822
I0
aI14
aI797
aI91
aI23
aI0
aa(lp823
I7
aI55
aI188
aI111
aI23
aI743
aa(lp824
I87
aI798
aI55
aI249
aI799
aI593
aa(lp825
I725
aI724
aI15
aI726
aI800
aI281
aa(lp826
I94
aI325
aI1
aI42
aI120
aI91
aa(lp827
I802
aI801
aI0
aI7
aI87
aI803
aa(lp828
I315
aI804
aI0
aI55
aI251
aI174
aa(lp829
I805
aI336
aI0
aI192
aI87
aI521
aa(lp830
I526
aI522
aI0
aI49
aI105
aI601
aa(lp831
I55
aI0
aI704
aI15
aI211
aI89
aa(lp832
I108
aI107
aI106
aI66
aI109
aI110
aa(lp833
I416
aI23
aI0
aI417
aI123
aI452
aa(lp834
I252
aI116
aI0
aI190
aI202
aI671
aa(lp835
I807
aI38
aI806
aI808
aI188
aI209
aa(lp836
I91
aI38
aI0
aI89
aI275
aI87
aa(lp837
I258
aI188
aI257
aI259
aI146
aI15
aa(lp838
I290
aI42
aI0
aI291
aI292
aI120
aa(lp839
I543
aI350
aI89
aI91
aI783
aI281
aa(lp840
I452
aI350
aI0
aI217
aI0
aI809
aa(lp841
I42
aI61
aI20
aI188
aI209
aI810
aa(lp842
I19
aI0
aI57
aI15
aI285
aI811
aa(lp843
I61
aI229
aI106
aI505
aI506
aI507
aa(lp844
I459
aI89
aI0
aI91
aI138
aI675
aa(lp845
I77
aI812
aI219
aI17
aI220
aI89
aa(lp846
I19
aI813
aI94
aI49
aI814
aI7
aa(lp847
I412
aI411
aI0
aI52
aI106
aI413
aa(lp848
I815
aI55
aI106
aI89
aI816
aI817
aa(lp849
I0
aI754
aI9
aI15
aI19
aI57
aa(lp850
I459
aI89
aI0
aI7
aI818
aI106
aa(lp851
I820
aI0
aI819
aI91
aI106
aI811
aa(lp852
I659
aI1
aI0
aI821
aI189
aI188
aa(lp853
I1
aI126
aI481
aI105
aI229
aI533
aa(lp854
I19
aI0
aI68
aI32
aI0
aI99
aa(lp855
I66
aI35
aI0
aI61
aI116
aI27
aa(lp856
I823
aI0
aI822
aI824
aI0
aI14
aa(lp857
I601
aI291
aI0
aI7
aI26
aI188
aa(lp858
I188
aI660
aI718
aI249
aI825
aI1
aa(lp859
I556
aI89
aI0
aI826
aI0
aI221
aa(lp860
I18
aI116
aI0
aI144
aI232
aI35
aa(lp861
I735
aI89
aI0
aI7
aI87
aI88
aa(lp862
I0
aI827
aI0
aI828
aI35
aI126
aa(lp863
I162
aI161
aI68
aI91
aI163
aI15
aa(lp864
I221
aI19
aI41
aI273
aI95
aI15
aa(lp865
I20
aI0
aI600
aI252
aI601
aI105
aa(lp866
I829
aI655
aI0
aI30
aI223
aI27
aa(lp867
I223
aI436
aI448
aI38
aI55
aI292
aa(lp868
I91
aI106
aI534
aI830
aI19
aI327
aa(lp869
I1
aI0
aI18
aI831
aI537
aI538
aa(lp870
I55
aI0
aI57
aI89
aI336
aI66
aa(lp871
I108
aI107
aI106
aI66
aI109
aI110
aa(lp872
I24
aI15
aI23
aI25
aI26
aI27
aa(lp873
I24
aI15
aI23
aI25
aI26
aI27
aa(lp874
I832
aI19
aI0
aI62
aI740
aI15
aa(lp875
I827
aI55
aI833
aI834
aI15
aI247
aa(lp876
I120
aI518
aI0
aI91
aI788
aI61
aa(lp877
I836
aI835
aI106
aI65
aI837
aI545
aa(lp878
I243
aI1
aI588
aI65
aI325
aI838
aa(lp879
I424
aI0
aI309
aI17
aI642
aI89
aa(lp880
I412
aI411
aI0
aI52
aI106
aI413
aa(lp881
I571
aI127
aI0
aI603
aI577
aI839
aa(lp882
I840
aI0
aI113
aI486
aI231
aI841
aa(lp883
I20
aI842
aI400
aI17
aI843
aI61
aa(lp884
I844
aI321
aI209
aI189
aI209
aI196
aa(lp885
I19
aI0
aI68
aI62
aI79
aI55
aa(lp886
I669
aI35
aI0
aI581
aI670
aI292
aa(lp887
I258
aI188
aI257
aI259
aI146
aI15
aa(lp888
I410
aI377
aI0
aI17
aI57
aI23
aa(lp889
I66
aI91
aI0
aI89
aI91
aI845
aa(lp890
I41
aI342
aI15
aI63
aI116
aI343
aa(lp891
I55
aI574
aI106
aI718
aI62
aI846
aa(lp892
I49
aI0
aI309
aI116
aI518
aI205
aa(lp893
I758
aI449
aI383
aI111
aI1
aI759
aa(lp894
I847
aI717
aI0
aI198
aI66
aI717
aa(lp895
I511
aI510
aI0
aI116
aI512
aI513
aa(lp896
I19
aI0
aI68
aI32
aI0
aI99
aa(lp897
I459
aI0
aI848
aI733
aI518
aI26
aa(lp898
I849
aI55
aI845
aI35
aI27
aI547
aa(lp899
I62
aI330
aI24
aI91
aI850
aI851
aa(lp900
I1
aI0
aI852
aI339
aI853
aI124
aa(lp901
I855
aI0
aI854
aI32
aI856
aI538
aa(lp902
I89
aI247
aI0
aI6
aI66
aI192
aa(lp903
I285
aI1
aI0
aI239
aI32
aI841
aa(lp904
I145
aI1
aI557
aI49
aI321
aI17
aa(lp905
I188
aI106
aI333
aI35
aI0
aI334
aa(lp906
I857
aI19
aI0
aI0
aI858
aI1
aa(lp907
I35
aI859
aI0
aI518
aI706
aI860
aa(lp908
I224
aI1
aI41
aI15
aI30
aI449
aa(lp909
I861
aI0
aI113
aI91
aI296
aI150
aa(lp910
I736
aI42
aI94
aI199
aI148
aI174
aa(lp911
I55
aI418
aI0
aI862
aI55
aI94
aa(lp912
I863
aI0
aI620
aI864
aI20
aI0
aa(lp913
I865
aI1
aI0
aI866
aI1
aI867
aa(lp914
I41
aI117
aI322
aI349
aI350
aI351
aa(lp915
I410
aI377
aI0
aI17
aI57
aI23
aa(lp916
I32
aI0
aI70
aI55
aI27
aI71
aa(lp917
I868
aI89
aI0
aI152
aI174
aI55
aa(lp918
I191
aI11
aI10
aI192
aI31
aI32
aa(lp919
I30
aI420
aI188
aI869
aI23
aI870
aa(lp920
I89
aI722
aI721
aI2
aI15
aI649
aa(lp921
I871
aI1
aI0
aI202
aI872
aI243
aa(lp922
I139
aI33
aI0
aI140
aI141
aI0
aa(lp923
I223
aI389
aI0
aI286
aI106
aI873
aa(lp924
I149
aI874
aI15
aI65
aI52
aI106
aa(lp925
I875
aI125
aI0
aI120
aI876
aI87
aa(lp926
I878
aI877
aI0
aI879
aI55
aI880
aa(lp927
I120
aI6
aI0
aI881
aI325
aI325
aa(lp928
I416
aI23
aI0
aI417
aI87
aI882
aa(lp929
I38
aI743
aI0
aI275
aI27
aI91
aa(lp930
I144
aI0
aI57
aI35
aI6
aI174
aa(lp931
I383
aI0
aI70
aI3
aI0
aI883
aa(lp932
I16
aI15
aI0
aI17
aI0
aI18
aa(lp933
I15
aI682
aI884
aI885
aI19
aI38
aa(lp934
I129
aI1
aI214
aI66
aI91
aI38
aa(lp935
I211
aI0
aI210
aI212
aI20
aI213
aa(lp936
I55
aI845
aI0
aI35
aI287
aI89
aa(lp937
I232
aI252
aI448
aI116
aI190
aI232
aa(lp938
I65
aI1
aI0
aI0
aI459
aI89
aa(lp939
I224
aI1
aI41
aI15
aI30
aI449
aa(lp940
I1
aI0
aI113
aI19
aI287
aI0
aa(lp941
I849
aI55
aI845
aI35
aI27
aI547
aa(lp942
I886
aI32
aI106
aI65
aI55
aI887
aa(lp943
I637
aI0
aI57
aI33
aI888
aI105
aa(lp944
I89
aI0
aI600
aI275
aI175
aI889
aa(lp945
I459
aI89
aI0
aI17
aI890
aI20
aa(lp946
I281
aI23
aI41
aI534
aI891
aI229
aa(lp947
I61
aI128
aI62
aI65
aI877
aI66
aa(lp948
I108
aI107
aI106
aI66
aI109
aI110
aa(lp949
I85
aI891
aI33
aI65
aI66
aI91
aa(lp950
I252
aI63
aI324
aI325
aI15
aI326
aa(lp951
I15
aI0
aI57
aI188
aI430
aI705
aa(lp952
I893
aI892
aI1
aI489
aI-1
aI-1
aa(lp953
I894
aI32
aI0
aI339
aI28
aI66
aa(lp954
I106
aI895
aI268
aI896
aI897
aI146
aa(lp955
I30
aI443
aI0
aI91
aI898
aI777
aa(lp956
I204
aI32
aI0
aI55
aI205
aI106
aa(lp957
I1
aI815
aI0
aI312
aI566
aI28
aa(lp958
I14
aI41
aI667
aI43
aI486
aI521
aa(lp959
I900
aI899
aI19
aI554
aI252
aI364
aa(lp960
I410
aI377
aI0
aI17
aI57
aI23
aa(lp961
I40
aI19
aI0
aI20
aI516
aI66
aa(lp962
I19
aI0
aI68
aI62
aI79
aI55
aa(lp963
I901
aI42
aI89
aI902
aI107
aI35
aa(lp964
I1
aI0
aI852
aI339
aI853
aI124
aa(lp965
I229
aI903
aI55
aI904
aI19
aI0
aa(lp966
I433
aI0
aI70
aI52
aI126
aI905
aa(lp967
I247
aI103
aI0
aI774
aI243
aI55
aa(lp968
I1
aI41
aI70
aI89
aI0
aI458
aa(lp969
I55
aI0
aI567
aI321
aI229
aI209
aa(lp970
I392
aI0
aI70
aI7
aI87
aI7
aa(lp971
I20
aI0
aI600
aI906
aI232
aI78
aa(lp972
I907
aI645
aI0
aI125
aI0
aI3
aa(lp973
I290
aI42
aI0
aI291
aI292
aI120
aa(lp974
I849
aI55
aI845
aI35
aI27
aI547
aa(lp975
I0
aI68
aI210
aI15
aI692
aI908
aa(lp976
I35
aI0
aI68
aI225
aI909
aI0
aa(lp977
I449
aI19
aI0
aI32
aI910
aI332
aa(lp978
I264
aI1
aI0
aI265
aI266
aI91
aa(lp979
I85
aI891
aI33
aI65
aI66
aI91
aa(lp980
I19
aI0
aI68
aI62
aI79
aI55
aa(lp981
I381
aI89
aI0
aI382
aI91
aI383
aa(lp982
I911
aI217
aI0
aI86
aI55
aI912
aa(lp983
I15
aI83
aI19
aI84
aI0
aI85
aa(lp984
I29
aI106
aI569
aI177
aI638
aI913
aa(lp985
I402
aI123
aI914
aI433
aI915
aI66
aa(lp986
I58
aI0
aI57
aI59
aI60
aI61
aa(lp987
I94
aI325
aI1
aI42
aI120
aI91
aa(lp988
I916
aI106
aI569
aI917
aI106
aI918
aa(lp989
I89
aI722
aI721
aI2
aI15
aI649
aa(lp990
I410
aI377
aI0
aI17
aI57
aI23
aa(lp991
I920
aI919
aI144
aI921
aI1
aI922
aa(lp992
I252
aI116
aI0
aI190
aI202
aI671
aa(lp993
I758
aI449
aI383
aI111
aI1
aI759
aa(lp994
I652
aI198
aI0
aI357
aI27
aI285
aa(lp995
I543
aI350
aI89
aI91
aI783
aI281
aa(lp996
I315
aI274
aI0
aI150
aI177
aI685
aa(lp997
I923
aI55
aI499
aI924
aI925
aI926
aa(lp998
I386
aI32
aI0
aI387
aI91
aI388
aa(lp999
I15
aI83
aI19
aI84
aI0
aI85
aa(lp1000
I740
aI203
aI1
aI20
aI516
aI927
aa(lp1001
I38
aI42
aI0
aI402
aI86
aI55
aa(lp1002
I69
aI0
aI68
aI7
aI6
aI0
aa(lp1003
I929
aI928
aI924
aI930
aI26
aI189
aa(lp1004
I931
aI0
aI70
aI17
aI932
aI89
aa(lp1005
I0
aI715
aI714
aI716
aI717
aI0
aa(lp1006
I424
aI0
aI309
aI17
aI642
aI89
aasS'university'
p1007
(lp1008
(lp1009
I2
aI1
aI0
aI3
aI4
aI5
aa(lp1010
I8
aI7
aI6
aI9
aI10
aI11
aa(lp1011
I14
aI13
aI12
aI15
aI16
aI17
aa(lp1012
I18
aI17
aI1
aI19
aI16
aI20
aa(lp1013
I21
aI17
aI5
aI22
aI23
aI24
aa(lp1014
I27
aI26
aI25
aI28
aI29
aI30
aa(lp1015
I31
aI16
aI1
aI32
aI33
aI11
aa(lp1016
I21
aI17
aI5
aI34
aI22
aI35
aa(lp1017
I36
aI17
aI5
aI6
aI37
aI38
aa(lp1018
I40
aI1
aI39
aI41
aI42
aI43
aa(lp1019
I41
aI11
aI44
aI45
aI46
aI39
aa(lp1020
I49
aI48
aI47
aI50
aI51
aI1
aa(lp1021
I54
aI53
aI52
aI28
aI55
aI49
aa(lp1022
I57
aI56
aI12
aI58
aI59
aI60
aa(lp1023
I17
aI1
aI61
aI62
aI63
aI17
aa(lp1024
I65
aI17
aI64
aI22
aI66
aI40
aa(lp1025
I68
aI67
aI8
aI69
aI9
aI6
aa(lp1026
I72
aI71
aI70
aI73
aI1
aI74
aa(lp1027
I76
aI75
aI17
aI6
aI77
aI78
aa(lp1028
I41
aI11
aI79
aI80
aI6
aI81
aa(lp1029
I2
aI1
aI0
aI3
aI4
aI5
aa(lp1030
I21
aI17
aI5
aI34
aI22
aI35
aa(lp1031
I82
aI64
aI57
aI12
aI56
aI58
aa(lp1032
I2
aI1
aI0
aI3
aI4
aI5
aa(lp1033
I83
aI17
aI1
aI84
aI85
aI86
aa(lp1034
I88
aI28
aI87
aI28
aI89
aI90
aa(lp1035
I91
aI26
aI25
aI28
aI29
aI30
aa(lp1036
I94
aI93
aI92
aI28
aI95
aI96
aa(lp1037
I40
aI1
aI39
aI41
aI42
aI43
aa(lp1038
I97
aI41
aI1
aI98
aI41
aI99
aa(lp1039
I102
aI101
aI100
aI6
aI103
aI102
aa(lp1040
I2
aI1
aI0
aI3
aI4
aI5
aa(lp1041
I104
aI17
aI37
aI105
aI106
aI6
aa(lp1042
I41
aI1
aI107
aI108
aI109
aI110
aa(lp1043
I2
aI1
aI0
aI3
aI4
aI5
aa(lp1044
I33
aI13
aI6
aI111
aI16
aI112
aa(lp1045
I2
aI1
aI0
aI3
aI4
aI5
aa(lp1046
I19
aI1
aI92
aI22
aI113
aI16
aa(lp1047
I114
aI28
aI1
aI42
aI51
aI115
aa(lp1048
I111
aI17
aI1
aI116
aI9
aI117
aa(lp1049
I93
aI41
aI118
aI28
aI119
aI120
aa(lp1050
I2
aI1
aI0
aI3
aI4
aI5
aa(lp1051
I122
aI17
aI121
aI123
aI124
aI125
aa(lp1052
I126
aI56
aI6
aI58
aI6
aI108
aa(lp1053
I28
aI64
aI57
aI58
aI127
aI8
aa(lp1054
I2
aI1
aI0
aI3
aI4
aI5
aa(lp1055
I130
aI129
aI128
aI41
aI11
aI131
aa(lp1056
I40
aI1
aI39
aI41
aI42
aI43
aa(lp1057
I41
aI11
aI79
aI80
aI6
aI81
aa(lp1058
I68
aI41
aI11
aI132
aI17
aI133
aa(lp1059
I134
aI26
aI25
aI28
aI29
aI30
aa(lp1060
I108
aI135
aI33
aI22
aI69
aI16
aa(lp1061
I93
aI41
aI118
aI28
aI119
aI120
aa(lp1062
I138
aI137
aI136
aI139
aI140
aI28
aa(lp1063
I141
aI16
aI37
aI142
aI22
aI143
aa(lp1064
I8
aI7
aI6
aI9
aI10
aI11
aa(lp1065
I123
aI19
aI1
aI116
aI144
aI145
aa(lp1066
I41
aI11
aI44
aI45
aI46
aI39
aa(lp1067
I147
aI146
aI99
aI148
aI6
aI121
aa(lp1068
I150
aI17
aI149
aI16
aI69
aI151
aa(lp1069
I2
aI1
aI0
aI3
aI4
aI5
aa(lp1070
I39
aI56
aI6
aI58
aI108
aI28
aa(lp1071
I152
aI16
aI1
aI153
aI154
aI155
aa(lp1072
I157
aI156
aI11
aI158
aI11
aI159
aa(lp1073
I2
aI1
aI0
aI3
aI4
aI5
aa(lp1074
I41
aI1
aI107
aI108
aI109
aI110
aa(lp1075
I160
aI137
aI136
aI139
aI140
aI28
aa(lp1076
I88
aI49
aI161
aI162
aI161
aI163
aa(lp1077
I6
aI11
aI57
aI164
aI165
aI166
aa(lp1078
I6
aI168
aI167
aI169
aI170
aI171
aa(lp1079
I172
aI122
aI41
aI173
aI58
aI12
aa(lp1080
I17
aI175
aI174
aI41
aI176
aI177
aa(lp1081
I178
aI75
aI1
aI111
aI73
aI51
aa(lp1082
I97
aI41
aI1
aI98
aI41
aI99
aa(lp1083
I43
aI180
aI179
aI181
aI182
aI183
aa(lp1084
I2
aI1
aI0
aI3
aI4
aI5
aasS'turkish'
p1085
(lp1086
(lp1087
I2
aI1
aI0
aI3
aI4
aI5
aa(lp1088
I8
aI7
aI6
aI9
aI10
aI11
aa(lp1089
I14
aI13
aI12
aI15
aI16
aI17
aa(lp1090
I20
aI19
aI18
aI21
aI22
aI23
aasS'people'
p1091
(lp1092
(lp1093
I2
aI1
aI0
aI3
aI4
aI5
aa(lp1094
I6
aI0
aI5
aI7
aI8
aI9
aa(lp1095
I12
aI11
aI10
aI3
aI13
aI7
aa(lp1096
I16
aI15
aI14
aI17
aI9
aI18
aa(lp1097
I20
aI19
aI2
aI21
aI5
aI22
aa(lp1098
I11
aI23
aI0
aI24
aI25
aI26
aa(lp1099
I28
aI27
aI7
aI3
aI29
aI5
aa(lp1100
I31
aI30
aI7
aI32
aI33
aI34
aa(lp1101
I36
aI35
aI7
aI37
aI0
aI38
aa(lp1102
I41
aI40
aI39
aI42
aI7
aI43
aa(lp1103
I46
aI45
aI44
aI47
aI48
aI49
aa(lp1104
I52
aI51
aI50
aI53
aI54
aI55
aa(lp1105
I57
aI56
aI2
aI58
aI59
aI60
aa(lp1106
I62
aI9
aI61
aI63
aI64
aI65
aa(lp1107
I67
aI66
aI0
aI3
aI68
aI69
aa(lp1108
I7
aI70
aI0
aI71
aI72
aI73
aa(lp1109
I75
aI74
aI5
aI3
aI76
aI77
aa(lp1110
I78
aI34
aI37
aI40
aI11
aI6
aa(lp1111
I80
aI79
aI19
aI7
aI81
aI5
aa(lp1112
I83
aI82
aI5
aI84
aI85
aI86
aa(lp1113
I58
aI87
aI0
aI3
aI88
aI30
aa(lp1114
I91
aI90
aI89
aI92
aI24
aI93
aa(lp1115
I96
aI95
aI94
aI46
aI97
aI98
aa(lp1116
I7
aI99
aI36
aI75
aI5
aI100
aa(lp1117
I102
aI7
aI101
aI103
aI104
aI0
aa(lp1118
I11
aI105
aI2
aI4
aI105
aI106
aa(lp1119
I107
aI60
aI19
aI108
aI34
aI109
aa(lp1120
I5
aI96
aI110
aI111
aI30
aI48
aa(lp1121
I114
aI113
aI112
aI115
aI0
aI116
aa(lp1122
I11
aI118
aI117
aI119
aI120
aI107
aa(lp1123
I66
aI121
aI0
aI3
aI122
aI123
aa(lp1124
I0
aI125
aI124
aI84
aI17
aI9
aa(lp1125
I126
aI106
aI66
aI86
aI127
aI128
aa(lp1126
I130
aI58
aI129
aI48
aI5
aI131
aa(lp1127
I134
aI133
aI132
aI7
aI28
aI135
aa(lp1128
I136
aI52
aI14
aI3
aI137
aI98
aa(lp1129
I130
aI52
aI51
aI3
aI58
aI138
aa(lp1130
I139
aI113
aI0
aI140
aI75
aI141
aa(lp1131
I54
aI143
aI142
aI58
aI144
aI110
aa(lp1132
I34
aI145
aI94
aI111
aI123
aI51
aa(lp1133
I147
aI146
aI107
aI3
aI148
aI19
aa(lp1134
I58
aI149
aI0
aI3
aI150
aI151
aa(lp1135
I0
aI152
aI9
aI98
aI153
aI3
aa(lp1136
I6
aI0
aI5
aI7
aI8
aI9
aa(lp1137
I28
aI154
aI94
aI58
aI155
aI7
aa(lp1138
I157
aI156
aI85
aI158
aI159
aI32
aa(lp1139
I160
aI54
aI19
aI3
aI46
aI40
aa(lp1140
I30
aI162
aI161
aI86
aI163
aI164
aa(lp1141
I165
aI135
aI163
aI5
aI166
aI54
aa(lp1142
I169
aI168
aI167
aI163
aI-1
aI-1
aa(lp1143
I172
aI171
aI170
aI7
aI89
aI51
aa(lp1144
I82
aI174
aI173
aI32
aI175
aI98
aa(lp1145
I176
aI143
aI2
aI177
aI98
aI178
aa(lp1146
I5
aI180
aI179
aI98
aI130
aI143
aa(lp1147
I146
aI181
aI0
aI54
aI182
aI183
aa(lp1148
I185
aI184
aI135
aI3
aI58
aI186
aa(lp1149
I90
aI187
aI48
aI188
aI189
aI5
aa(lp1150
I9
aI190
aI135
aI191
aI192
aI139
aa(lp1151
I194
aI5
aI193
aI98
aI5
aI195
aa(lp1152
I6
aI0
aI5
aI7
aI196
aI11
aa(lp1153
I58
aI161
aI163
aI3
aI83
aI7
aa(lp1154
I198
aI48
aI197
aI199
aI9
aI200
aa(lp1155
I34
aI46
aI37
aI150
aI201
aI5
aa(lp1156
I51
aI202
aI143
aI203
aI204
aI205
aa(lp1157
I34
aI40
aI206
aI148
aI207
aI208
aa(lp1158
I143
aI5
aI209
aI210
aI211
aI212
aa(lp1159
I41
aI214
aI213
aI215
aI216
aI217
aa(lp1160
I146
aI207
aI67
aI218
aI7
aI219
aa(lp1161
I11
aI105
aI2
aI4
aI105
aI106
aa(lp1162
I221
aI0
aI220
aI48
aI5
aI166
aa(lp1163
I114
aI113
aI112
aI132
aI222
aI9
aa(lp1164
I134
aI133
aI132
aI7
aI28
aI135
aa(lp1165
I211
aI223
aI9
aI3
aI224
aI30
aa(lp1166
I225
aI7
aI123
aI226
aI9
aI227
aa(lp1167
I229
aI19
aI228
aI230
aI182
aI11
aa(lp1168
I231
aI86
aI5
aI98
aI232
aI233
aa(lp1169
I192
aI67
aI234
aI58
aI7
aI203
aa(lp1170
I235
aI58
aI161
aI236
aI98
aI237
aa(lp1171
I238
aI107
aI66
aI58
aI85
aI0
aa(lp1172
I2
aI0
aI5
aI239
aI86
aI30
aa(lp1173
I117
aI241
aI240
aI158
aI242
aI0
aa(lp1174
I243
aI182
aI66
aI244
aI143
aI245
aa(lp1175
I143
aI247
aI246
aI7
aI248
aI249
aa(lp1176
I252
aI251
aI250
aI2
aI253
aI189
aa(lp1177
I254
aI136
aI94
aI255
aI146
aI256
aa(lp1178
I258
aI75
aI257
aI5
aI259
aI0
aa(lp1179
I261
aI260
aI5
aI48
aI5
aI131
aa(lp1180
I263
aI262
aI0
aI264
aI30
aI9
aa(lp1181
I172
aI171
aI170
aI7
aI89
aI51
aa(lp1182
I5
aI266
aI265
aI267
aI268
aI7
aa(lp1183
I270
aI269
aI0
aI271
aI272
aI19
aa(lp1184
I146
aI273
aI66
aI274
aI211
aI136
aa(lp1185
I9
aI276
aI275
aI3
aI111
aI277
aa(lp1186
I279
aI278
aI5
aI0
aI280
aI5
aa(lp1187
I281
aI102
aI240
aI282
aI283
aI9
aa(lp1188
I285
aI284
aI94
aI286
aI287
aI51
aa(lp1189
I5
aI288
aI0
aI98
aI289
aI290
aa(lp1190
I125
aI9
aI5
aI3
aI40
aI173
aa(lp1191
I292
aI207
aI291
aI293
aI5
aI294
aa(lp1192
I297
aI296
aI295
aI82
aI298
aI299
aa(lp1193
I86
aI2
aI300
aI9
aI301
aI302
aa(lp1194
I304
aI303
aI86
aI305
aI306
aI307
aa(lp1195
I20
aI308
aI66
aI48
aI7
aI309
aa(lp1196
I9
aI310
aI5
aI7
aI219
aI311
aa(lp1197
I313
aI312
aI0
aI46
aI314
aI4
aa(lp1198
I182
aI315
aI7
aI3
aI58
aI-1
aa(lp1199
I316
aI19
aI52
aI143
aI58
aI317
aa(lp1200
I182
aI319
aI318
aI230
aI320
aI5
aa(lp1201
I323
aI322
aI321
aI58
aI130
aI298
aa(lp1202
I325
aI324
aI66
aI58
aI326
aI327
aa(lp1203
I66
aI94
aI178
aI40
aI4
aI30
aa(lp1204
I14
aI58
aI5
aI301
aI328
aI329
aa(lp1205
I87
aI0
aI117
aI86
aI52
aI0
aa(lp1206
I98
aI331
aI330
aI267
aI332
aI333
aa(lp1207
I267
aI335
aI334
aI336
aI230
aI123
aa(lp1208
I338
aI337
aI295
aI339
aI158
aI239
aa(lp1209
I52
aI5
aI340
aI9
aI341
aI342
aa(lp1210
I17
aI0
aI343
aI7
aI28
aI344
aa(lp1211
I345
aI34
aI101
aI346
aI34
aI347
aa(lp1212
I51
aI150
aI9
aI40
aI230
aI143
aa(lp1213
I94
aI0
aI5
aI348
aI349
aI182
aa(lp1214
I350
aI19
aI117
aI230
aI346
aI351
aa(lp1215
I3
aI267
aI14
aI28
aI352
aI146
aa(lp1216
I353
aI86
aI117
aI5
aI354
aI143
aa(lp1217
I198
aI48
aI197
aI199
aI9
aI200
aa(lp1218
I355
aI110
aI66
aI356
aI143
aI130
aa(lp1219
I357
aI52
aI5
aI48
aI30
aI358
aa(lp1220
I360
aI9
aI359
aI305
aI46
aI361
aa(lp1221
I363
aI362
aI9
aI355
aI58
aI364
aa(lp1222
I366
aI144
aI365
aI251
aI226
aI7
aa(lp1223
I98
aI5
aI367
aI332
aI111
aI182
aa(lp1224
I346
aI368
aI48
aI3
aI12
aI182
aa(lp1225
I98
aI369
aI86
aI3
aI11
aI306
aa(lp1226
I305
aI158
aI14
aI34
aI370
aI46
aa(lp1227
I373
aI372
aI371
aI7
aI374
aI375
aa(lp1228
I377
aI5
aI376
aI378
aI19
aI298
aa(lp1229
I379
aI37
aI143
aI380
aI332
aI28
aa(lp1230
I11
aI23
aI0
aI37
aI295
aI51
aa(lp1231
I226
aI5
aI381
aI7
aI382
aI175
aa(lp1232
I68
aI267
aI359
aI106
aI267
aI383
aa(lp1233
I385
aI384
aI2
aI58
aI386
aI7
aa(lp1234
I388
aI19
aI387
aI235
aI267
aI5
aa(lp1235
I297
aI296
aI295
aI212
aI389
aI192
aa(lp1236
I7
aI390
aI75
aI86
aI391
aI34
aa(lp1237
I393
aI239
aI392
aI86
aI394
aI51
aa(lp1238
I395
aI148
aI295
aI396
aI397
aI78
aa(lp1239
I0
aI5
aI398
aI98
aI5
aI399
aa(lp1240
I297
aI296
aI295
aI82
aI298
aI299
aa(lp1241
I400
aI9
aI326
aI401
aI30
aI402
aa(lp1242
I403
aI85
aI7
aI86
aI404
aI9
aa(lp1243
I405
aI327
aI2
aI89
aI346
aI54
aa(lp1244
I406
aI5
aI299
aI9
aI8
aI407
aa(lp1245
I54
aI408
aI19
aI7
aI409
aI410
aa(lp1246
I5
aI412
aI411
aI150
aI111
aI413
aa(lp1247
I134
aI133
aI132
aI7
aI28
aI135
aa(lp1248
I235
aI51
aI414
aI120
aI163
aI159
aa(lp1249
I328
aI5
aI415
aI9
aI148
aI207
aa(lp1250
I136
aI52
aI14
aI3
aI137
aI98
aa(lp1251
I416
aI0
aI117
aI3
aI302
aI86
aa(lp1252
I106
aI107
aI66
aI111
aI143
aI5
aa(lp1253
I338
aI98
aI2
aI417
aI30
aI418
aa(lp1254
I419
aI52
aI51
aI3
aI420
aI421
aa(lp1255
I422
aI2
aI340
aI89
aI143
aI423
aa(lp1256
I19
aI11
aI269
aI424
aI425
aI71
aa(lp1257
I123
aI427
aI426
aI414
aI106
aI428
aa(lp1258
I430
aI429
aI5
aI3
aI111
aI346
aa(lp1259
I30
aI182
aI144
aI301
aI58
aI431
aa(lp1260
I433
aI216
aI432
aI434
aI435
aI433
aa(lp1261
I436
aI143
aI2
aI13
aI7
aI5
aa(lp1262
I438
aI333
aI437
aI3
aI251
aI439
aa(lp1263
I34
aI188
aI440
aI3
aI12
aI441
aa(lp1264
I32
aI52
aI299
aI51
aI442
aI5
aa(lp1265
I7
aI45
aI143
aI92
aI443
aI271
aa(lp1266
I445
aI444
aI66
aI89
aI143
aI11
aa(lp1267
I165
aI135
aI163
aI5
aI166
aI54
aa(lp1268
I355
aI54
aI123
aI40
aI173
aI446
aa(lp1269
I34
aI447
aI30
aI3
aI448
aI211
aa(lp1270
I0
aI5
aI449
aI98
aI5
aI288
aa(lp1271
I5
aI450
aI7
aI3
aI107
aI451
aa(lp1272
I51
aI150
aI9
aI40
aI230
aI143
aa(lp1273
I148
aI334
aI452
aI67
aI60
aI453
aa(lp1274
I454
aI9
aI267
aI89
aI143
aI34
aa(lp1275
I456
aI455
aI5
aI457
aI54
aI19
aa(lp1276
I458
aI244
aI5
aI0
aI459
aI424
aa(lp1277
I54
aI460
aI0
aI3
aI461
aI462
aa(lp1278
I338
aI98
aI2
aI417
aI30
aI418
aa(lp1279
I16
aI120
aI463
aI464
aI465
aI9
aa(lp1280
I34
aI188
aI440
aI143
aI58
aI466
aa(lp1281
I98
aI5
aI467
aI350
aI0
aI112
aa(lp1282
I377
aI5
aI112
aI63
aI5
aI468
aa(lp1283
I5
aI470
aI469
aI0
aI471
aI472
aa(lp1284
I9
aI473
aI9
aI474
aI9
aI475
aa(lp1285
I476
aI0
aI5
aI9
aI477
aI0
aa(lp1286
I7
aI120
aI143
aI98
aI478
aI46
aa(lp1287
I480
aI346
aI479
aI34
aI341
aI32
aa(lp1288
I28
aI277
aI2
aI334
aI277
aI481
aa(lp1289
I225
aI7
aI5
aI146
aI226
aI5
aa(lp1290
I483
aI264
aI482
aI3
aI58
aI0
aa(lp1291
I485
aI484
aI129
aI12
aI239
aI98
aa(lp1292
I486
aI0
aI211
aI487
aI94
aI0
aa(lp1293
I123
aI182
aI52
aI3
aI488
aI489
aa(lp1294
I114
aI113
aI112
aI31
aI5
aI450
aa(lp1295
I7
aI490
aI330
aI90
aI491
aI211
aa(lp1296
I5
aI492
aI0
aI390
aI2
aI493
aa(lp1297
I446
aI7
aI158
aI7
aI38
aI5
aa(lp1298
I267
aI494
aI64
aI75
aI211
aI428
aa(lp1299
I496
aI495
aI58
aI40
aI497
aI498
aa(lp1300
I207
aI500
aI499
aI98
aI130
aI9
aa(lp1301
I67
aI84
aI2
aI501
aI182
aI502
aa(lp1302
I503
aI19
aI11
aI5
aI504
aI7
aa(lp1303
I506
aI237
aI505
aI507
aI237
aI82
aa(lp1304
I189
aI19
aI508
aI509
aI120
aI510
aa(lp1305
I86
aI512
aI511
aI86
aI513
aI27
aa(lp1306
I6
aI0
aI5
aI7
aI196
aI11
aa(lp1307
I135
aI515
aI514
aI247
aI84
aI85
aa(lp1308
I516
aI44
aI111
aI420
aI517
aI34
aa(lp1309
I37
aI143
aI52
aI0
aI11
aI210
aa(lp1310
I456
aI455
aI5
aI457
aI54
aI19
aa(lp1311
I114
aI113
aI112
aI130
aI518
aI519
aa(lp1312
I2
aI521
aI520
aI522
aI523
aI524
aa(lp1313
I526
aI525
aI2
aI120
aI30
aI20
aa(lp1314
I7
aI527
aI265
aI528
aI529
aI530
aa(lp1315
I25
aI532
aI531
aI86
aI533
aI534
aa(lp1316
I6
aI0
aI5
aI7
aI8
aI9
aa(lp1317
I537
aI536
aI535
aI58
aI9
aI267
aa(lp1318
I538
aI130
aI58
aI219
aI48
aI11
aa(lp1319
I148
aI334
aI452
aI67
aI60
aI453
aa(lp1320
I9
aI539
aI194
aI188
aI305
aI58
aa(lp1321
I114
aI113
aI112
aI48
aI540
aI541
aa(lp1322
I297
aI296
aI295
aI82
aI298
aI299
aa(lp1323
I130
aI58
aI299
aI9
aI542
aI543
aa(lp1324
I11
aI544
aI143
aI3
aI545
aI546
aa(lp1325
I159
aI14
aI12
aI3
aI82
aI60
aa(lp1326
I52
aI182
aI66
aI58
aI547
aI144
aa(lp1327
I188
aI67
aI548
aI150
aI28
aI207
aa(lp1328
I550
aI549
aI2
aI158
aI551
aI552
aa(lp1329
I58
aI553
aI212
aI458
aI554
aI14
aa(lp1330
I556
aI555
aI117
aI58
aI97
aI7
aa(lp1331
I37
aI143
aI94
aI45
aI143
aI30
aa(lp1332
I281
aI102
aI240
aI282
aI283
aI9
aa(lp1333
I557
aI58
aI2
aI150
aI557
aI558
aa(lp1334
I560
aI559
aI135
aI561
aI562
aI563
aa(lp1335
I564
aI52
aI6
aI346
aI565
aI566
aa(lp1336
I115
aI19
aI94
aI264
aI94
aI165
aa(lp1337
I305
aI150
aI326
aI567
aI282
aI284
aa(lp1338
I110
aI7
aI335
aI7
aI509
aI568
aa(lp1339
I143
aI5
aI209
aI210
aI211
aI212
aa(lp1340
I569
aI106
aI240
aI58
aI570
aI571
aa(lp1341
I143
aI130
aI58
aI499
aI98
aI572
aa(lp1342
I45
aI74
aI573
aI30
aI169
aI410
aa(lp1343
I574
aI9
aI94
aI46
aI226
aI7
aa(lp1344
I193
aI356
aI143
aI267
aI332
aI527
aa(lp1345
I509
aI368
aI381
aI207
aI219
aI219
aa(lp1346
I360
aI9
aI359
aI305
aI46
aI361
aa(lp1347
I59
aI10
aI325
aI341
aI539
aI298
aa(lp1348
I52
aI143
aI66
aI3
aI40
aI575
aa(lp1349
I5
aI576
aI0
aI143
aI58
aI317
aa(lp1350
I577
aI107
aI66
aI578
aI192
aI211
aa(lp1351
I5
aI579
aI143
aI40
aI513
aI580
aa(lp1352
I583
aI582
aI581
aI9
aI584
aI33
aa(lp1353
I585
aI130
aI58
aI3
aI226
aI5
aa(lp1354
I83
aI7
aI586
aI182
aI543
aI587
aa(lp1355
I85
aI143
aI94
aI264
aI588
aI5
aa(lp1356
I589
aI31
aI94
aI55
aI590
aI7
aa(lp1357
I592
aI135
aI591
aI593
aI594
aI0
aa(lp1358
I117
aI159
aI355
aI98
aI595
aI267
aa(lp1359
I11
aI597
aI596
aI598
aI19
aI211
aa(lp1360
I558
aI599
aI86
aI3
aI38
aI135
aa(lp1361
I182
aI5
aI295
aI58
aI97
aI7
aa(lp1362
I301
aI58
aI600
aI601
aI6
aI264
aa(lp1363
I230
aI186
aI2
aI111
aI182
aI89
aa(lp1364
I207
aI52
aI5
aI602
aI173
aI603
aa(lp1365
I604
aI143
aI2
aI605
aI11
aI606
aa(lp1366
I608
aI526
aI607
aI609
aI9
aI610
aa(lp1367
I611
aI48
aI117
aI7
aI111
aI612
aa(lp1368
I94
aI0
aI5
aI34
aI188
aI3
aa(lp1369
I146
aI613
aI295
aI58
aI371
aI7
aa(lp1370
I614
aI48
aI271
aI85
aI0
aI615
aa(lp1371
I130
aI58
aI466
aI85
aI130
aI3
aa(lp1372
I135
aI616
aI143
aI617
aI30
aI346
aa(lp1373
I188
aI0
aI129
aI3
aI40
aI173
aa(lp1374
I143
aI123
aI117
aI136
aI54
aI211
aa(lp1375
I333
aI328
aI129
aI339
aI618
aI619
aa(lp1376
I621
aI30
aI620
aI524
aI622
aI7
aa(lp1377
I624
aI623
aI2
aI625
aI158
aI626
aa(lp1378
I11
aI627
aI14
aI40
aI173
aI628
aa(lp1379
I629
aI106
aI66
aI106
aI630
aI631
aa(lp1380
I19
aI5
aI632
aI7
aI616
aI5
aa(lp1381
I28
aI59
aI633
aI146
aI54
aI30
aa(lp1382
I634
aI130
aI12
aI608
aI130
aI58
aa(lp1383
I9
aI635
aI19
aI4
aI636
aI637
aa(lp1384
I525
aI143
aI156
aI638
aI639
aI146
aa(lp1385
I640
aI576
aI0
aI88
aI9
aI295
aa(lp1386
I642
aI641
aI66
aI89
aI143
aI211
aa(lp1387
I643
aI455
aI5
aI457
aI54
aI19
aa(lp1388
I52
aI0
aI14
aI58
aI203
aI5
aa(lp1389
I645
aI644
aI0
aI3
aI58
aI646
aa(lp1390
I106
aI647
aI106
aI466
aI40
aI5
aa(lp1391
I0
aI52
aI648
aI-1
aI-1
aI-1
aa(lp1392
I287
aI649
aI0
aI86
aI650
aI651
aa(lp1393
I622
aI32
aI94
aI86
aI652
aI150
aa(lp1394
I114
aI113
aI112
aI518
aI519
aI653
aa(lp1395
I40
aI206
aI357
aI40
aI654
aI17
aa(lp1396
I11
aI23
aI0
aI140
aI75
aI33
aa(lp1397
I655
aI207
aI67
aI102
aI7
aI81
aa(lp1398
I656
aI44
aI111
aI47
aI48
aI539
aa(lp1399
I250
aI657
aI7
aI143
aI561
aI11
aa(lp1400
I658
aI156
aI7
aI3
aI4
aI659
aa(lp1401
I6
aI0
aI5
aI7
aI196
aI11
aa(lp1402
I11
aI660
aI19
aI264
aI661
aI349
aa(lp1403
I114
aI113
aI112
aI662
aI518
aI519
aa(lp1404
I583
aI582
aI581
aI9
aI584
aI33
aa(lp1405
I664
aI663
aI143
aI341
aI24
aI11
aa(lp1406
I30
aI612
aI143
aI150
aI665
aI330
aa(lp1407
I51
aI666
aI143
aI380
aI182
aI667
aa(lp1408
I182
aI668
aI135
aI148
aI19
aI640
aa(lp1409
I19
aI135
aI129
aI230
aI556
aI669
aa(lp1410
I146
aI168
aI670
aI0
aI346
aI671
aa(lp1411
I672
aI48
aI295
aI46
aI673
aI7
aa(lp1412
I676
aI675
aI674
aI677
aI678
aI679
aa(lp1413
I83
aI7
aI117
aI680
aI681
aI682
aa(lp1414
I143
aI308
aI66
aI58
aI683
aI143
aa(lp1415
I612
aI685
aI684
aI150
aI111
aI19
aa(lp1416
I94
aI54
aI44
aI3
aI40
aI513
aa(lp1417
I189
aI686
aI94
aI111
aI182
aI657
aa(lp1418
I560
aI559
aI135
aI561
aI562
aI563
aa(lp1419
I687
aI115
aI2
aI46
aI32
aI123
aa(lp1420
I299
aI0
aI64
aI9
aI346
aI671
aa(lp1421
I30
aI182
aI144
aI301
aI58
aI431
aa(lp1422
I558
aI159
aI688
aI75
aI539
aI689
aa(lp1423
I365
aI5
aI690
aI98
aI5
aI180
aa(lp1424
I175
aI106
aI129
aI12
aI691
aI692
aa(lp1425
I5
aI693
aI0
aI230
aI619
aI188
aa(lp1426
I192
aI58
aI694
aI305
aI40
aI524
aa(lp1427
I695
aI143
aI66
aI150
aI4
aI696
aa(lp1428
I698
aI697
aI2
aI699
aI143
aI301
aa(lp1429
I701
aI700
aI19
aI48
aI5
aI400
aa(lp1430
I9
aI702
aI5
aI703
aI19
aI14
aa(lp1431
I503
aI7
aI704
aI7
aI642
aI7
aa(lp1432
I130
aI58
aI92
aI143
aI466
aI89
aa(lp1433
I98
aI579
aI66
aI446
aI7
aI84
aa(lp1434
I706
aI9
aI705
aI349
aI11
aI679
aa(lp1435
I707
aI305
aI539
aI242
aI305
aI708
aa(lp1436
I709
aI19
aI52
aI9
aI5
aI710
aa(lp1437
I28
aI711
aI372
aI401
aI389
aI378
aa(lp1438
I7
aI319
aI2
aI317
aI98
aI158
aa(lp1439
I188
aI143
aI66
aI334
aI712
aI32
aa(lp1440
I577
aI107
aI66
aI578
aI192
aI211
aa(lp1441
I713
aI713
aI163
aI673
aI163
aI7
aa(lp1442
I715
aI714
aI94
aI111
aI716
aI717
aa(lp1443
I719
aI718
aI295
aI333
aI614
aI117
aa(lp1444
I720
aI7
aI372
aI3
aI314
aI346
aa(lp1445
I90
aI187
aI48
aI188
aI189
aI5
aa(lp1446
I722
aI143
aI721
aI7
aI148
aI44
aa(lp1447
I52
aI5
aI586
aI3
aI723
aI98
aa(lp1448
I5
aI552
aI0
aI188
aI146
aI724
aa(lp1449
I40
aI525
aI143
aI40
aI725
aI17
aa(lp1450
I726
aI67
aI66
aI48
aI5
aI131
aa(lp1451
I9
aI438
aI638
aI295
aI305
aI71
aa(lp1452
I75
aI5
aI727
aI3
aI51
aI267
aa(lp1453
I160
aI54
aI19
aI3
aI46
aI40
aa(lp1454
I284
aI728
aI94
aI111
aI52
aI95
aa(lp1455
I729
aI410
aI2
aI730
aI143
aI14
aa(lp1456
I0
aI298
aI731
aI399
aI11
aI732
aa(lp1457
I734
aI5
aI733
aI3
aI24
aI735
aa(lp1458
I107
aI736
aI207
aI737
aI334
aI738
aa(lp1459
I297
aI296
aI295
aI82
aI298
aI299
aa(lp1460
I5
aI739
aI44
aI111
aI740
aI54
aa(lp1461
I148
aI135
aI117
aI270
aI341
aI30
aa(lp1462
I9
aI40
aI240
aI455
aI17
aI98
aa(lp1463
I741
aI9
aI64
aI58
aI120
aI9
aa(lp1464
I143
aI743
aI742
aI9
aI744
aI745
aa(lp1465
I9
aI117
aI746
aI144
aI83
aI7
aa(lp1466
I720
aI747
aI94
aI145
aI143
aI305
aa(lp1467
I749
aI748
aI129
aI40
aI750
aI192
aa(lp1468
I54
aI11
aI751
aI267
aI752
aI753
aa(lp1469
I146
aI754
aI117
aI40
aI755
aI30
aa(lp1470
I643
aI455
aI5
aI457
aI54
aI19
aa(lp1471
I756
aI32
aI52
aI98
aI346
aI210
aa(lp1472
I757
aI414
aI44
aI120
aI5
aI758
aa(lp1473
I759
aI136
aI150
aI458
aI137
aI192
aa(lp1474
I583
aI582
aI581
aI9
aI584
aI33
aa(lp1475
I761
aI9
aI760
aI762
aI98
aI763
aa(lp1476
I37
aI143
aI52
aI0
aI11
aI210
aa(lp1477
I764
aI346
aI115
aI251
aI144
aI89
aa(lp1478
I767
aI766
aI765
aI40
aI173
aI768
aa(lp1479
I769
aI355
aI413
aI58
aI97
aI7
aa(lp1480
I185
aI184
aI135
aI3
aI58
aI186
aa(lp1481
I753
aI34
aI447
aI111
aI182
aI770
aa(lp1482
I771
aI58
aI0
aI3
aI111
aI772
aa(lp1483
I11
aI10
aI7
aI98
aI773
aI245
aa(lp1484
I774
aI11
aI10
aI699
aI446
aI7
aa(lp1485
I344
aI284
aI94
aI67
aI775
aI98
aa(lp1486
I538
aI143
aI270
aI212
aI250
aI192
aa(lp1487
I1
aI0
aI127
aI776
aI86
aI777
aa(lp1488
I583
aI582
aI581
aI9
aI584
aI33
aa(lp1489
I778
aI750
aI143
aI98
aI779
aI40
aa(lp1490
I780
aI98
aI117
aI585
aI781
aI782
aa(lp1491
I136
aI52
aI14
aI3
aI137
aI98
aa(lp1492
I389
aI783
aI2
aI784
aI75
aI5
aa(lp1493
I101
aI5
aI493
aI143
aI52
aI305
aa(lp1494
I200
aI44
aI111
aI8
aI148
aI5
aa(lp1495
I284
aI785
aI2
aI58
aI786
aI207
aa(lp1496
I34
aI37
aI2
aI58
aI466
aI182
aa(lp1497
I5
aI787
aI472
aI264
aI588
aI199
aa(lp1498
I788
aI32
aI5
aI98
aI789
aI790
aa(lp1499
I0
aI207
aI791
aI5
aI792
aI793
aa(lp1500
I794
aI230
aI117
aI390
aI795
aI33
aa(lp1501
I797
aI9
aI796
aI48
aI540
aI541
aa(lp1502
I235
aI58
aI161
aI236
aI98
aI237
aa(lp1503
I346
aI54
aI798
aI9
aI799
aI123
aa(lp1504
I43
aI800
aI5
aI19
aI5
aI801
aa(lp1505
I804
aI803
aI802
aI805
aI806
aI807
aa(lp1506
I30
aI558
aI5
aI48
aI5
aI808
aa(lp1507
I810
aI0
aI809
aI341
aI28
aI371
aa(lp1508
I811
aI146
aI107
aI812
aI0
aI5
aa(lp1509
I167
aI5
aI110
aI3
aI813
aI5
aa(lp1510
I134
aI133
aI132
aI7
aI28
aI135
aa(lp1511
I120
aI548
aI67
aI814
aI30
aI815
aa(lp1512
I44
aI58
aI66
aI466
aI4
aI816
aa(lp1513
I11
aI23
aI0
aI817
aI7
aI158
aa(lp1514
I44
aI30
aI54
aI46
aI37
aI5
aa(lp1515
I7
aI818
aI86
aI634
aI34
aI461
aa(lp1516
I299
aI819
aI14
aI12
aI750
aI7
aa(lp1517
I182
aI820
aI111
aI170
aI5
aI821
aa(lp1518
I11
aI105
aI2
aI4
aI105
aI106
aa(lp1519
I576
aI0
aI822
aI3
aI58
aI823
aa(lp1520
I30
aI824
aI19
aI7
aI28
aI344
aa(lp1521
I825
aI230
aI2
aI58
aI34
aI144
aa(lp1522
I486
aI0
aI211
aI487
aI94
aI0
aa(lp1523
I0
aI298
aI731
aI399
aI11
aI732
aa(lp1524
I9
aI120
aI558
aI143
aI188
aI6
aa(lp1525
I826
aI9
aI5
aI143
aI827
aI85
aa(lp1526
I828
aI7
aI5
aI0
aI5
aI829
aa(lp1527
I349
aI194
aI143
aI3
aI12
aI228
aa(lp1528
I17
aI130
aI295
aI226
aI830
aI48
aa(lp1529
I831
aI107
aI2
aI89
aI143
aI130
aa(lp1530
I676
aI675
aI674
aI677
aI678
aI679
aa(lp1531
I11
aI416
aI0
aI3
aI20
aI144
aa(lp1532
I219
aI0
aI5
aI230
aI98
aI211
aa(lp1533
I11
aI398
aI832
aI98
aI5
aI833
aa(lp1534
I834
aI19
aI94
aI835
aI424
aI182
aa(lp1535
I5
aI180
aI179
aI98
aI130
aI143
aa(lp1536
I567
aI207
aI836
aI40
aI173
aI206
aa(lp1537
I837
aI143
aI2
aI58
aI4
aI86
aa(lp1538
I182
aI107
aI693
aI34
aI778
aI436
aa(lp1539
I239
aI623
aI48
aI19
aI314
aI78
aa(lp1540
I196
aI838
aI0
aI98
aI701
aI839
aa(lp1541
I34
aI700
aI5
aI0
aI5
aI840
aa(lp1542
I841
aI643
aI66
aI48
aI413
aI842
aa(lp1543
I844
aI843
aI575
aI9
aI845
aI58
aa(lp1544
I44
aI111
aI14
aI846
aI847
aI98
aa(lp1545
I135
aI515
aI514
aI247
aI84
aI85
aa(lp1546
I613
aI848
aI132
aI0
aI143
aI849
aa(lp1547
I850
aI98
aI355
aI219
aI106
aI168
aa(lp1548
I67
aI851
aI150
aI852
aI576
aI123
aa(lp1549
I123
aI111
aI535
aI111
aI143
aI853
aa(lp1550
I413
aI210
aI0
aI9
aI182
aI189
aa(lp1551
I160
aI54
aI19
aI3
aI46
aI40
aa(lp1552
I854
aI143
aI2
aI40
aI365
aI143
aa(lp1553
I450
aI143
aI855
aI226
aI732
aI5
aa(lp1554
I54
aI856
aI123
aI45
aI30
aI7
aa(lp1555
I368
aI5
aI857
aI346
aI858
aI0
aa(lp1556
I28
aI859
aI7
aI3
aI770
aI7
aa(lp1557
I235
aI34
aI390
aI860
aI143
aI5
aa(lp1558
I159
aI207
aI36
aI9
aI446
aI7
aa(lp1559
I83
aI82
aI5
aI84
aI85
aI86
aa(lp1560
I313
aI312
aI0
aI861
aI752
aI7
aa(lp1561
I862
aI143
aI5
aI3
aI448
aI33
aa(lp1562
I438
aI437
aI67
aI267
aI28
aI863
aa(lp1563
I126
aI106
aI66
aI86
aI127
aI128
aa(lp1564
I864
aI67
aI66
aI111
aI51
aI226
aa(lp1565
I5
aI492
aI0
aI3
aI12
aI239
aa(lp1566
I11
aI23
aI0
aI106
aI865
aI287
aa(lp1567
I5
aI866
aI797
aI40
aI867
aI868
aa(lp1568
I158
aI5
aI727
aI869
aI175
aI9
aa(lp1569
I380
aI870
aI381
aI7
aI156
aI14
aa(lp1570
I159
aI7
aI94
aI143
aI54
aI34
aa(lp1571
I656
aI240
aI586
aI264
aI11
aI25
aa(lp1572
I29
aI526
aI607
aI7
aI40
aI871
aa(lp1573
I252
aI230
aI5
aI3
aI872
aI30
aa(lp1574
I54
aI182
aI539
aI242
aI271
aI11
aa(lp1575
I873
aI136
aI585
aI347
aI4
aI874
aa(lp1576
I677
aI875
aI94
aI876
aI877
aI54
aa(lp1577
I301
aI878
aI175
aI58
aI879
aI7
aa(lp1578
I143
aI94
aI822
aI136
aI880
aI143
aa(lp1579
I0
aI152
aI9
aI98
aI153
aI3
aa(lp1580
I373
aI372
aI371
aI7
aI374
aI375
aa(lp1581
I0
aI5
aI381
aI631
aI346
aI881
aa(lp1582
I883
aI94
aI882
aI9
aI5
aI884
aa(lp1583
I9
aI885
aI94
aI98
aI886
aI51
aa(lp1584
I7
aI328
aI94
aI9
aI887
aI253
aa(lp1585
I888
aI67
aI66
aI92
aI361
aI67
aa(lp1586
I5
aI552
aI94
aI889
aI7
aI101
aa(lp1587
I890
aI347
aI98
aI3
aI58
aI891
aa(lp1588
I296
aI892
aI0
aI3
aI738
aI788
aa(lp1589
I182
aI120
aI143
aI264
aI893
aI894
aa(lp1590
I143
aI5
aI727
aI895
aI896
aI7
aa(lp1591
I897
aI686
aI2
aI898
aI7
aI30
aa(lp1592
I17
aI7
aI899
aI560
aI900
aI264
aa(lp1593
I5
aI165
aI901
aI28
aI155
aI7
aa(lp1594
I34
aI46
aI37
aI98
aI902
aI146
aa(lp1595
I339
aI772
aI903
aI4
aI30
aI16
aa(lp1596
I904
aI107
aI143
aI3
aI905
aI462
aa(lp1597
I446
aI33
aI19
aI3
aI4
aI33
aa(lp1598
I906
aI287
aI432
aI380
aI111
aI346
aa(lp1599
I778
aI907
aI0
aI446
aI7
aI120
aa(lp1600
I909
aI908
aI5
aI3
aI635
aI424
aa(lp1601
I556
aI0
aI910
aI868
aI211
aI903
aa(lp1602
I248
aI4
aI19
aI763
aI85
aI0
aa(lp1603
I911
aI75
aI5
aI438
aI297
aI350
aa(lp1604
I912
aI308
aI66
aI913
aI143
aI914
aa(lp1605
I611
aI48
aI915
aI106
aI314
aI910
aa(lp1606
I916
aI359
aI586
aI30
aI54
aI165
aa(lp1607
I114
aI113
aI112
aI115
aI0
aI116
aa(lp1608
I346
aI917
aI94
aI89
aI619
aI297
aa(lp1609
I0
aI918
aI235
aI919
aI918
aI372
aa(lp1610
I7
aI921
aI920
aI398
aI3
aI661
aa(lp1611
I924
aI923
aI922
aI925
aI7
aI64
aa(lp1612
I115
aI19
aI94
aI264
aI94
aI165
aa(lp1613
I413
aI0
aI372
aI3
aI631
aI182
aa(lp1614
I37
aI143
aI94
aI45
aI143
aI30
aa(lp1615
I337
aI926
aI7
aI117
aI284
aI144
aa(lp1616
I634
aI392
aI240
aI714
aI5
aI927
aa(lp1617
I295
aI301
aI250
aI701
aI928
aI7
aa(lp1618
I264
aI123
aI929
aI75
aI930
aI7
aa(lp1619
I931
aI32
aI14
aI40
aI513
aI166
aa(lp1620
I182
aI932
aI5
aI34
aI933
aI86
aa(lp1621
I3
aI111
aI372
aI37
aI305
aI58
aa(lp1622
I143
aI558
aI835
aI934
aI935
aI92
aa(lp1623
I366
aI144
aI365
aI251
aI226
aI7
aa(lp1624
I691
aI100
aI642
aI40
aI108
aI550
aa(lp1625
I936
aI19
aI684
aI3
aI46
aI188
aa(lp1626
I558
aI11
aI10
aI98
aI5
aI937
aa(lp1627
I7
aI613
aI52
aI9
aI143
aI52
aa(lp1628
I921
aI30
aI938
aI939
aI722
aI189
aa(lp1629
I750
aI135
aI117
aI143
aI30
aI144
aa(lp1630
I9
aI940
aI0
aI3
aI169
aI146
aa(lp1631
I297
aI296
aI295
aI341
aI28
aI317
aa(lp1632
I769
aI355
aI413
aI58
aI97
aI7
aa(lp1633
I52
aI941
aI817
aI58
aI942
aI341
aa(lp1634
I525
aI143
aI2
aI4
aI33
aI86
aa(lp1635
I612
aI282
aI2
aI762
aI943
aI34
aa(lp1636
I83
aI7
aI586
aI182
aI543
aI587
aa(lp1637
I146
aI135
aI5
aI143
aI4
aI30
aa(lp1638
I11
aI23
aI0
aI341
aI28
aI317
aa(lp1639
I5
aI312
aI0
aI34
aI525
aI944
aa(lp1640
I381
aI182
aI371
aI7
aI97
aI357
aa(lp1641
I525
aI143
aI156
aI638
aI639
aI146
aa(lp1642
I106
aI647
aI106
aI466
aI40
aI5
aa(lp1643
I115
aI308
aI66
aI81
aI945
aI9
aa(lp1644
I9
aI34
aI188
aI267
aI946
aI86
aa(lp1645
I11
aI23
aI0
aI106
aI865
aI287
aa(lp1646
I136
aI67
aI207
aI3
aI58
aI182
aa(lp1647
I0
aI52
aI648
aI-1
aI-1
aI-1
aa(lp1648
I282
aI947
aI0
aI7
aI661
aI86
aa(lp1649
I949
aI686
aI948
aI109
aI7
aI28
aa(lp1650
I7
aI436
aI75
aI3
aI188
aI240
aa(lp1651
I950
aI98
aI2
aI18
aI86
aI405
aa(lp1652
I837
aI230
aI2
aI951
aI143
aI346
aa(lp1653
I953
aI952
aI0
aI3
aI40
aI82
aa(lp1654
I107
aI143
aI954
aI58
aI98
aI5
aa(lp1655
I955
aI52
aI14
aI3
aI137
aI98
aa(lp1656
I284
aI86
aI14
aI677
aI5
aI193
aa(lp1657
I6
aI0
aI5
aI7
aI8
aI9
aa(lp1658
I11
aI956
aI901
aI28
aI155
aI7
aa(lp1659
I414
aI44
aI240
aI46
aI203
aI957
aa(lp1660
I32
aI7
aI958
aI0
aI5
aI959
aa(lp1661
I130
aI58
aI960
aI48
aI36
aI961
aa(lp1662
I757
aI414
aI44
aI120
aI5
aI758
aa(lp1663
I58
aI149
aI0
aI3
aI188
aI237
aa(lp1664
I11
aI576
aI0
aI962
aI107
aI317
aa(lp1665
I184
aI135
aI963
aI3
aI90
aI539
aa(lp1666
I172
aI171
aI170
aI7
aI89
aI51
aa(lp1667
I98
aI964
aI66
aI356
aI143
aI130
aa(lp1668
I3
aI111
aI372
aI37
aI305
aI58
aa(lp1669
I54
aI67
aI60
aI58
aI267
aI7
aa(lp1670
I117
aI365
aI2
aI40
aI695
aI5
aa(lp1671
I965
aI0
aI5
aI3
aI136
aI17
aa(lp1672
I284
aI144
aI966
aI98
aI346
aI967
aa(lp1673
I106
aI34
aI188
aI3
aI339
aI189
aa(lp1674
I46
aI170
aI520
aI7
aI968
aI969
aa(lp1675
I6
aI0
aI5
aI7
aI8
aI9
aa(lp1676
I134
aI133
aI132
aI7
aI28
aI135
aa(lp1677
I143
aI970
aI74
aI3
aI971
aI461
aa(lp1678
I918
aI189
aI240
aI7
aI38
aI972
aa(lp1679
I66
aI240
aI112
aI267
aI28
aI336
aa(lp1680
I677
aI875
aI94
aI876
aI877
aI54
aa(lp1681
I399
aI52
aI372
aI9
aI973
aI52
aa(lp1682
I9
aI143
aI44
aI201
aI427
aI48
aa(lp1683
I176
aI143
aI2
aI177
aI98
aI178
aa(lp1684
I230
aI106
aI94
aI4
aI7
aI414
aa(lp1685
I5
aI975
aI974
aI0
aI52
aI712
aa(lp1686
I192
aI9
aI295
aI226
aI34
aI150
aa(lp1687
I54
aI143
aI142
aI58
aI144
aI110
aa(lp1688
I0
aI237
aI359
aI19
aI211
aI428
aa(lp1689
I30
aI295
aI94
aI4
aI976
aI7
aa(lp1690
I58
aI11
aI10
aI977
aI3
aI58
aa(lp1691
I52
aI0
aI14
aI58
aI203
aI5
aa(lp1692
I267
aI101
aI51
aI3
aI226
aI214
aa(lp1693
I486
aI0
aI211
aI487
aI94
aI0
aa(lp1694
I19
aI123
aI111
aI86
aI978
aI37
aa(lp1695
I980
aI0
aI979
aI58
aI981
aI7
aa(lp1696
I982
aI58
aI432
aI3
aI40
aI723
aa(lp1697
I984
aI983
aI101
aI67
aI7
aI985
aa(lp1698
I9
aI40
aI240
aI455
aI17
aI98
aa(lp1699
I986
aI9
aI66
aI85
aI130
aI987
aa(lp1700
I931
aI264
aI123
aI58
aI839
aI7
aa(lp1701
I988
aI106
aI66
aI989
aI264
aI298
aa(lp1702
I10
aI0
aI123
aI306
aI6
aI34
aa(lp1703
I143
aI237
aI990
aI7
aI359
aI62
aa(lp1704
I992
aI991
aI533
aI341
aI28
aI226
aa(lp1705
I5
aI450
aI7
aI3
aI107
aI451
aa(lp1706
I9
aI993
aI113
aI788
aI298
aI739
aa(lp1707
I146
aI7
aI994
aI221
aI7
aI372
aa(lp1708
I319
aI143
aI94
aI3
aI550
aI7
aa(lp1709
I97
aI7
aI5
aI9
aI101
aI33
aa(lp1710
I134
aI133
aI132
aI7
aI28
aI135
aa(lp1711
I107
aI295
aI161
aI226
aI253
aI231
aa(lp1712
I14
aI996
aI995
aI622
aI7
aI544
aa(lp1713
I54
aI997
aI135
aI182
aI998
aI211
aa(lp1714
I5
aI999
aI270
aI143
aI1000
aI98
aa(lp1715
I30
aI235
aI58
aI97
aI7
aI1001
aa(lp1716
I108
aI1002
aI98
aI596
aI5
aI1003
aa(lp1717
I11
aI23
aI0
aI34
aI769
aI1004
aa(lp1718
I888
aI1005
aI499
aI662
aI337
aI2
aa(lp1719
I106
aI299
aI106
aI539
aI175
aI85
aa(lp1720
I357
aI424
aI51
aI158
aI143
aI917
aa(lp1721
I265
aI1006
aI947
aI1007
aI1008
aI46
aa(lp1722
I1010
aI135
aI1009
aI58
aI182
aI287
aa(lp1723
I9
aI567
aI533
aI267
aI723
aI115
aa(lp1724
I9
aI40
aI240
aI455
aI17
aI98
aa(lp1725
I0
aI5
aI381
aI1011
aI11
aI953
aa(lp1726
I608
aI526
aI607
aI609
aI9
aI610
aa(lp1727
I122
aI12
aI52
aI68
aI5
aI1012
aa(lp1728
I0
aI52
aI5
aI34
aI188
aI3
aa(lp1729
I570
aI143
aI5
aI3
aI539
aI1013
aa(lp1730
I988
aI106
aI66
aI989
aI264
aI298
aa(lp1731
I1015
aI1014
aI2
aI524
aI1016
aI570
aa(lp1732
I485
aI1017
aI150
aI458
aI137
aI192
aa(lp1733
I1018
aI980
aI0
aI54
aI701
aI1019
aa(lp1734
I83
aI7
aI117
aI680
aI681
aI682
aa(lp1735
I296
aI123
aI57
aI40
aI86
aI5
aa(lp1736
I217
aI168
aI2
aI267
aI38
aI14
aa(lp1737
I9
aI688
aI1020
aI9
aI1021
aI1022
aa(lp1738
I301
aI1023
aI359
aI877
aI1024
aI9
aa(lp1739
I640
aI576
aI0
aI295
aI51
aI1025
aa(lp1740
I94
aI0
aI5
aI348
aI301
aI40
aa(lp1741
I431
aI7
aI117
aI143
aI40
aI82
aa(lp1742
I149
aI0
aI1026
aI98
aI5
aI1027
aa(lp1743
I642
aI1028
aI623
aI3
aI251
aI891
aa(lp1744
I86
aI413
aI94
aI46
aI45
aI143
aa(lp1745
I1030
aI0
aI1029
aI341
aI40
aI7
aa(lp1746
I873
aI136
aI585
aI347
aI4
aI874
aa(lp1747
I642
aI9
aI112
aI308
aI30
aI622
aa(lp1748
I160
aI54
aI19
aI3
aI46
aI40
aa(lp1749
I158
aI5
aI919
aI32
aI7
aI203
aa(lp1750
I688
aI350
aI9
aI333
aI474
aI5
aa(lp1751
I7
aI40
aI117
aI1031
aI98
aI9
aa(lp1752
I630
aI230
aI577
aI267
aI1032
aI9
aa(lp1753
I106
aI7
aI67
aI58
aI703
aI293
aa(lp1754
I19
aI1033
aI75
aI3
aI40
aI1034
aa(lp1755
I34
aI188
aI440
aI143
aI58
aI466
aa(lp1756
I58
aI752
aI135
aI86
aI11
aI1035
aa(lp1757
I314
aI2
aI300
aI230
aI295
aI305
aa(lp1758
I1037
aI1036
aI2
aI339
aI622
aI7
aa(lp1759
I264
aI588
aI2
aI3
aI58
aI182
aa(lp1760
I106
aI11
aI99
aI1038
aI48
aI211
aa(lp1761
I28
aI1039
aI19
aI86
aI1040
aI1041
aa(lp1762
I1042
aI34
aI663
aI341
aI737
aI5
aa(lp1763
I1044
aI1043
aI0
aI341
aI410
aI156
aa(lp1764
I911
aI686
aI1045
aI913
aI763
aI130
aa(lp1765
I6
aI1046
aI295
aI46
aI158
aI123
aa(lp1766
I9
aI1047
aI66
aI3
aI12
aI1048
aa(lp1767
I1049
aI150
aI137
aI86
aI1050
aI1051
aa(lp1768
I34
aI267
aI1052
aI7
aI436
aI207
aa(lp1769
I820
aI67
aI66
aI341
aI32
aI30
aa(lp1770
I301
aI119
aI1053
aI295
aI301
aI212
aa(lp1771
I101
aI5
aI493
aI143
aI52
aI305
aa(lp1772
I34
aI341
aI1054
aI328
aI5
aI1055
aa(lp1773
I11
aI23
aI0
aI85
aI130
aI3
aa(lp1774
I11
aI23
aI0
aI106
aI865
aI287
aa(lp1775
I139
aI146
aI835
aI19
aI754
aI95
aa(lp1776
I1056
aI210
aI0
aI446
aI871
aI7
aa(lp1777
I46
aI37
aI94
aI45
aI123
aI11
aa(lp1778
I0
aI1057
aI19
aI7
aI1058
aI192
aa(lp1779
I337
aI235
aI811
aI287
aI586
aI1059
aa(lp1780
I1060
aI14
aI1060
aI1061
aI40
aI84
aa(lp1781
I37
aI143
aI66
aI3
aI4
aI1062
aa(lp1782
I28
aI548
aI235
aI723
aI298
aI240
aa(lp1783
I19
aI346
aI1063
aI723
aI723
aI1064
aa(lp1784
I235
aI58
aI161
aI236
aI98
aI237
aa(lp1785
I134
aI133
aI132
aI7
aI28
aI135
aa(lp1786
I11
aI23
aI0
aI219
aI130
aI30
aa(lp1787
I102
aI143
aI230
aI380
aI1065
aI7
aa(lp1788
I139
aI30
aI250
aI788
aI447
aI146
aa(lp1789
I1066
aI240
aI284
aI3
aI46
aI967
aa(lp1790
I235
aI58
aI161
aI236
aI98
aI237
aa(lp1791
I7
aI52
aI51
aI143
aI37
aI30
aa(lp1792
I146
aI189
aI870
aI3
aI46
aI153
aa(lp1793
I150
aI1067
aI123
aI37
aI214
aI58
aa(lp1794
I1068
aI107
aI64
aI466
aI111
aI40
aa(lp1795
I5
aI576
aI0
aI143
aI89
aI30
aa(lp1796
I1069
aI9
aI2
aI365
aI143
aI34
aa(lp1797
I693
aI0
aI1070
aI446
aI9
aI1071
aa(lp1798
I1072
aI67
aI66
aI0
aI66
aI125
aa(lp1799
I1044
aI1043
aI0
aI341
aI410
aI156
aa(lp1800
I0
aI207
aI1073
aI98
aI1074
aI1075
aa(lp1801
I148
aI334
aI452
aI67
aI60
aI453
aa(lp1802
I1076
aI931
aI19
aI7
aI38
aI1077
aa(lp1803
I10
aI0
aI372
aI58
aI235
aI51
aa(lp1804
I1079
aI1078
aI370
aI98
aI1080
aI339
aa(lp1805
I456
aI455
aI5
aI457
aI54
aI19
aa(lp1806
I1082
aI0
aI1081
aI36
aI769
aI54
aa(lp1807
I393
aI0
aI5
aI1083
aI1084
aI367
aa(lp1808
I235
aI58
aI161
aI236
aI196
aI908
aa(lp1809
I9
aI23
aI0
aI431
aI7
aI5
aa(lp1810
I75
aI742
aI2
aI623
aI33
aI305
aa(lp1811
I1086
aI1085
aI295
aI919
aI1087
aI39
aa(lp1812
I7
aI5
aI1088
aI1089
aI73
aI1090
aa(lp1813
I11
aI416
aI0
aI3
aI1091
aI1092
aa(lp1814
I9
aI438
aI638
aI295
aI305
aI71
aa(lp1815
I356
aI135
aI340
aI143
aI1093
aI297
aa(lp1816
I980
aI0
aI5
aI3
aI82
aI182
aa(lp1817
I5
aI469
aI0
aI24
aI78
aI9
aa(lp1818
I48
aI67
aI66
aI37
aI413
aI110
aa(lp1819
I9
aI1094
aI143
aI46
aI226
aI7
aa(lp1820
I52
aI5
aI1095
aI58
aI301
aI97
aa(lp1821
I52
aI0
aI372
aI3
aI37
aI1096
aa(lp1822
I9
aI190
aI135
aI191
aI192
aI139
aa(lp1823
I357
aI34
aI188
aI1003
aI452
aI1097
aa(lp1824
I19
aI52
aI5
aI143
aI267
aI558
aa(lp1825
I1099
aI98
aI1098
aI102
aI7
aI414
aa(lp1826
I6
aI0
aI5
aI7
aI196
aI11
aa(lp1827
I7
aI5
aI727
aI44
aI30
aI701
aa(lp1828
I97
aI7
aI101
aI143
aI1100
aI82
aa(lp1829
I720
aI67
aI66
aI111
aI51
aI226
aa(lp1830
I11
aI531
aI19
aI7
aI436
aI5
aa(lp1831
I210
aI341
aI371
aI7
aI738
aI1101
aa(lp1832
I106
aI271
aI66
aI3
aI58
aI111
aa(lp1833
I468
aI143
aI586
aI370
aI111
aI723
aa(lp1834
I1102
aI576
aI0
aI359
aI297
aI193
aa(lp1835
I1103
aI86
aI372
aI3
aI46
aI13
aa(lp1836
I143
aI51
aI414
aI657
aI146
aI143
aa(lp1837
I11
aI1104
aI0
aI3
aI442
aI1105
aa(lp1838
I456
aI455
aI5
aI457
aI54
aI19
aa(lp1839
I5
aI739
aI44
aI226
aI7
aI1106
aa(lp1840
I131
aI98
aI1107
aI247
aI730
aI670
aa(lp1841
I219
aI370
aI1108
aI1109
aI19
aI1110
aa(lp1842
I380
aI870
aI381
aI7
aI156
aI14
aa(lp1843
I134
aI133
aI132
aI7
aI28
aI135
aa(lp1844
I1111
aI107
aI66
aI150
aI1112
aI166
aa(lp1845
I32
aI5
aI1113
aI75
aI1114
aI1115
aa(lp1846
I552
aI98
aI586
aI28
aI359
aI146
aa(lp1847
I1116
aI7
aI1092
aI1117
aI130
aI235
aa(lp1848
I7
aI711
aI5
aI75
aI507
aI51
aa(lp1849
I471
aI111
aI51
aI1118
aI1119
aI592
aa(lp1850
I123
aI207
aI5
aI634
aI509
aI305
aa(lp1851
I114
aI113
aI112
aI518
aI519
aI653
aa(lp1852
I823
aI7
aI250
aI5
aI1120
aI143
aa(lp1853
I7
aI52
aI5
aI3
aI13
aI7
aa(lp1854
I34
aI46
aI102
aI101
aI192
aI7
aa(lp1855
I11
aI210
aI0
aI3
aI1121
aI7
aa(lp1856
I130
aI58
aI66
aI226
aI7
aI38
aa(lp1857
I538
aI0
aI586
aI587
aI1062
aI58
aa(lp1858
I235
aI51
aI614
aI7
aI1122
aI86
aa(lp1859
I5
aI1123
aI0
aI1124
aI346
aI1125
aa(lp1860
I1126
aI190
aI5
aI98
aI1127
aI1023
aa(lp1861
I169
aI168
aI28
aI3
aI361
aI207
aa(lp1862
I9
aI1047
aI66
aI3
aI12
aI1048
aa(lp1863
I361
aI1128
aI14
aI1129
aI28
aI1130
aa(lp1864
I5
aI6
aI0
aI3
aI314
aI1131
aa(lp1865
I7
aI52
aI372
aI3
aI1054
aI1132
aa(lp1866
I41
aI66
aI240
aI3
aI40
aI5
aa(lp1867
I277
aI9
aI14
aI58
aI1133
aI0
aa(lp1868
I354
aI19
aI117
aI9
aI28
aI106
aa(lp1869
I188
aI67
aI66
aI737
aI178
aI1134
aa(lp1870
I317
aI670
aI143
aI251
aI32
aI7
aa(lp1871
I134
aI133
aI132
aI7
aI28
aI135
aa(lp1872
I106
aI5
aI381
aI1135
aI509
aI434
aa(lp1873
I604
aI143
aI2
aI605
aI11
aI606
aa(lp1874
I54
aI130
aI58
aI189
aI1136
aI284
aa(lp1875
I840
aI143
aI240
aI40
aI7
aI723
aa(lp1876
I1137
aI7
aI5
aI3
aI658
aI1138
aa(lp1877
I94
aI0
aI5
aI348
aI349
aI182
aa(lp1878
I0
aI265
aI857
aI11
aI1139
aI7
aa(lp1879
I54
aI5
aI739
aI1140
aI75
aI1141
aa(lp1880
I282
aI284
aI5
aI51
aI1142
aI34
aa(lp1881
I5
aI1143
aI2
aI169
aI37
aI30
aa(lp1882
I1144
aI0
aI14
aI341
aI182
aI24
aa(lp1883
I11
aI416
aI0
aI3
aI356
aI143
aa(lp1884
I360
aI56
aI2
aI230
aI182
aI66
aa(lp1885
I1146
aI1145
aI5
aI0
aI280
aI188
aa(lp1886
I160
aI54
aI19
aI3
aI46
aI40
aa(lp1887
I150
aI298
aI693
aI390
aI101
aI192
aa(lp1888
I1148
aI1147
aI10
aI38
aI1149
aI115
aa(lp1889
I644
aI19
aI142
aI32
aI7
aI28
aa(lp1890
I1069
aI9
aI2
aI365
aI143
aI34
aa(lp1891
I52
aI143
aI66
aI3
aI40
aI575
aa(lp1892
I230
aI186
aI2
aI111
aI182
aI89
aa(lp1893
I5
aI439
aI0
aI3
aI46
aI361
aa(lp1894
I1150
aI56
aI143
aI40
aI635
aI5
aa(lp1895
I297
aI296
aI295
aI82
aI298
aI299
aa(lp1896
I135
aI515
aI514
aI247
aI84
aI85
aa(lp1897
I1151
aI9
aI14
aI12
aI708
aI5
aa(lp1898
I286
aI1153
aI1152
aI12
aI11
aI1154
aa(lp1899
I150
aI182
aI1155
aI539
aI308
aI66
aa(lp1900
I333
aI120
aI51
aI328
aI346
aI740
aa(lp1901
I192
aI67
aI234
aI58
aI7
aI203
aa(lp1902
I380
aI38
aI66
aI40
aI1054
aI1156
aa(lp1903
I32
aI5
aI110
aI328
aI30
aI1157
aa(lp1904
I1158
aI284
aI94
aI1159
aI5
aI1160
aa(lp1905
I1162
aI1161
aI115
aI703
aI19
aI175
aa(lp1906
I1163
aI100
aI66
aI58
aI614
aI7
aa(lp1907
I0
aI1164
aI558
aI1165
aI98
aI5
aa(lp1908
I1166
aI698
aI0
aI48
aI400
aI302
aa(lp1909
I7
aI237
aI505
aI230
aI509
aI20
aa(lp1910
I627
aI7
aI40
aI661
aI48
aI30
aa(lp1911
I305
aI872
aI19
aI3
aI120
aI509
aa(lp1912
I5
aI338
aI0
aI86
aI1167
aI1002
aa(lp1913
I1169
aI2
aI1168
aI135
aI31
aI33
aa(lp1914
I160
aI54
aI19
aI3
aI46
aI40
aa(lp1915
I30
aI19
aI5
aI98
aI1170
aI1171
aa(lp1916
I7
aI111
aI86
aI0
aI52
aI712
aa(lp1917
I1172
aI5
aI110
aI150
aI539
aI5
aa(lp1918
I1174
aI1173
aI230
aI40
aI173
aI4
aa(lp1919
I94
aI0
aI5
aI98
aI36
aI1022
aa(lp1920
I5
aI469
aI0
aI24
aI78
aI9
aa(lp1921
I785
aI355
aI66
aI673
aI7
aI1175
aa(lp1922
I1176
aI7
aI148
aI7
aI446
aI72
aa(lp1923
I11
aI1177
aI698
aI1178
aI98
aI1179
aa(lp1924
I572
aI7
aI326
aI7
aI1180
aI175
aa(lp1925
I506
aI237
aI505
aI507
aI237
aI82
aa(lp1926
I341
aI1181
aI5
aI0
aI5
aI414
aa(lp1927
I888
aI111
aI94
aI1182
aI533
aI1183
aa(lp1928
I446
aI871
aI9
aI666
aI5
aI716
aa(lp1929
I211
aI511
aI393
aI101
aI192
aI143
aa(lp1930
I5
aI1184
aI143
aI40
aI173
aI1052
aa(lp1931
I1186
aI86
aI1185
aI354
aI143
aI85
aa(lp1932
I9
aI5
aI493
aI58
aI907
aI0
aa(lp1933
I1187
aI878
aI840
aI19
aI1188
aI686
aa(lp1934
I159
aI85
aI66
aI341
aI218
aI7
aa(lp1935
I1190
aI7
aI1189
aI900
aI2
aI0
aa(lp1936
I136
aI9
aI2
aI365
aI143
aI34
aa(lp1937
I230
aI106
aI129
aI40
aI1191
aI85
aa(lp1938
I33
aI7
aI146
aI3
aI81
aI558
aa(lp1939
I1192
aI295
aI39
aI148
aI1193
aI539
aa(lp1940
I238
aI107
aI66
aI58
aI85
aI0
aa(lp1941
I1194
aI19
aI5
aI788
aI1195
aI590
aa(lp1942
I1196
aI19
aI129
aI143
aI1197
aI150
aa(lp1943
I54
aI1198
aI2
aI120
aI30
aI1199
aa(lp1944
I178
aI848
aI951
aI51
aI188
aI86
aa(lp1945
I419
aI52
aI51
aI3
aI420
aI421
aa(lp1946
I7
aI414
aI123
aI58
aI111
aI51
aa(lp1947
I11
aI210
aI0
aI3
aI82
aI173
aa(lp1948
I207
aI108
aI0
aI98
aI1200
aI9
aa(lp1949
I34
aI1201
aI2
aI111
aI182
aI226
aa(lp1950
I1203
aI1202
aI135
aI446
aI7
aI220
aa(lp1951
I299
aI7
aI688
aI75
aI28
aI455
aa(lp1952
I308
aI1204
aI19
aI7
aI1205
aI85
aa(lp1953
I852
aI295
aI5
aI3
aI341
aI28
aa(lp1954
I1207
aI0
aI1206
aI5
aI500
aI1208
aa(lp1955
I341
aI393
aI1209
aI1187
aI452
aI934
aa(lp1956
I66
aI106
aI1200
aI98
aI5
aI467
aa(lp1957
I34
aI188
aI440
aI3
aI12
aI441
aa(lp1958
I34
aI188
aI66
aI3
aI58
aI1210
aa(lp1959
I34
aI37
aI66
aI341
aI40
aI218
aa(lp1960
I360
aI9
aI359
aI305
aI46
aI361
aa(lp1961
I1169
aI2
aI1168
aI135
aI31
aI33
aa(lp1962
I5
aI110
aI1211
aI723
aI98
aI1212
aa(lp1963
I98
aI5
aI367
aI332
aI111
aI182
aa(lp1964
I11
aI956
aI901
aI28
aI155
aI7
aa(lp1965
I1213
aI67
aI66
aI730
aI355
aI1214
aa(lp1966
I158
aI5
aI96
aI358
aI125
aI658
aa(lp1967
I7
aI359
aI5
aI3
aI359
aI1215
aa(lp1968
I134
aI133
aI132
aI7
aI28
aI135
aa(lp1969
I5
aI1195
aI19
aI317
aI98
aI431
aa(lp1970
I1216
aI1216
aI0
aI3
aI12
aI1217
aa(lp1971
I1088
aI199
aI295
aI1218
aI1219
aI146
aa(lp1972
I23
aI0
aI381
aI46
aI40
aI381
aa(lp1973
I287
aI649
aI0
aI86
aI650
aI651
aa(lp1974
I325
aI324
aI66
aI58
aI326
aI327
aa(lp1975
I1018
aI980
aI0
aI54
aI701
aI1019
aa(lp1976
I7
aI52
aI51
aI143
aI37
aI30
aa(lp1977
I130
aI54
aI298
aI85
aI130
aI3
aa(lp1978
I114
aI113
aI112
aI132
aI222
aI9
aa(lp1979
I643
aI455
aI5
aI457
aI54
aI19
aa(lp1980
I839
aI7
aI158
aI182
aI7
aI97
aa(lp1981
I664
aI663
aI143
aI341
aI24
aI11
aa(lp1982
I414
aI44
aI240
aI46
aI203
aI957
aa(lp1983
I485
aI541
aI64
aI1220
aI390
aI36
aa(lp1984
I1222
aI1221
aI357
aI341
aI1223
aI219
aa(lp1985
I911
aI19
aI1224
aI9
aI647
aI761
aa(lp1986
I1226
aI1225
aI64
aI9
aI7
aI64
aa(lp1987
I1220
aI5
aI1227
aI0
aI1029
aI120
aa(lp1988
I235
aI51
aI1228
aI67
aI778
aI34
aa(lp1989
I709
aI0
aI5
aI135
aI5
aI1229
aa(lp1990
I301
aI58
aI600
aI601
aI6
aI264
aa(lp1991
I1230
aI19
aI94
aI98
aI94
aI1231
aa(lp1992
I106
aI60
aI106
aI1232
aI5
aI1233
aa(lp1993
I143
aI308
aI66
aI40
aI1234
aI5
aa(lp1994
I143
aI743
aI742
aI9
aI744
aI1235
aa(lp1995
I1236
aI7
aI117
aI107
aI1193
aI738
aa(lp1996
I100
aI5
aI1237
aI3
aI1238
aI1239
aa(lp1997
I357
aI34
aI188
aI1003
aI452
aI1240
aa(lp1998
I143
aI94
aI52
aI341
aI182
aI328
aa(lp1999
I2
aI210
aI0
aI5
aI193
aI964
aa(lp2000
I1242
aI14
aI1241
aI370
aI32
aI7
aa(lp2001
I9
aI1243
aI117
aI40
aI1023
aI1244
aa(lp2002
I115
aI308
aI66
aI81
aI945
aI9
aa(lp2003
I139
aI30
aI250
aI788
aI447
aI146
aa(lp2004
I299
aI7
aI688
aI75
aI28
aI455
aa(lp2005
I58
aI59
aI10
aI85
aI130
aI3
aa(lp2006
I146
aI107
aI117
aI3
aI41
aI82
aa(lp2007
I1246
aI1245
aI66
aI89
aI143
aI130
aa(lp2008
I123
aI237
aI750
aI7
aI111
aI120
aa(lp2009
I1247
aI380
aI5
aI3
aI58
aI920
aa(lp2010
I11
aI23
aI240
aI284
aI5
aI1248
aa(lp2011
I456
aI455
aI5
aI457
aI54
aI19
aa(lp2012
I52
aI5
aI299
aI143
aI723
aI98
aa(lp2013
I1005
aI19
aI1249
aI143
aI58
aI1250
aa(lp2014
I98
aI5
aI367
aI332
aI111
aI182
aa(lp2015
I206
aI159
aI51
aI901
aI89
aI1251
aa(lp2016
I226
aI7
aI16
aI188
aI143
aI346
aa(lp2017
I0
aI739
aI19
aI7
aI461
aI305
aa(lp2018
I78
aI971
aI19
aI1252
aI48
aI5
aa(lp2019
I1254
aI1253
aI98
aI34
aI686
aI34
aa(lp2020
I295
aI1255
aI269
aI89
aI30
aI-1
aa(lp2021
I52
aI0
aI5
aI437
aI390
aI895
aa(lp2022
I6
aI7
aI614
aI7
aI392
aI33
aa(lp2023
I869
aI1256
aI6
aI40
aI173
aI188
aa(lp2024
I1257
aI952
aI0
aI410
aI305
aI40
aa(lp2025
I1258
aI230
aI5
aI3
aI58
aI261
aa(lp2026
I834
aI19
aI2
aI677
aI372
aI143
aa(lp2027
I5
aI712
aI0
aI32
aI1259
aI1260
aa(lp2028
I37
aI5
aI727
aI380
aI188
aI143
aa(lp2029
I485
aI1261
aI168
aI34
aI150
aI558
aa(lp2030
I248
aI4
aI19
aI763
aI85
aI0
aa(lp2031
I461
aI265
aI857
aI75
aI1143
aI7
aa(lp2032
I117
aI1262
aI2
aI622
aI7
aI333
aa(lp2033
I1257
aI1263
aI5
aI3
aI40
aI847
aa(lp2034
I538
aI130
aI58
aI219
aI48
aI11
aa(lp2035
I1264
aI9
aI569
aI34
aI778
aI1124
aa(lp2036
I1265
aI240
aI355
aI341
aI1266
aI11
aa(lp2037
I143
aI5
aI1267
aI82
aI1268
aI34
aa(lp2038
I1269
aI592
aI135
aI661
aI19
aI5
aa(lp2039
I52
aI143
aI66
aI123
aI340
aI3
aa(lp2040
I143
aI94
aI822
aI136
aI880
aI143
aa(lp2041
I445
aI444
aI66
aI89
aI143
aI11
aa(lp2042
I188
aI0
aI161
aI3
aI40
aI1270
aa(lp2043
I592
aI7
aI359
aI182
aI7
aI846
aa(lp2044
I19
aI538
aI2
aI58
aI1271
aI686
aa(lp2045
I314
aI98
aI579
aI1272
aI136
aI211
aa(lp2046
I1273
aI14
aI96
aI12
aI544
aI5
aa(lp2047
I0
aI5
aI642
aI701
aI57
aI219
aa(lp2048
I5
aI338
aI0
aI86
aI1167
aI1002
aa(lp2049
I136
aI1098
aI143
aI92
aI4
aI1274
aa(lp2050
I9
aI7
aI1275
aI298
aI1276
aI146
aa(lp2051
I346
aI54
aI798
aI9
aI799
aI230
aa(lp2052
I797
aI9
aI796
aI3
aI12
aI130
aa(lp2053
I106
aI66
aI1277
aI40
aI1191
aI85
aa(lp2054
I1182
aI54
aI143
aI58
aI267
aI7
aa(lp2055
I360
aI9
aI359
aI305
aI46
aI361
aa(lp2056
I11
aI1278
aI19
aI3
aI762
aI1279
aa(lp2057
I1280
aI526
aI525
aI431
aI207
aI67
aa(lp2058
I0
aI1282
aI1281
aI518
aI519
aI653
aa(lp2059
I52
aI143
aI66
aI3
aI40
aI575
aa(lp2060
I1283
aI9
aI299
aI85
aI130
aI189
aa(lp2061
I285
aI284
aI94
aI286
aI287
aI51
aa(lp2062
I5
aI94
aI1284
aI7
aI136
aI7
aa(lp2063
I413
aI0
aI372
aI143
aI144
aI1285
aa(lp2064
I1287
aI182
aI1286
aI5
aI460
aI1288
aa(lp2065
I334
aI1290
aI1289
aI143
aI40
aI1291
aa(lp2066
I441
aI7
aI24
aI48
aI5
aI1292
aa(lp2067
I11
aI642
aI1293
aI75
aI642
aI1294
aa(lp2068
I284
aI785
aI2
aI58
aI786
aI207
aa(lp2069
I106
aI34
aI188
aI3
aI339
aI189
aa(lp2070
I240
aI284
aI1295
aI40
aI723
aI98
aa(lp2071
I98
aI135
aI5
aI239
aI235
aI11
aa(lp2072
I54
aI143
aI94
aI3
aI38
aI1296
aa(lp2073
I6
aI0
aI5
aI1297
aI7
aI1298
aa(lp2074
I28
aI143
aI123
aI120
aI9
aI123
aa(lp2075
I192
aI58
aI694
aI305
aI40
aI524
aa(lp2076
I1299
aI2
aI381
aI977
aI1129
aI40
aa(lp2077
I1300
aI230
aI835
aI1301
aI1302
aI150
aa(lp2078
I58
aI558
aI372
aI98
aI396
aI0
aa(lp2079
I1303
aI900
aI115
aI111
aI182
aI219
aa(lp2080
I734
aI5
aI733
aI3
aI24
aI735
aa(lp2081
I66
aI1304
aI143
aI795
aI1305
aI17
aa(lp2082
I5
aI219
aI0
aI30
aI54
aI450
aa(lp2083
I640
aI576
aI0
aI267
aI219
aI9
aa(lp2084
I107
aI542
aI235
aI688
aI89
aI98
aa(lp2085
I6
aI19
aI52
aI239
aI34
aI162
aa(lp2086
I3
aI150
aI878
aI0
aI752
aI594
aa(lp2087
I346
aI54
aI798
aI9
aI799
aI123
aa(lp2088
I83
aI7
aI855
aI348
aI1221
aI86
aa(lp2089
I44
aI107
aI66
aI58
aI544
aI701
aa(lp2090
I59
aI1306
aI1206
aI58
aI1307
aI9
aa(lp2091
I54
aI143
aI235
aI737
aI346
aI305
aa(lp2092
I98
aI5
aI1308
aI414
aI123
aI1309
aa(lp2093
I83
aI7
aI117
aI680
aI681
aI682
aa(lp2094
I139
aI98
aI387
aI150
aI28
aI1310
aa(lp2095
I298
aI0
aI14
aI58
aI855
aI330
aa(lp2096
I1311
aI9
aI295
aI226
aI192
aI7
aa(lp2097
I341
aI393
aI1209
aI1187
aI452
aI934
aa(lp2098
I1312
aI980
aI0
aI239
aI98
aI1313
aa(lp2099
I1314
aI690
aI94
aI58
aI1315
aI0
aa(lp2100
I11
aI576
aI0
aI962
aI107
aI317
aa(lp2101
I7
aI491
aI5
aI106
aI647
aI106
aa(lp2102
I1316
aI7
aI156
aI3
aI663
aI7
aa(lp2103
I1318
aI1317
aI66
aI271
aI106
aI1319
aa(lp2104
I230
aI130
aI58
aI3
aI120
aI143
aa(lp2105
I75
aI1320
aI2
aI264
aI1321
aI37
aa(lp2106
I98
aI1322
aI586
aI1323
aI7
aI723
aa(lp2107
I5
aI1324
aI143
aI414
aI7
aI5
aa(lp2108
I5
aI576
aI0
aI3
aI1325
aI211
aa(lp2109
I230
aI1326
aI5
aI377
aI51
aI182
aa(lp2110
I447
aI143
aI52
aI1327
aI1328
aI267
aa(lp2111
I28
aI550
aI193
aI380
aI28
aI344
aa(lp2112
I139
aI30
aI250
aI788
aI447
aI146
aa(lp2113
I7
aI1329
aI117
aI1330
aI1331
aI34
aa(lp2114
I143
aI786
aI94
aI9
aI34
aI37
aa(lp2115
I1154
aI393
aI106
aI333
aI7
aI225
aa(lp2116
I341
aI688
aI271
aI702
aI66
aI1332
aa(lp2117
I30
aI9
aI1333
aI377
aI779
aI9
aa(lp2118
I163
aI86
aI163
aI48
aI163
aI1334
aa(lp2119
I1335
aI48
aI117
aI143
aI6
aI558
aa(lp2120
I338
aI19
aI94
aI5
aI1336
aI297
aa(lp2121
I135
aI5
aI59
aI3
aI40
aI5
aa(lp2122
I0
aI706
aI135
aI737
aI346
aI210
aa(lp2123
I86
aI1337
aI5
aI130
aI58
aI1223
aa(lp2124
I188
aI143
aI2
aI267
aI919
aI143
aa(lp2125
I188
aI123
aI259
aI37
aI14
aI980
aa(lp2126
I1111
aI107
aI66
aI150
aI1112
aI166
aa(lp2127
I19
aI1033
aI75
aI3
aI40
aI1034
aa(lp2128
I94
aI54
aI44
aI3
aI40
aI513
aa(lp2129
I143
aI5
aI1267
aI82
aI1268
aI1338
aa(lp2130
I86
aI5
aI727
aI349
aI750
aI346
aa(lp2131
I265
aI1339
aI66
aI1191
aI7
aI5
aa(lp2132
I91
aI90
aI89
aI92
aI24
aI93
aa(lp2133
I169
aI168
aI167
aI163
aI168
aI34
aa(lp2134
I891
aI1340
aI539
aI1341
aI211
aI1342
aa(lp2135
I1344
aI1343
aI2
aI58
aI107
aI1345
aa(lp2136
I114
aI113
aI112
aI1346
aI1347
aI1348
aa(lp2137
I296
aI67
aI66
aI737
aI1349
aI9
aa(lp2138
I5
aI229
aI295
aI46
aI1350
aI388
aa(lp2139
I11
aI1351
aI101
aI7
aI688
aI738
aa(lp2140
I1352
aI30
aI19
aI3
aI40
aI1353
aa(lp2141
I349
aI1354
aI123
aI37
aI207
aI346
aa(lp2142
I160
aI54
aI19
aI3
aI46
aI40
aa(lp2143
I1355
aI143
aI5
aI3
aI723
aI86
aa(lp2144
I812
aI0
aI129
aI48
aI11
aI1356
aa(lp2145
I114
aI106
aI66
aI40
aI437
aI130
aa(lp2146
I143
aI107
aI66
aI24
aI211
aI849
aa(lp2147
I37
aI143
aI2
aI271
aI106
aI1357
aa(lp2148
I9
aI149
aI0
aI38
aI33
aI98
aa(lp2149
I166
aI0
aI1358
aI1330
aI382
aI1100
aa(lp2150
I1331
aI106
aI94
aI3
aI738
aI271
aa(lp2151
I5
aI338
aI0
aI86
aI1167
aI1002
aa(lp2152
I1359
aI123
aI111
aI1054
aI19
aI11
aa(lp2153
I0
aI5
aI6
aI54
aI1360
aI262
aa(lp2154
I297
aI296
aI295
aI82
aI298
aI299
aa(lp2155
I30
aI631
aI250
aI5
aI1361
aI0
aa(lp2156
I30
aI182
aI144
aI301
aI58
aI431
aa(lp2157
I592
aI7
aI359
aI182
aI7
aI846
aa(lp2158
I456
aI44
aI111
aI1362
aI1331
aI196
aa(lp2159
I52
aI5
aI5
aI98
aI5
aI1363
aa(lp2160
I1364
aI825
aI5
aI3
aI539
aI5
aa(lp2161
I1366
aI1365
aI5
aI1367
aI75
aI678
aa(lp2162
I1158
aI284
aI94
aI1159
aI5
aI1160
aa(lp2163
I11
aI956
aI901
aI28
aI155
aI7
aa(lp2164
I297
aI296
aI295
aI82
aI298
aI299
aa(lp2165
I456
aI455
aI5
aI457
aI54
aI19
aa(lp2166
I0
aI1368
aI143
aI58
aI607
aI135
aa(lp2167
I11
aI1369
aI269
aI219
aI98
aI346
aa(lp2168
I5
aI312
aI0
aI34
aI525
aI944
aa(lp2169
I324
aI301
aI102
aI3
aI226
aI7
aa(lp2170
I5
aI1370
aI94
aI46
aI622
aI7
aa(lp2171
I1372
aI1371
aI94
aI341
aI382
aI98
aa(lp2172
I28
aI1373
aI132
aI3
aI144
aI83
aa(lp2173
I1374
aI146
aI135
aI1232
aI5
aI1375
aa(lp2174
I143
aI172
aI117
aI40
aI1376
aI207
aa(lp2175
I9
aI1377
aI1251
aI34
aI40
aI11
aa(lp2176
I1352
aI30
aI19
aI3
aI40
aI1353
aa(lp2177
I11
aI23
aI0
aI817
aI7
aI158
aa(lp2178
I52
aI5
aI1095
aI58
aI301
aI97
aa(lp2179
I235
aI58
aI161
aI236
aI485
aI1378
aa(lp2180
I1379
aI67
aI150
aI1380
aI306
aI346
aa(lp2181
I1382
aI95
aI1381
aI1383
aI143
aI1384
aa(lp2182
I30
aI251
aI156
aI502
aI5
aI1060
aa(lp2183
I1386
aI1385
aI136
aI58
aI158
aI359
aa(lp2184
I160
aI54
aI19
aI3
aI46
aI40
aa(lp2185
I916
aI359
aI586
aI30
aI54
aI165
aa(lp2186
I379
aI37
aI143
aI380
aI332
aI28
aa(lp2187
I9
aI5
aI493
aI58
aI907
aI0
aa(lp2188
I1388
aI1387
aI66
aI40
aI699
aI143
aa(lp2189
I1390
aI1389
aI2
aI89
aI143
aI782
aa(lp2190
I33
aI54
aI135
aI16
aI192
aI188
aa(lp2191
I98
aI30
aI1391
aI98
aI5
aI1392
aa(lp2192
I136
aI130
aI58
aI3
aI58
aI1393
aa(lp2193
I54
aI786
aI207
aI5
aI543
aI9
aa(lp2194
I314
aI2
aI300
aI230
aI295
aI305
aa(lp2195
I7
aI250
aI5
aI342
aI75
aI5
aa(lp2196
I265
aI219
aI1052
aI7
aI1394
aI48
aa(lp2197
I5
aI6
aI0
aI7
aI40
aI211
aa(lp2198
I527
aI135
aI1395
aI162
aI0
aI1029
aa(lp2199
I588
aI135
aI2
aI143
aI52
aI346
aa(lp2200
I54
aI113
aI0
aI107
aI10
aI106
aa(lp2201
I34
aI37
aI1396
aI111
aI182
aI81
aa(lp2202
I1397
aI5
aI398
aI9
aI106
aI647
aa(lp2203
I410
aI1398
aI19
aI107
aI1399
aI135
aa(lp2204
I1400
aI9
aI64
aI12
aI1401
aI707
aa(lp2205
I623
aI98
aI129
aI379
aI5
aI1402
aa(lp2206
I83
aI7
aI117
aI680
aI681
aI682
aa(lp2207
I19
aI538
aI66
aI4
aI1403
aI7
aa(lp2208
I360
aI9
aI359
aI305
aI46
aI361
aa(lp2209
I173
aI1404
aI9
aI341
aI40
aI11
aa(lp2210
I1257
aI1263
aI5
aI3
aI40
aI847
aa(lp2211
I114
aI113
aI112
aI1346
aI1405
aI264
aa(lp2212
I143
aI123
aI66
aI319
aI1406
aI207
aa(lp2213
I1408
aI1407
aI136
aI98
aI289
aI290
aa(lp2214
I46
aI1409
aI240
aI431
aI207
aI5
aa(lp2215
I78
aI971
aI19
aI1252
aI48
aI5
aa(lp2216
I267
aI0
aI5
aI1410
aI106
aI5
aa(lp2217
I48
aI1412
aI1411
aI75
aI5
aI1413
aa(lp2218
I1414
aI54
aI123
aI267
aI40
aI472
aa(lp2219
I264
aI588
aI1415
aI9
aI438
aI1047
aa(lp2220
I1416
aI54
aI359
aI75
aI5
aI1417
aa(lp2221
I230
aI186
aI2
aI111
aI182
aI89
aa(lp2222
I1044
aI1043
aI0
aI341
aI410
aI156
aa(lp2223
I833
aI931
aI19
aI3
aI1418
aI1419
aa(lp2224
I98
aI1420
aI66
aI1421
aI346
aI409
aa(lp2225
I94
aI0
aI5
aI348
aI301
aI40
aa(lp2226
I106
aI510
aI129
aI40
aI699
aI143
aa(lp2227
I1422
aI34
aI302
aI58
aI543
aI9
aa(lp2228
I1423
aI34
aI1091
aI1124
aI1397
aI5
aa(lp2229
I378
aI1424
aI52
aI3
aI40
aI868
aa(lp2230
I1427
aI1426
aI1425
aI267
aI28
aI583
aa(lp2231
I7
aI1428
aI66
aI600
aI51
aI90
aa(lp2232
I1429
aI5
aI6
aI9
aI30
aI54
aa(lp2233
I339
aI226
aI5
aI7
aI188
aI123
aa(lp2234
I334
aI1430
aI259
aI158
aI1431
aI1432
aa(lp2235
I235
aI58
aI161
aI236
aI98
aI237
aa(lp2236
I1433
aI67
aI66
aI111
aI51
aI188
aa(lp2237
I5
aI1434
aI143
aI3
aI111
aI182
aa(lp2238
I32
aI346
aI66
aI40
aI1023
aI862
aa(lp2239
I150
aI158
aI94
aI7
aI250
aI98
aa(lp2240
I583
aI582
aI581
aI9
aI584
aI33
aa(lp2241
I1372
aI149
aI0
aI752
aI1435
aI531
aa(lp2242
I78
aI34
aI37
aI40
aI11
aI6
aa(lp2243
I40
aI1037
aI381
aI59
aI1436
aI9
aa(lp2244
I927
aI14
aI500
aI34
aI778
aI199
aa(lp2245
I1437
aI136
aI58
aI390
aI646
aI146
aa(lp2246
I30
aI144
aI1438
aI1439
aI1440
aI1441
aa(lp2247
I16
aI5
aI449
aI0
aI1442
aI3
aa(lp2248
I1443
aI30
aI115
aI1301
aI106
aI1444
aa(lp2249
I297
aI296
aI295
aI85
aI130
aI40
aa(lp2250
I0
aI1445
aI693
aI1446
aI158
aI584
aa(lp2251
I40
aI1447
aI742
aI4
aI1448
aI7
aa(lp2252
I661
aI19
aI963
aI98
aI1449
aI1450
aa(lp2253
I5
aI1452
aI1451
aI150
aI4
aI30
aa(lp2254
I293
aI34
aI1091
aI48
aI5
aI131
aa(lp2255
I240
aI284
aI1453
aI40
aI173
aI359
aa(lp2256
I30
aI1454
aI535
aI182
aI7
aI28
aa(lp2257
I40
aI170
aI19
aI3
aI40
aI524
aa(lp2258
I588
aI161
aI117
aI3
aI424
aI9
aa(lp2259
I114
aI113
aI112
aI518
aI519
aI653
aa(lp2260
I7
aI929
aI98
aI3
aI58
aI182
aa(lp2261
I656
aI44
aI111
aI47
aI48
aI539
aa(lp2262
I346
aI54
aI798
aI9
aI799
aI123
aa(lp2263
I267
aI1455
aI295
aI226
aI1456
aI1457
aa(lp2264
I19
aI1458
aI218
aI98
aI1459
aI1460
aa(lp2265
I159
aI7
aI66
aI1223
aI284
aI446
aa(lp2266
I54
aI7
aI688
aI225
aI98
aI7
aa(lp2267
I812
aI1461
aI54
aI58
aI1462
aI207
aa(lp2268
I1257
aI1263
aI5
aI3
aI40
aI847
aa(lp2269
I424
aI692
aI2
aI9
aI75
aI36
aa(lp2270
I1235
aI618
aI75
aI3
aI58
aI809
aa(lp2271
I188
aI0
aI161
aI3
aI40
aI1270
aa(lp2272
I129
aI898
aI7
aI19
aI538
aI1463
aa(lp2273
I41
aI214
aI213
aI215
aI216
aI217
aa(lp2274
I1464
aI30
aI235
aI1465
aI1466
aI377
aa(lp2275
I388
aI19
aI387
aI235
aI267
aI5
aa(lp2276
I123
aI424
aI5
aI0
aI1467
aI111
aa(lp2277
I58
aI87
aI0
aI3
aI88
aI30
aa(lp2278
I169
aI168
aI28
aI3
aI361
aI207
aa(lp2279
I677
aI875
aI94
aI876
aI877
aI54
aa(lp2280
I365
aI9
aI693
aI48
aI5
aI131
aa(lp2281
I14
aI1468
aI75
aI3
aI40
aI1469
aa(lp2282
I1111
aI107
aI66
aI150
aI1112
aI166
aa(lp2283
I160
aI54
aI19
aI3
aI46
aI40
aa(lp2284
I5
aI877
aI0
aI297
aI11
aI296
aa(lp2285
I114
aI113
aI112
aI135
aI334
aI1470
aa(lp2286
I158
aI499
aI2
aI699
aI143
aI5
aa(lp2287
I46
aI37
aI94
aI45
aI123
aI11
aa(lp2288
I1471
aI30
aI14
aI12
aI1071
aI5
aa(lp2289
I5
aI517
aI64
aI9
aI1018
aI1472
aa(lp2290
I676
aI675
aI674
aI677
aI678
aI679
aa(lp2291
I1473
aI95
aI1381
aI1383
aI143
aI1384
aa(lp2292
I11
aI1278
aI19
aI3
aI762
aI1279
aa(lp2293
I414
aI44
aI240
aI46
aI203
aI957
aa(lp2294
I102
aI7
aI101
aI5
aI104
aI0
aa(lp2295
I1474
aI230
aI2
aI37
aI30
aI11
aa(lp2296
I126
aI106
aI66
aI86
aI127
aI128
aa(lp2297
I82
aI7
aI137
aI1330
aI5
aI1475
aa(lp2298
I1476
aI338
aI2
aI622
aI7
aI28
aa(lp2299
I9
aI739
aI1477
aI302
aI86
aI5
aa(lp2300
I219
aI0
aI39
aI7
aI1478
aI5
aa(lp2301
I56
aI7
aI372
aI3
aI1301
aI317
aa(lp2302
I558
aI59
aI646
aI271
aI106
aI1479
aa(lp2303
I240
aI75
aI5
aI48
aI5
aI131
aa(lp2304
I0
aI5
aI449
aI98
aI5
aI288
aa(lp2305
I298
aI0
aI5
aI146
aI656
aI437
aa(lp2306
I117
aI85
aI14
aI267
aI28
aI1480
aa(lp2307
I143
aI107
aI66
aI24
aI211
aI849
aa(lp2308
I317
aI0
aI5
aI115
aI98
aI36
aa(lp2309
I0
aI207
aI1481
aI548
aI34
aI46
aa(lp2310
I207
aI36
aI1482
aI9
aI446
aI7
aa(lp2311
I607
aI189
aI5
aI75
aI1483
aI19
aa(lp2312
I1484
aI9
aI98
aI199
aI1485
aI1092
aa(lp2313
I188
aI11
aI10
aI3
aI40
aI173
aa(lp2314
I40
aI525
aI143
aI40
aI725
aI17
aa(lp2315
I564
aI1486
aI66
aI226
aI7
aI1472
aa(lp2316
I1487
aI19
aI1399
aI54
aI240
aI1488
aa(lp2317
I123
aI111
aI51
aI37
aI207
aI1207
aa(lp2318
I111
aI301
aI688
aI86
aI11
aI78
aa(lp2319
I980
aI0
aI5
aI3
aI703
aI135
aa(lp2320
I19
aI52
aI372
aI3
aI47
aI34
aa(lp2321
I170
aI143
aI2
aI9
aI196
aI306
aa(lp2322
I1489
aI671
aI357
aI58
aI148
aI7
aa(lp2323
I146
aI1
aI75
aI3
aI40
aI4
aa(lp2324
I0
aI1491
aI1490
aI34
aI188
aI1490
aa(lp2325
I32
aI1492
aI19
aI3
aI466
aI1493
aa(lp2326
I786
aI5
aI1494
aI150
aI599
aI86
aa(lp2327
I1299
aI67
aI66
aI40
aI146
aI267
aa(lp2328
I58
aI5
aI558
aI98
aI5
aI266
aa(lp2329
I54
aI143
aI240
aI267
aI616
aI17
aa(lp2330
I161
aI693
aI0
aI98
aI5
aI266
aa(lp2331
I9
aI190
aI135
aI191
aI192
aI139
aa(lp2332
I301
aI119
aI1053
aI295
aI301
aI212
aa(lp2333
I207
aI182
aI1307
aI9
aI613
aI5
aa(lp2334
I75
aI1495
aI64
aI267
aI488
aI5
aa(lp2335
I359
aI1497
aI1496
aI150
aI28
aI1498
aa(lp2336
I130
aI58
aI466
aI738
aI48
aI346
aa(lp2337
I9
aI272
aI1499
aI221
aI9
aI1127
aa(lp2338
I0
aI5
aI1500
aI34
aI40
aI1501
aa(lp2339
I72
aI146
aI5
aI146
aI575
aI230
aa(lp2340
I1502
aI235
aI372
aI12
aI1503
aI900
aa(lp2341
I122
aI7
aI158
aI1504
aI17
aI7
aa(lp2342
I90
aI414
aI14
aI1117
aI1505
aI191
aa(lp2343
I75
aI5
aI96
aI3
aI1506
aI51
aa(lp2344
I589
aI31
aI94
aI55
aI590
aI7
aa(lp2345
I714
aI143
aI5
aI12
aI1507
aI98
aa(lp2346
I5
aI1508
aI371
aI7
aI846
aI1509
aa(lp2347
I337
aI235
aI811
aI287
aI586
aI1059
aa(lp2348
I11
aI118
aI117
aI119
aI120
aI107
aa(lp2349
I480
aI58
aI135
aI3
aI40
aI1510
aa(lp2350
I218
aI7
aI94
aI284
aI129
aI935
aa(lp2351
I583
aI582
aI581
aI9
aI584
aI33
aa(lp2352
I413
aI935
aI0
aI317
aI98
aI271
aa(lp2353
I1511
aI7
aI5
aI305
aI12
aI1512
aa(lp2354
I111
aI702
aI117
aI284
aI5
aI840
aa(lp2355
I6
aI0
aI5
aI7
aI196
aI11
aa(lp2356
I1513
aI889
aI295
aI48
aI400
aI370
aa(lp2357
I107
aI284
aI885
aI377
aI211
aI267
aa(lp2358
I1437
aI136
aI58
aI390
aI646
aI146
aa(lp2359
I1514
aI135
aI5
aI1515
aI1516
aI411
aa(lp2360
I207
aI1517
aI7
aI1518
aI98
aI1519
aa(lp2361
I1520
aI75
aI14
aI240
aI54
aI98
aa(lp2362
I285
aI284
aI94
aI286
aI287
aI51
aa(lp2363
I1522
aI1521
aI5
aI219
aI130
aI12
aa(lp2364
I763
aI339
aI372
aI40
aI11
aI6
aa(lp2365
I107
aI143
aI954
aI58
aI98
aI5
aa(lp2366
I1524
aI1523
aI19
aI7
aI45
aI36
aa(lp2367
I6
aI0
aI5
aI7
aI196
aI11
aa(lp2368
I106
aI11
aI1525
aI40
aI725
aI52
aa(lp2369
I48
aI5
aI340
aI355
aI54
aI1526
aa(lp2370
I129
aI0
aI14
aI82
aI211
aI598
aa(lp2371
I1528
aI1527
aI135
aI3
aI150
aI1529
aa(lp2372
I1530
aI5
aI727
aI48
aI78
aI491
aa(lp2373
I539
aI1532
aI1531
aI3
aI1533
aI75
aa(lp2374
I58
aI149
aI0
aI98
aI66
aI1534
aa(lp2375
I40
aI1037
aI381
aI59
aI1436
aI9
aa(lp2376
I94
aI0
aI5
aI348
aI301
aI40
aa(lp2377
I1364
aI825
aI5
aI3
aI539
aI5
aa(lp2378
I28
aI184
aI261
aI380
aI1317
aI184
aa(lp2379
I11
aI576
aI0
aI40
aI1535
aI111
aa(lp2380
I192
aI58
aI5
aI3
aI58
aI379
aa(lp2381
I58
aI701
aI1283
aI230
aI7
aI1536
aa(lp2382
I89
aI5
aI240
aI89
aI143
aI5
aa(lp2383
I1538
aI1537
aI14
aI1539
aI211
aI314
aa(lp2384
I924
aI923
aI922
aI925
aI7
aI64
aa(lp2385
I1540
aI1331
aI58
aI3
aI20
aI1541
aa(lp2386
I954
aI693
aI0
aI98
aI346
aI266
aa(lp2387
I389
aI261
aI75
aI3
aI622
aI7
aa(lp2388
I34
aI188
aI2
aI3
aI236
aI1542
aa(lp2389
I1543
aI19
aI2
aI34
aI150
aI37
aa(lp2390
I634
aI135
aI129
aI48
aI346
aI131
aa(lp2391
I2
aI1544
aI697
aI390
aI98
aI1545
aa(lp2392
I786
aI23
aI0
aI58
aI1546
aI207
aa(lp2393
I134
aI133
aI132
aI7
aI28
aI135
aa(lp2394
I704
aI9
aI5
aI267
aI1547
aI1159
aa(lp2395
I94
aI0
aI5
aI3
aI592
aI346
aa(lp2396
I182
aI1258
aI19
aI7
aI111
aI271
aa(lp2397
I456
aI455
aI5
aI457
aI54
aI19
aa(lp2398
I928
aI1548
aI5
aI3
aI58
aI84
aa(lp2399
I379
aI182
aI66
aI202
aI207
aI5
aa(lp2400
I5
aI312
aI0
aI98
aI5
aI266
aa(lp2401
I66
aI106
aI1200
aI98
aI5
aI467
aa(lp2402
I462
aI75
aI5
aI9
aI1397
aI5
aa(lp2403
I51
aI158
aI7
aI3
aI82
aI11
aa(lp2404
I56
aI143
aI2
aI1549
aI84
aI17
aa(lp2405
I1174
aI7
aI1550
aI334
aI11
aI296
aa(lp2406
I30
aI622
aI143
aI1551
aI1552
aI1553
aa(lp2407
I1554
aI0
aI432
aI815
aI142
aI1555
aa(lp2408
I346
aI267
aI439
aI631
aI182
aI40
aa(lp2409
I54
aI143
aI142
aI58
aI144
aI110
aa(lp2410
I9
aI5
aI32
aI622
aI7
aI28
aa(lp2411
I40
aI11
aI10
aI999
aI106
aI265
aa(lp2412
I86
aI5
aI59
aI3
aI40
aI94
aa(lp2413
I58
aI161
aI163
aI3
aI83
aI7
aa(lp2414
I1556
aI558
aI7
aI86
aI1088
aI1557
aa(lp2415
I58
aI553
aI212
aI458
aI554
aI14
aa(lp2416
I0
aI1558
aI586
aI295
aI358
aI159
aa(lp2417
I5
aI1560
aI1559
aI98
aI346
aI210
aa(lp2418
I413
aI0
aI5
aI3
aI1561
aI5
aa(lp2419
I1340
aI284
aI94
aI1159
aI115
aI30
aa(lp2420
I1563
aI1562
aI5
aI3
aI1564
aI328
aa(lp2421
I34
aI81
aI129
aI3
aI150
aI350
aa(lp2422
I226
aI52
aI1565
aI7
aI37
aI16
aa(lp2423
I134
aI133
aI132
aI7
aI28
aI135
aa(lp2424
I32
aI30
aI235
aI770
aI123
aI299
aa(lp2425
I305
aI158
aI14
aI34
aI370
aI46
aa(lp2426
I1567
aI1566
aI2
aI140
aI271
aI1568
aa(lp2427
I379
aI182
aI66
aI202
aI207
aI5
aa(lp2428
I1570
aI1569
aI66
aI1472
aI211
aI1571
aa(lp2429
I950
aI98
aI2
aI18
aI86
aI405
aa(lp2430
I456
aI455
aI5
aI457
aI54
aI19
aa(lp2431
I414
aI106
aI67
aI58
aI267
aI7
aa(lp2432
I4
aI199
aI345
aI51
aI1572
aI106
aa(lp2433
I5
aI610
aI10
aI143
aI438
aI1573
aa(lp2434
I1575
aI214
aI1574
aI7
aI1576
aI295
aa(lp2435
I98
aI5
aI467
aI350
aI0
aI112
aa(lp2436
I526
aI525
aI0
aI81
aI1577
aI1578
aa(lp2437
I1579
aI301
aI5
aI7
aI764
aI5
aa(lp2438
I143
aI94
aI52
aI341
aI182
aI328
aa(lp2439
I1580
aI130
aI58
aI98
aI358
aI671
aa(lp2440
I169
aI994
aI2
aI221
aI230
aI143
aa(lp2441
I305
aI158
aI14
aI123
aI1428
aI101
aa(lp2442
I239
aI130
aI66
aI4
aI1581
aI32
aa(lp2443
I54
aI143
aI14
aI9
aI34
aI219
aa(lp2444
I134
aI133
aI132
aI7
aI28
aI135
aa(lp2445
I143
aI54
aI535
aI51
aI539
aI334
aa(lp2446
I9
aI19
aI5
aI3
aI89
aI143
aa(lp2447
I11
aI416
aI0
aI3
aI89
aI98
aa(lp2448
I159
aI207
aI797
aI146
aI677
aI1582
aa(lp2449
I5
aI952
aI0
aI3
aI32
aI7
aa(lp2450
I123
aI83
aI7
aI235
aI305
aI158
aa(lp2451
I1583
aI596
aI5
aI370
aI12
aI869
aa(lp2452
I441
aI7
aI24
aI48
aI5
aI1292
aa(lp2453
I30
aI230
aI94
aI247
aI145
aI3
aa(lp2454
I1584
aI23
aI0
aI40
aI446
aI7
aa(lp2455
I1585
aI19
aI372
aI3
aI111
aI182
aa(lp2456
I34
aI9
aI94
aI34
aI188
aI57
aa(lp2457
I19
aI1033
aI75
aI3
aI40
aI1034
aa(lp2458
I588
aI616
aI143
aI12
aI267
aI7
aa(lp2459
I931
aI19
aI299
aI144
aI32
aI51
aa(lp2460
I114
aI113
aI112
aI1346
aI1586
aI1587
aa(lp2461
I23
aI0
aI1588
aI59
aI633
aI34
aa(lp2462
I34
aI8
aI101
aI686
aI38
aI701
aa(lp2463
I1589
aI359
aI791
aI9
aI993
aI1590
aa(lp2464
I337
aI144
aI115
aI120
aI305
aI58
aa(lp2465
I1591
aI136
aI58
aI390
aI646
aI146
aa(lp2466
I230
aI106
aI94
aI4
aI7
aI414
aa(lp2467
I226
aI5
aI381
aI7
aI382
aI175
aa(lp2468
I509
aI256
aI2
aI169
aI1135
aI175
aa(lp2469
I7
aI414
aI44
aI919
aI5
aI102
aa(lp2470
I1592
aI150
aI2
aI86
aI1593
aI555
aa(lp2471
I158
aI282
aI107
aI268
aI7
aI393
aa(lp2472
I143
aI786
aI94
aI526
aI1594
aI11
aa(lp2473
I0
aI1595
aI113
aI1596
aI912
aI9
aa(lp2474
I1162
aI1161
aI115
aI703
aI19
aI175
aa(lp2475
I1597
aI7
aI5
aI485
aI1598
aI1599
aa(lp2476
I235
aI9
aI295
aI82
aI333
aI84
aa(lp2477
I9
aI971
aI586
aI189
aI543
aI587
aa(lp2478
I5
aI1195
aI19
aI317
aI98
aI431
aa(lp2479
I258
aI75
aI257
aI5
aI259
aI0
aa(lp2480
I1601
aI0
aI1600
aI5
aI1602
aI54
aa(lp2481
I182
aI888
aI143
aI98
aI5
aI840
aa(lp2482
I28
aI1603
aI230
aI788
aI1604
aI58
aa(lp2483
I1605
aI699
aI143
aI737
aI1606
aI54
aa(lp2484
I1607
aI7
aI811
aI1117
aI1608
aI5
aa(lp2485
I56
aI143
aI2
aI1549
aI84
aI17
aa(lp2486
I34
aI888
aI499
aI662
aI1609
aI449
aa(lp2487
I1610
aI163
aI337
aI539
aI5
aI1611
aa(lp2488
I296
aI144
aI123
aI3
aI148
aI271
aa(lp2489
I281
aI102
aI240
aI282
aI283
aI9
aa(lp2490
I5
aI96
aI110
aI111
aI30
aI48
aa(lp2491
I34
aI188
aI2
aI90
aI1117
aI175
aa(lp2492
I92
aI130
aI58
aI3
aI267
aI101
aa(lp2493
I192
aI58
aI694
aI305
aI40
aI524
aa(lp2494
I525
aI2
aI1612
aI250
aI5
aI347
aa(lp2495
I1613
aI0
aI5
aI1163
aI30
aI450
aa(lp2496
I5
aI1123
aI0
aI1124
aI346
aI1125
aa(lp2497
I123
aI207
aI5
aI634
aI509
aI305
aa(lp2498
I1614
aI271
aI1306
aI230
aI305
aI1615
aa(lp2499
I247
aI525
aI271
aI4
aI5
aI485
aa(lp2500
I97
aI7
aI101
aI143
aI1100
aI82
aa(lp2501
I786
aI23
aI0
aI58
aI1546
aI207
aa(lp2502
I1473
aI95
aI1381
aI1383
aI143
aI1384
aa(lp2503
I643
aI295
aI39
aI302
aI301
aI212
aa(lp2504
I114
aI113
aI112
aI135
aI5
aI449
aa(lp2505
I390
aI98
aI1392
aI109
aI7
aI37
aa(lp2506
I7
aI1065
aI1616
aI5
aI240
aI1617
aa(lp2507
I85
aI143
aI94
aI264
aI588
aI5
aa(lp2508
I1169
aI2
aI1168
aI135
aI31
aI33
aa(lp2509
I52
aI5
aI117
aI58
aI1470
aI98
aa(lp2510
I34
aI1201
aI2
aI111
aI182
aI226
aa(lp2511
I1619
aI359
aI1618
aI9
aI559
aI1063
aa(lp2512
I664
aI4
aI2
aI4
aI1177
aI1620
aa(lp2513
I413
aI59
aI739
aI34
aI40
aI1621
aa(lp2514
I51
aI212
aI326
aI143
aI30
aI341
aa(lp2515
I1082
aI0
aI1081
aI36
aI769
aI54
aa(lp2516
I1623
aI1622
aI240
aI341
aI4
aI30
aa(lp2517
I1608
aI5
aI1624
aI111
aI264
aI588
aa(lp2518
I7
aI1625
aI14
aI587
aI1626
aI1627
aa(lp2519
I281
aI102
aI240
aI282
aI283
aI9
aa(lp2520
I0
aI670
aI19
aI86
aI810
aI1628
aa(lp2521
I9
aI447
aI240
aI267
aI224
aI634
aa(lp2522
I577
aI372
aI96
aI46
aI356
aI143
aa(lp2523
I1515
aI5
aI727
aI339
aI40
aI298
aa(lp2524
I98
aI5
aI727
aI211
aI1629
aI9
aa(lp2525
I354
aI19
aI117
aI9
aI28
aI106
aa(lp2526
I622
aI32
aI1306
aI211
aI1630
aI54
aa(lp2527
I212
aI1631
aI135
aI182
aI4
aI7
aa(lp2528
I1632
aI0
aI5
aI350
aI75
aI1633
aa(lp2529
I355
aI23
aI0
aI40
aI1023
aI1634
aa(lp2530
I115
aI107
aI66
aI446
aI7
aI1124
aa(lp2531
I45
aI67
aI5
aI0
aI1635
aI1129
aa(lp2532
I1636
aI143
aI14
aI117
aI284
aI372
aa(lp2533
I334
aI1463
aI1637
aI32
aI1638
aI34
aa(lp2534
I900
aI308
aI647
aI267
aI182
aI414
aa(lp2535
I1639
aI135
aI5
aI1640
aI573
aI1641
aa(lp2536
I182
aI1258
aI19
aI7
aI111
aI271
aa(lp2537
I11
aI1340
aI146
aI524
aI1419
aI707
aa(lp2538
I1018
aI980
aI0
aI54
aI701
aI1019
aa(lp2539
I267
aI1642
aI704
aI7
aI1643
aI5
aa(lp2540
I9
aI117
aI746
aI144
aI83
aI7
aa(lp2541
I526
aI173
aI414
aI86
aI5
aI1644
aa(lp2542
I890
aI347
aI98
aI3
aI58
aI891
aa(lp2543
I54
aI65
aI48
aI106
aI11
aI257
aa(lp2544
I346
aI130
aI58
aI762
aI7
aI672
aa(lp2545
I66
aI106
aI1645
aI1646
aI5
aI1647
aa(lp2546
I1111
aI1648
aI66
aI40
aI1634
aI1649
aa(lp2547
I1141
aI6
aI355
aI58
aI1574
aI7
aa(lp2548
I338
aI54
aI143
aI46
aI37
aI305
aa(lp2549
I1650
aI7
aI1398
aI106
aI11
aI1233
aa(lp2550
I86
aI1337
aI5
aI130
aI58
aI1223
aa(lp2551
I456
aI455
aI5
aI457
aI54
aI19
aa(lp2552
I45
aI44
aI240
aI58
aI182
aI393
aa(lp2553
I7
aI319
aI2
aI317
aI98
aI158
aa(lp2554
I143
aI5
aI1267
aI82
aI1268
aI1338
aa(lp2555
I1651
aI11
aI1650
aI643
aI282
aI913
aa(lp2556
I143
aI54
aI5
aI3
aI1117
aI7
aa(lp2557
I1652
aI214
aI135
aI3
aI12
aI707
aa(lp2558
I225
aI7
aI5
aI84
aI17
aI86
aa(lp2559
I1653
aI0
aI1281
aI518
aI519
aI653
aa(lp2560
I297
aI296
aI295
aI82
aI298
aI299
aa(lp2561
I282
aI19
aI5
aI824
aI7
aI28
aa(lp2562
I83
aI82
aI5
aI84
aI85
aI86
aa(lp2563
I1580
aI130
aI58
aI98
aI358
aI671
aa(lp2564
I264
aI1654
aI1637
aI86
aI1655
aI1656
aa(lp2565
I46
aI170
aI520
aI7
aI968
aI969
aa(lp2566
I6
aI1657
aI143
aI58
aI162
aI438
aa(lp2567
I377
aI5
aI376
aI349
aI544
aI143
aa(lp2568
I1658
aI346
aI66
aI356
aI143
aI130
aa(lp2569
I123
aI207
aI5
aI634
aI509
aI305
aa(lp2570
I1172
aI5
aI110
aI150
aI539
aI5
aa(lp2571
I32
aI7
aI958
aI0
aI5
aI959
aa(lp2572
I143
aI54
aI5
aI3
aI1117
aI7
aa(lp2573
I931
aI19
aI299
aI144
aI32
aI51
aa(lp2574
I1591
aI136
aI58
aI390
aI646
aI146
aa(lp2575
I1584
aI23
aI0
aI40
aI446
aI7
aa(lp2576
I1659
aI0
aI52
aI1660
aI7
aI28
aa(lp2577
I1601
aI699
aI143
aI711
aI1377
aI1661
aa(lp2578
I54
aI1662
aI0
aI86
aI1663
aI1277
aa(lp2579
I11
aI1664
aI0
aI3
aI1615
aI158
aa(lp2580
I78
aI1223
aI284
aI106
aI630
aI631
aa(lp2581
I281
aI102
aI240
aI282
aI283
aI9
aa(lp2582
I447
aI614
aI5
aI98
aI5
aI1375
aa(lp2583
I531
aI558
aI5
aI48
aI1665
aI1666
aa(lp2584
I1667
aI150
aI2
aI86
aI1593
aI555
aa(lp2585
I1668
aI773
aI5
aI58
aI773
aI9
aa(lp2586
I1206
aI146
aI240
aI7
aI1325
aI5
aa(lp2587
I339
aI37
aI39
aI341
aI182
aI971
aa(lp2588
I466
aI1142
aI94
aI3
aI1669
aI784
aa(lp2589
I357
aI5
aI317
aI1670
aI98
aI7
aa(lp2590
I32
aI143
aI94
aI255
aI146
aI256
aa(lp2591
I7
aI37
aI143
aI58
aI1671
aI28
aa(lp2592
I643
aI455
aI5
aI457
aI54
aI19
aa(lp2593
I143
aI267
aI24
aI763
aI7
aI661
aa(lp2594
I10
aI0
aI123
aI306
aI6
aI34
aa(lp2595
I1672
aI34
aI188
aI3
aI150
aI1673
aa(lp2596
I1674
aI355
aI108
aI650
aI189
aI1233
aa(lp2597
I44
aI332
aI115
aI89
aI98
aI5
aa(lp2598
I94
aI0
aI5
aI348
aI301
aI40
aa(lp2599
I144
aI663
aI143
aI82
aI11
aI1675
aa(lp2600
I230
aI186
aI2
aI111
aI182
aI89
aa(lp2601
I134
aI133
aI132
aI7
aI28
aI135
aa(lp2602
I230
aI106
aI94
aI4
aI7
aI414
aa(lp2603
I539
aI1676
aI958
aI0
aI11
aI857
aa(lp2604
I1112
aI1436
aI74
aI86
aI1677
aI1678
aa(lp2605
I143
aI5
aI1267
aI82
aI1268
aI1338
aa(lp2606
I58
aI359
aI1281
aI1679
aI1281
aI1680
aa(lp2607
I837
aI143
aI2
aI58
aI4
aI86
aa(lp2608
I259
aI0
aI16
aI869
aI334
aI388
aa(lp2609
I1681
aI19
aI161
aI1082
aI1461
aI1682
aa(lp2610
I106
aI270
aI1558
aI723
aI634
aI36
aa(lp2611
I1683
aI19
aI1249
aI143
aI58
aI1250
aa(lp2612
I1235
aI618
aI75
aI3
aI58
aI809
aa(lp2613
I1386
aI1385
aI136
aI58
aI158
aI359
aa(lp2614
I5
aI739
aI66
aI268
aI7
aI1684
aa(lp2615
I282
aI284
aI66
aI48
aI1685
aI89
aa(lp2616
I11
aI23
aI0
aI817
aI7
aI158
aa(lp2617
I1414
aI54
aI123
aI267
aI40
aI472
aa(lp2618
I1511
aI75
aI5
aI0
aI346
aI435
aa(lp2619
I182
aI7
aI638
aI638
aI182
aI143
aa(lp2620
I9
aI295
aI2
aI40
aI1686
aI86
aa(lp2621
I130
aI107
aI143
aI98
aI575
aI1687
aa(lp2622
I60
aI106
aI2
aI382
aI211
aI483
aa(lp2623
I713
aI713
aI163
aI673
aI163
aI7
aa(lp2624
I86
aI1688
aI2
aI898
aI7
aI1689
aa(lp2625
I143
aI786
aI94
aI34
aI162
aI51
aa(lp2626
I94
aI0
aI5
aI348
aI34
aI341
aa(lp2627
I16
aI120
aI463
aI346
aI54
aI182
aa(lp2628
I86
aI298
aI1690
aI802
aI1691
aI1692
aa(lp2629
I1693
aI589
aI108
aI7
aI1694
aI1695
aa(lp2630
I58
aI701
aI1283
aI230
aI7
aI1536
aa(lp2631
I5
aI1508
aI371
aI7
aI846
aI1509
aa(lp2632
I5
aI1697
aI1696
aI34
aI341
aI144
aa(lp2633
I267
aI7
aI359
aI7
aI1698
aI59
aa(lp2634
I7
aI1103
aI68
aI462
aI75
aI642
aa(lp2635
I359
aI117
aI586
aI5
aI338
aI54
aa(lp2636
I1197
aI1699
aI2
aI40
aI701
aI1
aa(lp2637
I5
aI1700
aI372
aI267
aI622
aI1325
aa(lp2638
I438
aI333
aI437
aI3
aI251
aI439
aa(lp2639
I0
aI5
aI112
aI98
aI222
aI9
aa(lp2640
I346
aI267
aI326
aI143
aI301
aI380
aa(lp2641
I741
aI9
aI64
aI58
aI120
aI9
aa(lp2642
I301
aI119
aI1053
aI295
aI301
aI212
aa(lp2643
I557
aI58
aI2
aI150
aI557
aI558
aa(lp2644
I642
aI89
aI143
aI3
aI46
aI45
aa(lp2645
I75
aI5
aI96
aI3
aI539
aI5
aa(lp2646
I284
aI1701
aI796
aI98
aI1702
aI518
aa(lp2647
I484
aI1704
aI1703
aI287
aI5
aI1387
aa(lp2648
I1253
aI9
aI14
aI82
aI1705
aI7
aa(lp2649
I83
aI82
aI5
aI84
aI85
aI86
aa(lp2650
I1706
aI135
aI94
aI34
aI1707
aI270
aa(lp2651
I235
aI58
aI161
aI236
aI98
aI237
aa(lp2652
I94
aI0
aI5
aI367
aI177
aI1
aa(lp2653
I1110
aI34
aI226
aI7
aI40
aI7
aa(lp2654
I468
aI32
aI5
aI3
aI1253
aI1708
aa(lp2655
I750
aI33
aI558
aI86
aI1709
aI1710
aa(lp2656
I281
aI102
aI240
aI282
aI283
aI9
aa(lp2657
I373
aI372
aI371
aI7
aI374
aI375
aa(lp2658
I240
aI75
aI5
aI48
aI5
aI131
aa(lp2659
I283
aI1711
aI14
aI12
aI182
aI71
aa(lp2660
I1125
aI357
aI124
aI219
aI267
aI28
aa(lp2661
I34
aI89
aI2
aI12
aI202
aI207
aa(lp2662
I1712
aI702
aI2
aI37
aI0
aI30
aa(lp2663
I40
aI11
aI10
aI999
aI106
aI265
aa(lp2664
I5
aI1713
aI1543
aI7
aI8
aI5
aa(lp2665
I0
aI317
aI7
aI390
aI34
aI447
aa(lp2666
I443
aI135
aI1396
aI9
aI143
aI264
aa(lp2667
I410
aI1398
aI19
aI107
aI1399
aI135
aa(lp2668
I1044
aI1043
aI0
aI341
aI410
aI156
aa(lp2669
I1714
aI58
aI51
aI194
aI64
aI738
aa(lp2670
I161
aI693
aI0
aI98
aI5
aI266
aa(lp2671
I1715
aI0
aI64
aI9
aI1716
aI5
aa(lp2672
I11
aI1717
aI143
aI251
aI32
aI7
aa(lp2673
I451
aI1651
aI143
aI341
aI466
aI28
aa(lp2674
I413
aI116
aI0
aI54
aI1718
aI1719
aa(lp2675
I182
aI93
aI66
aI7
aI334
aI849
aa(lp2676
I1721
aI74
aI1720
aI1720
aI543
aI410
aa(lp2677
I967
aI19
aI5
aI51
aI350
aI0
aa(lp2678
I0
aI1491
aI1490
aI34
aI188
aI1490
aa(lp2679
I51
aI1637
aI14
aI51
aI267
aI31
aa(lp2680
I337
aI235
aI811
aI287
aI586
aI1059
aa(lp2681
I643
aI456
aI111
aI226
aI1722
aI323
aa(lp2682
I33
aI19
aI94
aI346
aI267
aI28
aa(lp2683
I40
aI174
aI173
aI32
aI51
aI98
aa(lp2684
I9
aI190
aI135
aI191
aI192
aI34
aa(lp2685
I713
aI713
aI163
aI673
aI163
aI7
aa(lp2686
I7
aI52
aI5
aI156
aI192
aI458
aa(lp2687
I5
aI312
aI0
aI1054
aI1723
aI75
aa(lp2688
I28
aI59
aI10
aI3
aI188
aI123
aa(lp2689
I456
aI455
aI5
aI457
aI54
aI19
aa(lp2690
I30
aI27
aI7
aI3
aI339
aI40
aa(lp2691
I1082
aI0
aI1081
aI36
aI769
aI54
aa(lp2692
I51
aI356
aI143
aI143
aI962
aI5
aa(lp2693
I30
aI162
aI161
aI86
aI163
aI164
aa(lp2694
I1372
aI7
aI688
aI75
aI539
aI1234
aa(lp2695
I7
aI237
aI505
aI230
aI509
aI20
aa(lp2696
I52
aI143
aI66
aI3
aI40
aI575
aa(lp2697
I11
aI23
aI0
aI106
aI865
aI287
aa(lp2698
I5
aI338
aI0
aI86
aI1167
aI1002
aa(lp2699
I19
aI1724
aI879
aI5
aI1725
aI1726
aa(lp2700
I166
aI75
aI163
aI48
aI5
aI131
aa(lp2701
I1661
aI980
aI0
aI1727
aI1728
aI9
aa(lp2702
I83
aI7
aI117
aI680
aI681
aI682
aa(lp2703
I664
aI113
aI0
aI3
aI1729
aI240
aa(lp2704
I284
aI785
aI2
aI58
aI786
aI207
aa(lp2705
I130
aI58
aI466
aI98
aI5
aI266
aa(lp2706
I143
aI786
aI94
aI34
aI162
aI51
aa(lp2707
I1330
aI1730
aI634
aI58
aI370
aI1731
aa(lp2708
I125
aI702
aI106
aI1341
aI107
aI111
aa(lp2709
I5
aI620
aI159
aI58
aI111
aI86
aa(lp2710
I30
aI230
aI94
aI247
aI145
aI3
aa(lp2711
I52
aI372
aI1732
aI3
aI40
aI7
aa(lp2712
I182
aI612
aI94
aI111
aI59
aI497
aa(lp2713
I961
aI475
aI7
aI3
aI90
aI319
aa(lp2714
I1734
aI1733
aI633
aI0
aI575
aI435
aa(lp2715
I0
aI1735
aI207
aI3
aI46
aI158
aa(lp2716
I988
aI106
aI66
aI989
aI264
aI298
aa(lp2717
I1737
aI737
aI1736
aI539
aI308
aI66
aa(lp2718
I305
aI102
aI1738
aI1739
aI1740
aI267
aa(lp2719
I6
aI0
aI5
aI7
aI8
aI9
aa(lp2720
I11
aI950
aI75
aI30
aI418
aI240
aa(lp2721
I967
aI7
aI5
aI264
aI640
aI284
aa(lp2722
I200
aI44
aI111
aI8
aI148
aI5
aa(lp2723
I5
aI1508
aI371
aI7
aI846
aI1509
aa(lp2724
I1197
aI125
aI7
aI3
aI40
aI524
aa(lp2725
I368
aI1103
aI94
aI1741
aI143
aI1311
aa(lp2726
I182
aI820
aI111
aI170
aI5
aI821
aa(lp2727
I37
aI143
aI1742
aI1380
aI89
aI143
aa(lp2728
I1743
aI0
aI5
aI239
aI98
aI5
aa(lp2729
I1744
aI0
aI5
aI1745
aI592
aI98
aa(lp2730
I11
aI1746
aI19
aI3
aI545
aI5
aa(lp2731
I1748
aI1747
aI54
aI3
aI461
aI75
aa(lp2732
I446
aI7
aI40
aI38
aI9
aI81
aa(lp2733
I191
aI1749
aI165
aI333
aI1750
aI1751
aa(lp2734
I413
aI81
aI66
aI120
aI143
aI5
aa(lp2735
I789
aI1753
aI1752
aI51
aI583
aI9
aa(lp2736
I188
aI123
aI259
aI37
aI14
aI980
aa(lp2737
I7
aI623
aI11
aI144
aI115
aI11
aa(lp2738
I6
aI0
aI5
aI7
aI8
aI9
aa(lp2739
I2
aI0
aI51
aI37
aI864
aI58
aa(lp2740
I0
aI961
aI75
aI862
aI7
aI346
aa(lp2741
I7
aI40
aI117
aI1031
aI98
aI9
aa(lp2742
I130
aI58
aI92
aI143
aI466
aI89
aa(lp2743
I616
aI143
aI94
aI365
aI1754
aI380
aa(lp2744
I114
aI113
aI112
aI135
aI5
aI1755
aa(lp2745
I359
aI5
aI1756
aI98
aI5
aI1564
aa(lp2746
I299
aI0
aI64
aI9
aI346
aI671
aa(lp2747
I5
aI1758
aI1757
aI7
aI1759
aI7
aa(lp2748
I83
aI7
aI117
aI680
aI681
aI682
aa(lp2749
I41
aI240
aI0
aI143
aI40
aI84
aa(lp2750
I7
aI390
aI75
aI86
aI391
aI34
aa(lp2751
I9
aI1760
aI9
aI474
aI9
aI475
aa(lp2752
I1761
aI136
aI129
aI12
aI239
aI98
aa(lp2753
I267
aI335
aI735
aI3
aI58
aI195
aa(lp2754
I893
aI7
aI971
aI115
aI438
aI339
aa(lp2755
I192
aI58
aI694
aI305
aI40
aI524
aa(lp2756
I1257
aI1762
aI0
aI58
aI1763
aI39
aa(lp2757
I389
aI261
aI75
aI3
aI622
aI7
aa(lp2758
I125
aI130
aI66
aI662
aI802
aI3
aa(lp2759
I1764
aI880
aI19
aI3
aI613
aI1765
aa(lp2760
I34
aI769
aI14
aI40
aI1023
aI173
aa(lp2761
I7
aI220
aI7
aI1608
aI1766
aI9
aa(lp2762
I1767
aI337
aI634
aI333
aI860
aI143
aa(lp2763
I188
aI11
aI10
aI86
aI1768
aI1769
aa(lp2764
I40
aI148
aI117
aI3
aI120
aI346
aa(lp2765
I90
aI187
aI48
aI188
aI189
aI5
aa(lp2766
I54
aI67
aI60
aI58
aI267
aI7
aa(lp2767
I1770
aI0
aI5
aI3
aI1487
aI5
aa(lp2768
I7
aI931
aI7
aI3
aI58
aI1650
aa(lp2769
I1370
aI7
aI1376
aI0
aI211
aI428
aa(lp2770
I235
aI58
aI161
aI236
aI98
aI237
aa(lp2771
I296
aI67
aI66
aI737
aI1349
aI9
aa(lp2772
I54
aI1198
aI2
aI120
aI30
aI1199
aa(lp2773
I1771
aI120
aI143
aI267
aI1329
aI462
aa(lp2774
I0
aI45
aI5
aI3
aI226
aI7
aa(lp2775
I778
aI713
aI240
aI40
aI182
aI695
aa(lp2776
I485
aI143
aI120
aI380
aI28
aI1772
aa(lp2777
I182
aI1773
aI9
aI102
aI30
aI34
aa(lp2778
I143
aI107
aI66
aI24
aI211
aI849
aa(lp2779
I248
aI4
aI19
aI763
aI85
aI0
aa(lp2780
I1131
aI6
aI0
aI9
aI196
aI1774
aa(lp2781
I665
aI446
aI148
aI3
aI46
aI45
aa(lp2782
I640
aI312
aI0
aI264
aI588
aI98
aa(lp2783
I707
aI491
aI326
aI143
aI305
aI380
aa(lp2784
I5
aI1775
aI1206
aI12
aI81
aI701
aa(lp2785
I6
aI0
aI5
aI7
aI196
aI11
aa(lp2786
I281
aI102
aI240
aI282
aI283
aI9
aa(lp2787
I9
aI1776
aI124
aI98
aI5
aI1777
aa(lp2788
I194
aI143
aI66
aI341
aI32
aI7
aa(lp2789
I973
aI165
aI86
aI3
aI58
aI182
aa(lp2790
I284
aI785
aI2
aI58
aI786
aI207
aa(lp2791
I1778
aI87
aI0
aI431
aI207
aI1779
aa(lp2792
I5
aI338
aI0
aI86
aI1167
aI1002
aa(lp2793
I106
aI60
aI106
aI202
aI207
aI413
aa(lp2794
I192
aI44
aI46
aI969
aI211
aI1780
aa(lp2795
I903
aI1450
aI577
aI4
aI271
aI646
aa(lp2796
I5
aI216
aI143
aI102
aI9
aI7
aa(lp2797
I1781
aI357
aI111
aI158
aI14
aI1782
aa(lp2798
I123
aI83
aI7
aI235
aI305
aI158
aa(lp2799
I207
aI298
aI1135
aI74
aI5
aI1783
aa(lp2800
I23
aI0
aI5
aI301
aI220
aI265
aa(lp2801
I525
aI143
aI2
aI4
aI33
aI86
aa(lp2802
I11
aI773
aI66
aI207
aI346
aI317
aa(lp2803
I9
aI1785
aI1784
aI317
aI98
aI1313
aa(lp2804
I301
aI46
aI226
aI7
aI37
aI12
aa(lp2805
I446
aI7
aI1786
aI98
aI480
aI357
aa(lp2806
I7
aI414
aI3
aI37
aI267
aI93
aa(lp2807
I1186
aI19
aI1787
aI754
aI101
aI192
aa(lp2808
I750
aI33
aI558
aI86
aI1709
aI1710
aa(lp2809
I1788
aI1532
aI295
aI226
aI830
aI48
aa(lp2810
I1789
aI19
aI226
aI390
aI1654
aI190
aa(lp2811
I226
aI5
aI381
aI7
aI382
aI175
aa(lp2812
I11
aI951
aI75
aI143
aI40
aI513
aa(lp2813
I414
aI355
aI413
aI341
aI1223
aI219
aa(lp2814
I1777
aI66
aI66
aI58
aI81
aI14
aa(lp2815
I1792
aI1791
aI1790
aI1793
aI190
aI802
aa(lp2816
I32
aI1492
aI19
aI3
aI466
aI1493
aa(lp2817
I9
aI5
aI1764
aI46
aI622
aI7
aa(lp2818
I1794
aI1738
aI269
aI212
aI1795
aI107
aa(lp2819
I9
aI1796
aI123
aI365
aI305
aI380
aa(lp2820
I219
aI86
aI117
aI200
aI51
aI90
aa(lp2821
I144
aI11
aI10
aI40
aI7
aI28
aa(lp2822
I239
aI130
aI66
aI4
aI1581
aI32
aa(lp2823
I752
aI377
aI52
aI380
aI28
aI1637
aa(lp2824
I1797
aI840
aI2
aI4
aI105
aI106
aa(lp2825
I909
aI908
aI5
aI3
aI635
aI424
aa(lp2826
I12
aI182
aI11
aI9
aI235
aI301
aa(lp2827
I7
aI1798
aI2
aI1799
aI48
aI1800
aa(lp2828
I114
aI113
aI112
aI1346
aI316
aI193
aa(lp2829
I11
aI1801
aI9
aI267
aI738
aI7
aa(lp2830
I19
aI5
aI661
aI54
aI1802
aI1803
aa(lp2831
I136
aI1804
aI10
aI150
aI1299
aI723
aa(lp2832
I19
aI52
aI372
aI3
aI90
aI28
aa(lp2833
I235
aI58
aI161
aI236
aI98
aI237
aa(lp2834
I367
aI949
aI2
aI622
aI7
aI919
aa(lp2835
I706
aI0
aI66
aI107
aI30
aI54
aa(lp2836
I19
aI5
aI1805
aI3
aI40
aI224
aa(lp2837
I1017
aI1675
aI111
aI1325
aI143
aI5
aa(lp2838
I94
aI0
aI5
aI98
aI1806
aI58
aa(lp2839
I0
aI211
aI520
aI1615
aI250
aI192
aa(lp2840
I1027
aI483
aI0
aI1807
aI308
aI60
aa(lp2841
I1280
aI526
aI525
aI431
aI207
aI67
aa(lp2842
I456
aI455
aI5
aI457
aI54
aI19
aa(lp2843
I1809
aI1808
aI111
aI1810
aI11
aI1811
aa(lp2844
I188
aI143
aI2
aI267
aI919
aI143
aa(lp2845
I378
aI52
aI372
aI3
aI13
aI7
aa(lp2846
I295
aI629
aI52
aI302
aI143
aI5
aa(lp2847
I456
aI455
aI5
aI457
aI54
aI19
aa(lp2848
I1812
aI67
aI111
aI98
aI1545
aI919
aa(lp2849
I54
aI67
aI60
aI58
aI267
aI7
aa(lp2850
I1148
aI1147
aI10
aI38
aI1149
aI115
aa(lp2851
I1813
aI0
aI5
aI210
aI438
aI297
aa(lp2852
I146
aI1
aI75
aI3
aI40
aI4
aa(lp2853
I52
aI693
aI0
aI98
aI358
aI210
aa(lp2854
I135
aI161
aI1814
aI107
aI143
aI513
aa(lp2855
I347
aI1637
aI5
aI168
aI230
aI5
aa(lp2856
I1815
aI106
aI539
aI573
aI9
aI5
aa(lp2857
I1816
aI130
aI58
aI48
aI5
aI131
aa(lp2858
I240
aI284
aI1817
aI150
aI382
aI334
aa(lp2859
I572
aI86
aI317
aI284
aI876
aI98
aa(lp2860
I62
aI9
aI61
aI499
aI121
aI0
aa(lp2861
I6
aI7
aI614
aI7
aI392
aI33
aa(lp2862
I7
aI931
aI7
aI3
aI58
aI1650
aa(lp2863
I9
aI347
aI1818
aI111
aI68
aI543
aa(lp2864
I235
aI58
aI161
aI236
aI98
aI237
aa(lp2865
I1819
aI5
aI558
aI3
aI82
aI5
aa(lp2866
I219
aI86
aI117
aI200
aI51
aI90
aa(lp2867
I1822
aI1821
aI1820
aI1823
aI85
aI1330
aa(lp2868
I1824
aI267
aI28
aI3
aI58
aI1399
aa(lp2869
I837
aI143
aI2
aI58
aI4
aI86
aa(lp2870
I11
aI23
aI0
aI288
aI30
aI1825
aa(lp2871
I7
aI436
aI75
aI3
aI188
aI240
aa(lp2872
I30
aI235
aI58
aI97
aI7
aI1001
aa(lp2873
I144
aI5
aI979
aI359
aI1197
aI117
aa(lp2874
I66
aI0
aI5
aI3
aI267
aI28
aa(lp2875
I110
aI123
aI111
aI37
aI207
aI5
aa(lp2876
I1824
aI267
aI28
aI3
aI58
aI1399
aa(lp2877
I1826
aI9
aI66
aI688
aI135
aI9
aa(lp2878
I160
aI54
aI19
aI3
aI46
aI40
aa(lp2879
I1764
aI123
aI111
aI37
aI0
aI730
aa(lp2880
I1827
aI130
aI58
aI3
aI89
aI143
aa(lp2881
I456
aI44
aI111
aI1362
aI1331
aI196
aa(lp2882
I1828
aI576
aI0
aI58
aI4
aI346
aa(lp2883
I158
aI5
aI96
aI358
aI125
aI658
aa(lp2884
I319
aI85
aI123
aI37
aI207
aI1829
aa(lp2885
I58
aI149
aI0
aI3
aI393
aI30
aa(lp2886
I235
aI58
aI161
aI236
aI98
aI237
aa(lp2887
I30
aI1830
aI143
aI1061
aI382
aI5
aa(lp2888
I1831
aI143
aI2
aI12
aI158
aI1832
aa(lp2889
I720
aI67
aI66
aI111
aI51
aI226
aa(lp2890
I6
aI7
aI614
aI7
aI392
aI33
aa(lp2891
I782
aI7
aI108
aI7
aI1807
aI240
aa(lp2892
I235
aI267
aI51
aI1159
aI143
aI265
aa(lp2893
I1833
aI576
aI0
aI295
aI1834
aI98
aa(lp2894
I840
aI1835
aI0
aI9
aI52
aI638
aa(lp2895
I560
aI559
aI135
aI561
aI562
aI563
aa(lp2896
I773
aI599
aI0
aI34
aI212
aI319
aa(lp2897
I305
aI158
aI14
aI34
aI370
aI46
aa(lp2898
I9
aI52
aI30
aI1836
aI265
aI1037
aa(lp2899
I1683
aI19
aI1249
aI143
aI58
aI1250
aa(lp2900
I1623
aI106
aI94
aI341
aI1712
aI5
aa(lp2901
I286
aI1153
aI1152
aI12
aI11
aI1154
aa(lp2902
I37
aI143
aI94
aI45
aI143
aI30
aa(lp2903
I1408
aI1407
aI136
aI98
aI289
aI290
aa(lp2904
I229
aI9
aI742
aI438
aI1837
aI30
aa(lp2905
I346
aI671
aI410
aI341
aI40
aI11
aa(lp2906
I165
aI634
aI240
aI48
aI346
aI1838
aa(lp2907
I346
aI19
aI317
aI7
aI494
aI1839
aa(lp2908
I1840
aI576
aI0
aI58
aI1307
aI358
aa(lp2909
I58
aI443
aI135
aI86
aI11
aI476
aa(lp2910
I388
aI826
aI146
aI86
aI39
aI801
aa(lp2911
I284
aI1177
aI5
aI98
aI5
aI1841
aa(lp2912
I5
aI964
aI5
aI98
aI5
aI1587
aa(lp2913
I125
aI130
aI66
aI662
aI802
aI3
aa(lp2914
I1196
aI19
aI129
aI143
aI1197
aI150
aa(lp2915
I28
aI1206
aI1413
aI98
aI130
aI34
aa(lp2916
I52
aI14
aI163
aI84
aI735
aI7
aa(lp2917
I1842
aI19
aI317
aI271
aI106
aI1843
aa(lp2918
I504
aI1844
aI117
aI1845
aI123
aI5
aa(lp2919
I158
aI714
aI235
aI370
aI144
aI46
aa(lp2920
I52
aI526
aI525
aI356
aI86
aI52
aa(lp2921
I1846
aI9
aI5
aI348
aI287
aI1847
aa(lp2922
I230
aI19
aI123
aI40
aI382
aI106
aa(lp2923
I1344
aI1343
aI2
aI58
aI107
aI1345
aa(lp2924
I48
aI67
aI66
aI37
aI413
aI110
aa(lp2925
I1150
aI56
aI143
aI40
aI635
aI5
aa(lp2926
I11
aI1848
aI75
aI3
aI356
aI7
aa(lp2927
I11
aI1849
aI143
aI144
aI162
aI788
aa(lp2928
I207
aI204
aI539
aI1193
aI143
aI5
aa(lp2929
I54
aI11
aI751
aI267
aI752
aI753
aa(lp2930
I267
aI7
aI359
aI7
aI1698
aI59
aa(lp2931
I9
aI301
aI888
aI3
aI68
aI382
aa(lp2932
I1850
aI221
aI1168
aI98
aI5
aI1851
aa(lp2933
I158
aI11
aI10
aI37
aI207
aI1852
aa(lp2934
I32
aI7
aI1052
aI7
aI268
aI7
aa(lp2935
I33
aI7
aI1853
aI7
aI1854
aI106
aa(lp2936
I114
aI113
aI112
aI1346
aI1855
aI193
aa(lp2937
I19
aI1033
aI75
aI3
aI40
aI1034
aa(lp2938
I135
aI11
aI1856
aI1857
aI337
aI351
aa(lp2939
I786
aI23
aI0
aI58
aI1546
aI207
aa(lp2940
I240
aI1858
aI235
aI723
aI305
aI1859
aa(lp2941
I980
aI19
aI163
aI34
aI1860
aI1861
aa(lp2942
I298
aI1193
aI143
aI226
aI107
aI143
aa(lp2943
I52
aI5
aI117
aI430
aI1862
aI341
aa(lp2944
I456
aI455
aI5
aI457
aI54
aI19
aa(lp2945
I58
aI701
aI1283
aI230
aI7
aI1536
aa(lp2946
I9
aI1863
aI58
aI0
aI5
aI94
aa(lp2947
I5
aI1864
aI143
aI58
aI646
aI295
aa(lp2948
I485
aI1261
aI58
aI390
aI646
aI146
aa(lp2949
I106
aI1865
aI1531
aI622
aI7
aI306
aa(lp2950
I631
aI182
aI1323
aI7
aI877
aI143
aa(lp2951
I19
aI113
aI0
aI30
aI1274
aI1866
aa(lp2952
I1867
aI210
aI577
aI3
aI1694
aI7
aa(lp2953
I1066
aI9
aI1413
aI1868
aI9
aI1869
aa(lp2954
I52
aI5
aI299
aI143
aI723
aI98
aa(lp2955
I54
aI1870
aI54
aI32
aI51
aI9
aa(lp2956
I1299
aI143
aI94
aI622
aI182
aI155
aa(lp2957
I89
aI2
aI1277
aI3
aI40
aI1871
aa(lp2958
I123
aI182
aI52
aI3
aI488
aI489
aa(lp2959
I267
aI1824
aI28
aI3
aI663
aI7
aa(lp2960
I7
aI24
aI586
aI98
aI1872
aI115
aa(lp2961
I1873
aI123
aI111
aI37
aI207
aI1874
aa(lp2962
I583
aI582
aI581
aI9
aI584
aI33
aa(lp2963
I9
aI190
aI135
aI191
aI192
aI139
aa(lp2964
I317
aI143
aI66
aI341
aI32
aI7
aa(lp2965
I301
aI46
aI101
aI1134
aI143
aI130
aa(lp2966
I1374
aI51
aI188
aI158
aI359
aI106
aa(lp2967
I7
aI359
aI5
aI3
aI359
aI1215
aa(lp2968
I134
aI133
aI132
aI7
aI28
aI135
aa(lp2969
I1193
aI98
aI355
aI208
aI1875
aI1876
aa(lp2970
I11
aI1351
aI101
aI7
aI688
aI738
aa(lp2971
I143
aI5
aI110
aI1877
aI1878
aI107
aa(lp2972
I5
aI131
aI9
aI1289
aI143
aI5
aa(lp2973
I59
aI59
aI10
aI58
aI240
aI284
aa(lp2974
I334
aI1720
aI2
aI169
aI410
aI739
aa(lp2975
I525
aI1879
aI75
aI207
aI5
aI1880
aa(lp2976
I11
aI1882
aI1881
aI115
aI200
aI34
aa(lp2977
I1884
aI66
aI1883
aI414
aI1885
aI98
aa(lp2978
I235
aI58
aI161
aI236
aI98
aI237
aa(lp2979
I753
aI143
aI855
aI58
aI240
aI261
aa(lp2980
I207
aI147
aI117
aI3
aI12
aI900
aa(lp2981
I583
aI582
aI581
aI9
aI584
aI33
aa(lp2982
I888
aI111
aI94
aI1182
aI533
aI1183
aa(lp2983
I9
aI688
aI1020
aI9
aI1021
aI1022
aa(lp2984
I5
aI1886
aI66
aI306
aI11
aI299
aa(lp2985
I456
aI44
aI111
aI1362
aI1331
aI518
aa(lp2986
I1169
aI2
aI1168
aI135
aI31
aI33
aa(lp2987
I114
aI113
aI112
aI115
aI0
aI116
aa(lp2988
I115
aI30
aI250
aI1328
aI695
aI143
aa(lp2989
I301
aI58
aI52
aI7
aI28
aI1637
aa(lp2990
I1887
aI85
aI0
aI3
aI1888
aI1889
aa(lp2991
I66
aI0
aI5
aI191
aI192
aI3
aa(lp2992
I235
aI58
aI161
aI236
aI98
aI237
aa(lp2993
I655
aI207
aI67
aI102
aI7
aI81
aa(lp2994
I58
aI685
aI2
aI1890
aI72
aI106
aa(lp2995
I51
aI1637
aI14
aI51
aI267
aI31
aa(lp2996
I525
aI75
aI129
aI207
aI533
aI1891
aa(lp2997
I888
aI111
aI94
aI1182
aI533
aI1183
aa(lp2998
I1114
aI9
aI420
aI9
aI5
aI573
aa(lp2999
I235
aI58
aI161
aI236
aI98
aI237
aa(lp3000
I0
aI1735
aI207
aI3
aI46
aI158
aa(lp3001
I295
aI11
aI10
aI1892
aI7
aI5
aa(lp3002
I852
aI54
aI143
aI58
aI513
aI1893
aa(lp3003
I244
aI143
aI94
aI1894
aI5
aI1895
aa(lp3004
I627
aI1896
aI5
aI182
aI5
aI543
aa(lp3005
I1897
aI136
aI117
aI40
aI1033
aI48
aa(lp3006
I143
aI1898
aI66
aI86
aI1899
aI0
aa(lp3007
I7
aI52
aI372
aI3
aI1054
aI1132
aa(lp3008
I237
aI1900
aI573
aI58
aI1901
aI135
aa(lp3009
I78
aI34
aI37
aI40
aI11
aI6
aa(lp3010
I162
aI143
aI117
aI410
aI111
aI9
aa(lp3011
I164
aI0
aI64
aI7
aI1103
aI64
aa(lp3012
I486
aI0
aI211
aI487
aI94
aI0
aa(lp3013
I67
aI30
aI156
aI86
aI66
aI1235
aa(lp3014
I143
aI113
aI0
aI4
aI355
aI90
aa(lp3015
I583
aI582
aI581
aI9
aI584
aI33
aa(lp3016
I30
aI9
aI1333
aI377
aI779
aI9
aa(lp3017
I230
aI642
aI101
aI7
aI28
aI1902
aa(lp3018
I1370
aI7
aI1376
aI0
aI211
aI428
aa(lp3019
I192
aI67
aI234
aI58
aI7
aI203
aa(lp3020
I54
aI100
aI143
aI539
aI1903
aI30
aa(lp3021
I359
aI117
aI586
aI5
aI338
aI54
aa(lp3022
I1904
aI48
aI5
aI135
aI265
aI627
aa(lp3023
I5
aI1905
aI51
aI85
aI130
aI58
aa(lp3024
I52
aI5
aI5
aI98
aI5
aI1363
aa(lp3025
I380
aI870
aI381
aI7
aI156
aI14
aa(lp3026
I961
aI980
aI0
aI3
aI158
aI1906
aa(lp3027
I130
aI58
aI960
aI48
aI36
aI961
aa(lp3028
I207
aI108
aI0
aI98
aI1200
aI1907
aa(lp3029
I1908
aI295
aI94
aI12
aI1909
aI94
aa(lp3030
I9
aI182
aI5
aI3
aI24
aI33
aa(lp3031
I143
aI123
aI66
aI319
aI1910
aI1406
aa(lp3032
I51
aI1193
aI14
aI1301
aI88
aI781
aa(lp3033
I1912
aI1911
aI2
aI120
aI143
aI5
aa(lp3034
I295
aI301
aI170
aI7
aI37
aI301
aa(lp3035
I1913
aI67
aI66
aI1159
aI143
aI5
aa(lp3036
I7
aI414
aI44
aI919
aI5
aI102
aa(lp3037
I1914
aI66
aI117
aI40
aI1915
aI1916
aa(lp3038
I366
aI144
aI365
aI251
aI226
aI7
aa(lp3039
I28
aI1757
aI117
aI3
aI169
aI146
aa(lp3040
I1917
aI136
aI66
aI13
aI86
aI240
aa(lp3041
I1918
aI44
aI1129
aI98
aI5
aI840
aa(lp3042
I207
aI5
aI995
aI390
aI146
aI5
aa(lp3043
I11
aI23
aI0
aI3
aI40
aI1111
aa(lp3044
I201
aI44
aI1129
aI1919
aI738
aI14
aa(lp3045
I34
aI700
aI5
aI0
aI5
aI840
aa(lp3046
I877
aI0
aI586
aI54
aI107
aI1920
aa(lp3047
I525
aI75
aI129
aI207
aI533
aI1891
aa(lp3048
I5
aI405
aI0
aI9
aI413
aI0
aa(lp3049
I125
aI130
aI66
aI662
aI802
aI3
aa(lp3050
I355
aI1921
aI94
aI111
aI182
aI230
aa(lp3051
I7
aI1625
aI14
aI587
aI1626
aI1627
aa(lp3052
I1922
aI146
aI111
aI92
aI81
aI175
aa(lp3053
I413
aI111
aI51
aI37
aI341
aI111
aa(lp3054
I40
aI5
aI727
aI89
aI143
aI301
aa(lp3055
I341
aI1923
aI295
aI212
aI250
aI192
aa(lp3056
I30
aI19
aI94
aI11
aI720
aI1924
aa(lp3057
I1357
aI75
aI124
aI48
aI5
aI131
aa(lp3058
I235
aI58
aI161
aI236
aI98
aI237
aa(lp3059
I9
aI72
aI143
aI1925
aI7
aI-1
aa(lp3060
I66
aI117
aI656
aI144
aI46
aI1926
aa(lp3061
I235
aI58
aI161
aI236
aI98
aI237
aa(lp3062
I1804
aI0
aI1029
aI120
aI123
aI305
aa(lp3063
I263
aI262
aI0
aI264
aI30
aI9
aa(lp3064
I949
aI686
aI948
aI109
aI7
aI28
aa(lp3065
I182
aI393
aI200
aI341
aI40
aI332
aa(lp3066
I160
aI54
aI19
aI3
aI46
aI40
aa(lp3067
I295
aI301
aI371
aI32
aI175
aI7
aa(lp3068
I1092
aI34
aI188
aI420
aI30
aI235
aa(lp3069
I1344
aI1343
aI2
aI58
aI107
aI1345
aa(lp3070
I40
aI174
aI173
aI32
aI51
aI98
aa(lp3071
I738
aI67
aI66
aI85
aI130
aI40
aa(lp3072
I54
aI997
aI135
aI182
aI998
aI211
aa(lp3073
I17
aI7
aI5
aI786
aI34
aI778
aa(lp3074
I106
aI168
aI66
aI13
aI86
aI240
aa(lp3075
I583
aI582
aI581
aI9
aI584
aI33
aa(lp3076
I28
aI143
aI123
aI120
aI9
aI123
aa(lp3077
I51
aI888
aI143
aI330
aI1927
aI1928
aa(lp3078
I1930
aI9
aI1929
aI1931
aI301
aI52
aa(lp3079
I1932
aI136
aI2
aI58
aI182
aI59
aa(lp3080
I888
aI111
aI94
aI1182
aI533
aI1183
aa(lp3081
I52
aI143
aI1933
aI3
aI89
aI98
aa(lp3082
I160
aI54
aI19
aI3
aI46
aI40
aa(lp3083
I1934
aI136
aI94
aI255
aI146
aI256
aa(lp3084
I1935
aI0
aI1057
aI85
aI98
aI2
aa(lp3085
I230
aI106
aI94
aI4
aI7
aI414
aa(lp3086
I888
aI111
aI94
aI1182
aI533
aI1183
aa(lp3087
I485
aI1744
aI5
aI3
aI738
aI7
aa(lp3088
I0
aI5
aI449
aI98
aI1442
aI153
aa(lp3089
I430
aI200
aI94
aI58
aI1040
aI1936
aa(lp3090
I1409
aI1937
aI0
aI5
aI240
aI34
aa(lp3091
I5
aI1864
aI143
aI58
aI646
aI295
aa(lp3092
I346
aI48
aI7
aI32
aI1938
aI1939
aa(lp3093
I5
aI469
aI0
aI24
aI78
aI9
aa(lp3094
I11
aI416
aI0
aI86
aI33
aI1940
aa(lp3095
I285
aI284
aI94
aI286
aI287
aI51
aa(lp3096
I1514
aI135
aI5
aI1515
aI1516
aI411
aa(lp3097
I11
aI576
aI0
aI30
aI622
aI75
aa(lp3098
I7
aI414
aI44
aI919
aI5
aI102
aa(lp3099
I711
aI86
aI129
aI3
aI40
aI1941
aa(lp3100
I506
aI237
aI505
aI507
aI237
aI82
aa(lp3101
I92
aI130
aI58
aI3
aI267
aI101
aa(lp3102
I365
aI143
aI2
aI169
aI28
aI317
aa(lp3103
I107
aI143
aI954
aI58
aI98
aI5
aa(lp3104
I1813
aI0
aI5
aI210
aI438
aI297
aa(lp3105
I54
aI997
aI135
aI182
aI998
aI211
aa(lp3106
I1942
aI480
aI0
aI539
aI1943
aI1944
aa(lp3107
I106
aI372
aI75
aI32
aI1945
aI1946
aa(lp3108
I338
aI337
aI295
aI339
aI158
aI239
aa(lp3109
I172
aI171
aI170
aI7
aI89
aI51
aa(lp3110
I341
aI539
aI94
aI633
aI9
aI86
aa(lp3111
I130
aI58
aI92
aI143
aI466
aI89
aa(lp3112
I1018
aI980
aI0
aI54
aI701
aI1019
aa(lp3113
I207
aI30
aI2
aI40
aI148
aI295
aa(lp3114
I34
aI414
aI235
aI120
aI305
aI613
aa(lp3115
I122
aI12
aI52
aI68
aI5
aI1012
aa(lp3116
I844
aI843
aI575
aI9
aI845
aI58
aa(lp3117
I136
aI5
aI558
aI3
aI1947
aI19
aa(lp3118
I188
aI123
aI2
aI1948
aI737
aI9
aa(lp3119
I7
aI5
aI112
aI9
aI256
aI5
aa(lp3120
I235
aI483
aI24
aI7
aI877
aI146
aa(lp3121
I58
aI66
aI739
aI461
aI304
aI5
aa(lp3122
I337
aI926
aI7
aI117
aI284
aI144
aa(lp3123
I631
aI182
aI1323
aI7
aI877
aI143
aa(lp3124
I667
aI308
aI66
aI120
aI143
aI5
aa(lp3125
I1942
aI480
aI0
aI539
aI1943
aI1944
aa(lp3126
I135
aI840
aI1949
aI54
aI466
aI1120
aa(lp3127
I480
aI86
aI94
aI123
aI631
aI30
aa(lp3128
I831
aI162
aI143
aI40
aI7
aI28
aa(lp3129
I11
aI23
aI0
aI98
aI1950
aI68
aa(lp3130
I54
aI123
aI117
aI120
aI207
aI175
aa(lp3131
I158
aI282
aI107
aI268
aI7
aI393
aa(lp3132
I143
aI5
aI727
aI267
aI333
aI7
aa(lp3133
I1352
aI30
aI19
aI3
aI40
aI1353
aa(lp3134
I150
aI1952
aI1951
aI7
aI5
aI1953
aa(lp3135
I30
aI230
aI94
aI247
aI145
aI3
aa(lp3136
I1634
aI174
aI129
aI13
aI86
aI299
aa(lp3137
I231
aI1227
aI143
aI12
aI431
aI207
aa(lp3138
I94
aI1954
aI573
aI526
aI607
aI40
aa(lp3139
I1955
aI58
aI19
aI3
aI1301
aI106
aa(lp3140
I393
aI239
aI392
aI86
aI394
aI51
aa(lp3141
I7
aI52
aI1956
aI1957
aI1958
aI1959
aa(lp3142
I263
aI262
aI0
aI264
aI30
aI9
aa(lp3143
I413
aI0
aI372
aI3
aI631
aI182
aa(lp3144
I1961
aI1960
aI357
aI58
aI1962
aI163
aa(lp3145
I1963
aI284
aI74
aI3
aI524
aI82
aa(lp3146
I7
aI250
aI7
aI619
aI200
aI714
aa(lp3147
I5
aI480
aI0
aI602
aI446
aI5
aa(lp3148
I30
aI54
aI117
aI3
aI1871
aI143
aa(lp3149
I1254
aI1253
aI98
aI34
aI686
aI34
aa(lp3150
I1964
aI7
aI403
aI264
aI1965
aI1966
aa(lp3151
I207
aI1517
aI7
aI1518
aI98
aI1519
aa(lp3152
I16
aI120
aI463
aI346
aI54
aI182
aa(lp3153
I264
aI5
aI449
aI9
aI305
aI12
aa(lp3154
I1330
aI1730
aI634
aI58
aI370
aI1731
aa(lp3155
I143
aI54
aI5
aI3
aI1117
aI7
aa(lp3156
I1967
aI147
aI121
aI9
aI267
aI40
aa(lp3157
I28
aI248
aI1968
aI143
aI1969
aI94
aa(lp3158
I83
aI82
aI5
aI84
aI85
aI86
aa(lp3159
I94
aI0
aI5
aI98
aI36
aI1022
aa(lp3160
I72
aI451
aI52
aI306
aI847
aI642
aa(lp3161
I92
aI535
aI14
aI1970
aI7
aI81
aa(lp3162
I143
aI5
aI240
aI436
aI207
aI30
aa(lp3163
I192
aI7
aI8
aI1971
aI207
aI5
aa(lp3164
I778
aI194
aI143
aI150
aI669
aI11
aa(lp3165
I301
aI58
aI600
aI601
aI6
aI264
aa(lp3166
I1406
aI491
aI1972
aI3
aI40
aI513
aa(lp3167
I89
aI143
aI117
aI1973
aI75
aI51
aa(lp3168
I52
aI143
aI66
aI3
aI40
aI575
aa(lp3169
I462
aI75
aI542
aI531
aI182
aI1974
aa(lp3170
I1975
aI136
aI5
aI3
aI738
aI7
aa(lp3171
I413
aI0
aI372
aI143
aI919
aI143
aa(lp3172
I11
aI23
aI0
aI82
aI1707
aI182
aa(lp3173
I78
aI98
aI1976
aI341
aI40
aI173
aa(lp3174
I386
aI86
aI2
aI341
aI524
aI158
aa(lp3175
I52
aI143
aI66
aI3
aI40
aI575
aa(lp3176
I34
aI730
aI143
aI1977
aI1552
aI30
aa(lp3177
I778
aI750
aI143
aI98
aI779
aI40
aa(lp3178
I837
aI143
aI2
aI58
aI4
aI86
aa(lp3179
I11
aI10
aI117
aI3
aI622
aI7
aa(lp3180
I456
aI44
aI111
aI1362
aI1331
aI196
aa(lp3181
I506
aI237
aI505
aI507
aI237
aI82
aa(lp3182
I85
aI0
aI94
aI1947
aI98
aI1978
aa(lp3183
I11
aI23
aI0
aI144
aI46
aI813
aa(lp3184
I144
aI11
aI10
aI40
aI7
aI28
aa(lp3185
I658
aI1602
aI1979
aI98
aI5
aI199
aa(lp3186
I1980
aI135
aI94
aI1981
aI54
aI1511
aa(lp3187
I612
aI685
aI684
aI150
aI111
aI19
aa(lp3188
I51
aI414
aI372
aI143
aI226
aI7
aa(lp3189
I34
aI40
aI206
aI4
aI1982
aI1983
aa(lp3190
I400
aI9
aI326
aI401
aI30
aI402
aa(lp3191
I83
aI7
aI117
aI680
aI681
aI682
aa(lp3192
I337
aI11
aI23
aI3
aI738
aI390
aa(lp3193
I5
aI1697
aI1696
aI34
aI341
aI144
aa(lp3194
I66
aI94
aI178
aI40
aI4
aI30
aa(lp3195
I995
aI0
aI117
aI436
aI7
aI1753
aa(lp3196
I30
aI251
aI156
aI502
aI5
aI1060
aa(lp3197
I332
aI23
aI0
aI58
aI1984
aI1985
aa(lp3198
I390
aI5
aI1986
aI48
aI5
aI833
aa(lp3199
I144
aI207
aI1987
aI12
aI98
aI5
aa(lp3200
I83
aI82
aI5
aI84
aI85
aI86
aa(lp3201
I114
aI113
aI112
aI1346
aI1988
aI193
aa(lp3202
I54
aI7
aI359
aI143
aI54
aI30
aa(lp3203
I750
aI135
aI2
aI7
aI333
aI85
aa(lp3204
I906
aI577
aI2
aI1989
aI1990
aI5
aa(lp3205
I4
aI0
aI5
aI3
aI1991
aI1992
aa(lp3206
I1018
aI980
aI0
aI54
aI701
aI1019
aa(lp3207
I0
aI1445
aI693
aI1446
aI158
aI584
aa(lp3208
I235
aI58
aI161
aI236
aI98
aI237
aa(lp3209
I9
aI161
aI117
aI587
aI199
aI34
aa(lp3210
I1994
aI117
aI1993
aI1330
aI37
aI143
aa(lp3211
I1370
aI7
aI1376
aI0
aI211
aI428
aa(lp3212
I139
aI30
aI250
aI788
aI447
aI146
aa(lp3213
I214
aI143
aI1995
aI788
aI11
aI1996
aa(lp3214
I7
aI111
aI295
aI98
aI334
aI1997
aa(lp3215
I1998
aI1595
aI113
aI98
aI59
aI59
aa(lp3216
I114
aI113
aI112
aI130
aI518
aI519
aa(lp3217
I1999
aI19
aI66
aI230
aI182
aI192
aa(lp3218
I143
aI0
aI5
aI3
aI971
aI5
aa(lp3219
I2001
aI2000
aI2
aI92
aI2002
aI67
aa(lp3220
I9
aI2003
aI5
aI261
aI19
aI5
aa(lp3221
I46
aI414
aI44
aI170
aI2004
aI7
aa(lp3222
I143
aI113
aI0
aI802
aI58
aI137
aa(lp3223
I54
aI44
aI10
aI1051
aI7
aI64
aa(lp3224
I5
aI1508
aI371
aI7
aI846
aI1509
aa(lp3225
I134
aI133
aI132
aI7
aI28
aI135
aa(lp3226
I66
aI0
aI5
aI34
aI188
aI40
aa(lp3227
I230
aI186
aI2
aI111
aI182
aI89
aa(lp3228
I2007
aI2006
aI2005
aI98
aI2008
aI926
aa(lp3229
I94
aI0
aI5
aI86
aI346
aI1002
aa(lp3230
I447
aI54
aI143
aI2009
aI7
aI111
aa(lp3231
I450
aI143
aI855
aI226
aI732
aI5
aa(lp3232
I2010
aI143
aI246
aI7
aI2011
aI1180
aa(lp3233
I58
aI87
aI0
aI3
aI88
aI30
aa(lp3234
I1422
aI106
aI11
aI54
aI59
aI60
aa(lp3235
I57
aI2012
aI86
aI2013
aI239
aI266
aa(lp3236
I1580
aI130
aI58
aI98
aI358
aI671
aa(lp3237
I656
aI240
aI586
aI264
aI11
aI25
aa(lp3238
I863
aI135
aI542
aI1330
aI111
aI542
aa(lp3239
I150
aI182
aI1155
aI539
aI308
aI66
aa(lp3240
I1342
aI159
aI1732
aI58
aI240
aI32
aa(lp3241
I11
aI956
aI901
aI28
aI155
aI7
aa(lp3242
I85
aI5
aI398
aI413
aI2014
aI1901
aa(lp3243
I19
aI52
aI372
aI3
aI47
aI34
aa(lp3244
I30
aI182
aI144
aI301
aI58
aI431
aa(lp3245
I2015
aI991
aI2
aI40
aI356
aI143
aa(lp3246
I143
aI51
aI613
aI59
aI60
aI2016
aa(lp3247
I737
aI738
aI207
aI466
aI2017
aI2018
aa(lp3248
I301
aI58
aI600
aI601
aI6
aI264
aa(lp3249
I2020
aI2019
aI48
aI32
aI51
aI143
aa(lp3250
I10
aI0
aI5
aI48
aI5
aI980
aa(lp3251
I2021
aI184
aI901
aI28
aI155
aI7
aa(lp3252
I462
aI75
aI542
aI531
aI182
aI1974
aa(lp3253
I0
aI11
aI262
aI48
aI211
aI1262
aa(lp3254
I19
aI1033
aI75
aI3
aI40
aI1034
aa(lp3255
I390
aI1712
aI106
aI3
aI314
aI78
aa(lp3256
I100
aI30
aI297
aI32
aI51
aI143
aa(lp3257
I752
aI542
aI999
aI793
aI1362
aI1331
aa(lp3258
I643
aI456
aI66
aI48
aI413
aI842
aa(lp3259
I7
aI996
aI2022
aI0
aI271
aI11
aa(lp3260
I2024
aI2023
aI19
aI9
aI229
aI308
aa(lp3261
I158
aI30
aI75
aI3
aI328
aI33
aa(lp3262
I0
aI1368
aI143
aI58
aI607
aI135
aa(lp3263
I1230
aI19
aI94
aI98
aI94
aI1231
aa(lp3264
I1828
aI576
aI0
aI58
aI4
aI346
aa(lp3265
I60
aI106
aI2
aI382
aI211
aI483
aa(lp3266
I346
aI1207
aI9
aI2025
aI2
aI240
aa(lp3267
I5
aI2026
aI39
aI40
aI173
aI359
aa(lp3268
I931
aI32
aI14
aI40
aI513
aI166
aa(lp3269
I297
aI296
aI295
aI85
aI130
aI40
aa(lp3270
I58
aI87
aI0
aI3
aI88
aI30
aa(lp3271
I82
aI66
aI240
aI284
aI144
aI2027
aa(lp3272
I54
aI610
aI94
aI34
aI188
aI111
aa(lp3273
I1227
aI9
aI16
aI158
aI211
aI801
aa(lp3274
I355
aI23
aI0
aI40
aI1023
aI1634
aa(lp3275
I888
aI19
aI538
aI2028
aI2029
aI89
aa(lp3276
I738
aI67
aI66
aI85
aI130
aI40
aa(lp3277
I52
aI182
aI66
aI58
aI547
aI144
aa(lp3278
I5
aI1184
aI143
aI40
aI173
aI1052
aa(lp3279
I235
aI5
aI727
aI2030
aI211
aI2031
aa(lp3280
I28
aI59
aI10
aI3
aI188
aI123
aa(lp3281
I413
aI0
aI372
aI3
aI539
aI979
aa(lp3282
I54
aI2032
aI5
aI143
aI52
aI727
aa(lp3283
I130
aI58
aI299
aI9
aI542
aI543
aa(lp3284
I34
aI431
aI207
aI3
aI1025
aI2033
aa(lp3285
I11
aI210
aI0
aI305
aI150
aI28
aa(lp3286
I2034
aI19
aI538
aI4
aI7
aI89
aa(lp3287
I1567
aI726
aI143
aI98
aI14
aI480
aa(lp3288
I2035
aI4
aI98
aI86
aI346
aI1002
aa(lp3289
I107
aI5
aI558
aI3
aI58
aI597
aa(lp3290
I6
aI0
aI5
aI7
aI196
aI11
aa(lp3291
I485
aI1847
aI1220
aI34
aI370
aI102
aa(lp3292
I349
aI1354
aI123
aI37
aI207
aI346
aa(lp3293
I504
aI1844
aI117
aI1845
aI123
aI5
aa(lp3294
I297
aI296
aI295
aI82
aI298
aI299
aa(lp3295
I7
aI16
aI66
aI2036
aI5
aI2037
aa(lp3296
I2038
aI9
aI142
aI58
aI370
aI2039
aa(lp3297
I135
aI5
aI96
aI3
aI111
aI2040
aa(lp3298
I9
aI993
aI113
aI788
aI298
aI739
aa(lp3299
I9
aI40
aI240
aI455
aI17
aI98
aa(lp3300
I1614
aI271
aI1306
aI230
aI305
aI1615
aa(lp3301
I9
aI635
aI19
aI4
aI636
aI637
aa(lp3302
I75
aI87
aI0
aI686
aI143
aI2041
aa(lp3303
I107
aI295
aI39
aI58
aI317
aI1193
aa(lp3304
I9
aI143
aI5
aI98
aI265
aI483
aa(lp3305
I5
aI643
aI19
aI0
aI52
aI57
aa(lp3306
I235
aI5
aI727
aI2030
aI211
aI2031
aa(lp3307
I48
aI2042
aI377
aI143
aI58
aI533
aa(lp3308
I741
aI9
aI64
aI58
aI120
aI9
aa(lp3309
I2043
aI182
aI226
aI7
aI40
aI298
aa(lp3310
I0
aI5
aI2044
aI305
aI212
aI250
aa(lp3311
I11
aI23
aI0
aI40
aI140
aI115
aa(lp3312
I7
aI192
aI143
aI1863
aI2045
aI9
aa(lp3313
I30
aI558
aI5
aI48
aI5
aI808
aa(lp3314
I207
aI480
aI357
aI58
aI1025
aI2046
aa(lp3315
I334
aI2047
aI5
aI58
aI973
aI52
aa(lp3316
I7
aI1329
aI117
aI1330
aI1331
aI34
aa(lp3317
I2049
aI2048
aI58
aI390
aI646
aI146
aa(lp3318
I462
aI75
aI542
aI531
aI182
aI1974
aa(lp3319
I34
aI162
aI51
aI188
aI240
aI207
aa(lp3320
I1133
aI143
aI2
aI46
aI361
aI19
aa(lp3321
I346
aI810
aI0
aI3
aI2050
aI7
aa(lp3322
I143
aI786
aI94
aI34
aI162
aI51
aa(lp3323
I1556
aI0
aI117
aI5
aI94
aI2051
aa(lp3324
I83
aI7
aI855
aI348
aI1221
aI86
aa(lp3325
I111
aI107
aI230
aI750
aI192
aI143
aa(lp3326
I11
aI105
aI2
aI4
aI105
aI106
aa(lp3327
I361
aI123
aI117
aI931
aI264
aI34
aa(lp3328
I916
aI359
aI586
aI30
aI54
aI165
aa(lp3329
I616
aI5
aI2052
aI701
aI556
aI9
aa(lp3330
I94
aI0
aI5
aI3
aI592
aI346
aa(lp3331
I2054
aI333
aI2053
aI264
aI2055
aI795
aa(lp3332
I1501
aI86
aI129
aI3
aI40
aI2056
aa(lp3333
I146
aI2057
aI75
aI3
aI1727
aI33
aa(lp3334
I28
aI7
aI326
aI346
aI341
aI28
aa(lp3335
I5
aI338
aI0
aI86
aI1167
aI1002
aa(lp3336
I604
aI143
aI2
aI605
aI11
aI606
aa(lp3337
I1613
aI0
aI5
aI1163
aI30
aI450
aa(lp3338
I0
aI237
aI94
aI341
aI302
aI86
aa(lp3339
I106
aI372
aI75
aI32
aI1945
aI1946
aa(lp3340
I2058
aI17
aI5
aI230
aI2059
aI143
aa(lp3341
I2049
aI107
aI143
aI341
aI666
aI5
aa(lp3342
I52
aI143
aI66
aI3
aI40
aI575
aa(lp3343
I2060
aI358
aI579
aI2061
aI2062
aI5
aa(lp3344
I2063
aI23
aI0
aI48
aI2064
aI855
aa(lp3345
I188
aI14
aI161
aI169
aI28
aI5
aa(lp3346
I752
aI542
aI999
aI793
aI1362
aI1331
aa(lp3347
I5
aI661
aI0
aI32
aI2065
aI2066
aa(lp3348
I143
aI54
aI5
aI3
aI1117
aI7
aa(lp3349
I431
aI7
aI117
aI143
aI40
aI82
aa(lp3350
I301
aI1023
aI359
aI877
aI1024
aI9
aa(lp3351
I287
aI649
aI0
aI86
aI650
aI651
aa(lp3352
I729
aI410
aI2
aI730
aI143
aI14
aa(lp3353
I6
aI0
aI5
aI7
aI8
aI9
aa(lp3354
I9
aI190
aI135
aI191
aI192
aI184
aa(lp3355
I143
aI129
aI117
aI618
aI5
aI184
aa(lp3356
I608
aI189
aI117
aI1706
aI5
aI782
aa(lp3357
I1511
aI7
aI5
aI305
aI12
aI1512
aa(lp3358
I1887
aI85
aI0
aI3
aI1888
aI1889
aa(lp3359
I46
aI37
aI94
aI45
aI123
aI11
aa(lp3360
I1018
aI980
aI0
aI54
aI701
aI1019
aa(lp3361
I666
aI135
aI66
aI2067
aI-1
aI-1
aa(lp3362
I485
aI1805
aI129
aI40
aI2068
aI207
aa(lp3363
I48
aI67
aI66
aI37
aI413
aI110
aa(lp3364
I135
aI94
aI2069
aI34
aI1633
aI188
aa(lp3365
I277
aI130
aI58
aI3
aI150
aI1623
aa(lp3366
I658
aI156
aI7
aI3
aI4
aI659
aa(lp3367
I1231
aI7
aI52
aI182
aI144
aI5
aa(lp3368
I6
aI143
aI24
aI193
aI5
aI184
aa(lp3369
I285
aI284
aI94
aI286
aI287
aI51
aa(lp3370
I2070
aI9
aI5
aI0
aI2071
aI2070
aa(lp3371
I9
aI182
aI123
aI170
aI51
aI7
aa(lp3372
I5
aI517
aI64
aI9
aI1018
aI1472
aa(lp3373
I40
aI173
aI298
aI635
aI-1
aI-1
aa(lp3374
I7
aI1539
aI117
aI115
aI143
aI539
aa(lp3375
I7
aI624
aI2
aI102
aI7
aI81
aa(lp3376
I1930
aI9
aI1929
aI1931
aI207
aI459
aa(lp3377
I7
aI11
aI10
aI458
aI111
aI182
aa(lp3378
I123
aI83
aI7
aI235
aI305
aI158
aa(lp3379
I130
aI58
aI92
aI143
aI466
aI89
aa(lp3380
I9
aI5
aI493
aI58
aI907
aI0
aa(lp3381
I11
aI23
aI0
aI143
aI341
aI446
aa(lp3382
I54
aI1198
aI2
aI120
aI30
aI1199
aa(lp3383
I1110
aI34
aI226
aI7
aI40
aI7
aa(lp3384
I2072
aI0
aI5
aI143
aI58
aI1117
aa(lp3385
I2073
aI135
aI123
aI889
aI9
aI40
aa(lp3386
I2074
aI136
aI573
aI58
aI1901
aI135
aa(lp3387
I100
aI0
aI2
aI3
aI111
aI306
aa(lp3388
I11
aI23
aI0
aI98
aI1950
aI68
aa(lp3389
I1169
aI2
aI1168
aI135
aI31
aI33
aa(lp3390
I640
aI210
aI0
aI815
aI5
aI96
aa(lp3391
I235
aI58
aI161
aI236
aI98
aI237
aa(lp3392
I556
aI555
aI117
aI58
aI97
aI7
aa(lp3393
I5
aI965
aI0
aI3
aI2075
aI509
aa(lp3394
I9
aI2076
aI32
aI98
aI346
aI210
aa(lp3395
I301
aI578
aI14
aI2077
aI95
aI2078
aa(lp3396
I75
aI1495
aI64
aI267
aI488
aI5
aa(lp3397
I188
aI2079
aI235
aI333
aI431
aI207
aa(lp3398
I92
aI130
aI58
aI3
aI267
aI101
aa(lp3399
I52
aI0
aI372
aI3
aI12
aI1546
aa(lp3400
I0
aI5
aI381
aI438
aI297
aI2080
aa(lp3401
I2081
aI143
aI346
aI40
aI1670
aI85
aa(lp3402
I2082
aI54
aI143
aI40
aI2083
aI163
aa(lp3403
I2084
aI136
aI66
aI341
aI41
aI37
aa(lp3404
I532
aI41
aI2085
aI86
aI2086
aI2087
aa(lp3405
I58
aI149
aI0
aI98
aI66
aI1534
aa(lp3406
I380
aI870
aI381
aI7
aI156
aI14
aa(lp3407
I92
aI130
aI58
aI3
aI267
aI101
aa(lp3408
I2089
aI7
aI2088
aI182
aI7
aI905
aa(lp3409
I135
aI5
aI398
aI30
aI2090
aI1511
aa(lp3410
I5
aI2091
aI1397
aI3
aI111
aI182
aa(lp3411
I2092
aI143
aI117
aI40
aI1546
aI207
aa(lp3412
I2094
aI143
aI2093
aI226
aI7
aI2095
aa(lp3413
I1770
aI0
aI5
aI3
aI1487
aI5
aa(lp3414
I1293
aI2096
aI295
aI1301
aI414
aI143
aa(lp3415
I5
aI1729
aI44
aI1362
aI1331
aI0
aa(lp3416
I2097
aI786
aI86
aI491
aI34
aI145
aa(lp3417
I1199
aI0
aI117
aI1957
aI-1
aI-1
aa(lp3418
I622
aI32
aI94
aI86
aI652
aI150
aa(lp3419
I75
aI5
aI2098
aI526
aI607
aI129
aa(lp3420
I75
aI2099
aI7
aI3
aI58
aI182
aa(lp3421
I7
aI52
aI372
aI3
aI1054
aI1132
aa(lp3422
I2100
aI1424
aI0
aI98
aI5
aI435
aa(lp3423
I114
aI113
aI112
aI1346
aI316
aI193
aa(lp3424
I285
aI284
aI94
aI286
aI287
aI51
aa(lp3425
I346
aI810
aI0
aI3
aI2050
aI7
aa(lp3426
I2101
aI0
aI1256
aI46
aI1807
aI2102
aa(lp3427
I267
aI2103
aI295
aI333
aI89
aI98
aa(lp3428
I1030
aI0
aI542
aI230
aI143
aI351
aa(lp3429
I7
aI111
aI86
aI0
aI52
aI712
aa(lp3430
I97
aI7
aI101
aI143
aI1100
aI82
aa(lp3431
I114
aI113
aI112
aI115
aI0
aI116
aa(lp3432
I295
aI1255
aI269
aI89
aI30
aI-1
aa(lp3433
I5
aI405
aI0
aI9
aI413
aI0
aa(lp3434
I11
aI2104
aI2
aI46
aI32
aI14
aa(lp3435
I2105
aI0
aI346
aI3
aI1301
aI707
aa(lp3436
I403
aI85
aI7
aI86
aI404
aI9
aa(lp3437
I9
aI40
aI240
aI455
aI17
aI98
aa(lp3438
I5
aI110
aI143
aI477
aI19
aI538
aa(lp3439
I5
aI312
aI0
aI42
aI2106
aI346
aa(lp3440
I1597
aI7
aI5
aI485
aI1847
aI2107
aa(lp3441
I34
aI700
aI5
aI0
aI5
aI840
aa(lp3442
I486
aI0
aI5
aI14
aI486
aI0
aa(lp3443
I840
aI1835
aI0
aI9
aI52
aI638
aa(lp3444
I7
aI158
aI5
aI221
aI5
aI1292
aa(lp3445
I2108
aI1890
aI5
aI98
aI5
aI231
aa(lp3446
I1668
aI410
aI5
aI0
aI2109
aI58
aa(lp3447
I1137
aI7
aI5
aI3
aI658
aI1138
aa(lp3448
I2110
aI792
aI2110
aI622
aI7
aI28
aa(lp3449
I166
aI0
aI1358
aI1330
aI382
aI1100
aa(lp3450
I471
aI237
aI371
aI7
aI605
aI3
aa(lp3451
I1018
aI980
aI0
aI54
aI701
aI1019
aa(lp3452
I2112
aI2111
aI66
aI2113
aI211
aI1207
aa(lp3453
I34
aI730
aI143
aI1977
aI1552
aI30
aa(lp3454
I169
aI28
aI39
aI86
aI2114
aI388
aa(lp3455
I148
aI5
aI2115
aI3
aI12
aI2116
aa(lp3456
I431
aI7
aI117
aI143
aI40
aI82
aa(lp3457
I2117
aI9
aI148
aI86
aI1154
aI1062
aa(lp3458
I655
aI207
aI67
aI102
aI7
aI81
aa(lp3459
I1242
aI14
aI1241
aI370
aI32
aI7
aa(lp3460
I1330
aI19
aI372
aI3
aI58
aI2118
aa(lp3461
I1729
aI191
aI1595
aI98
aI5
aI2119
aa(lp3462
I2120
aI284
aI94
aI802
aI295
aI136
aa(lp3463
I7
aI11
aI660
aI207
aI2121
aI1541
aa(lp3464
I888
aI111
aI94
aI1182
aI533
aI1183
aa(lp3465
I1253
aI17
aI9
aI424
aI723
aI75
aa(lp3466
I3
aI111
aI372
aI37
aI305
aI58
aa(lp3467
I1187
aI67
aI66
aI267
aI92
aI24
aa(lp3468
I6
aI0
aI5
aI7
aI196
aI11
aa(lp3469
I5
aI219
aI0
aI30
aI54
aI450
aa(lp3470
I1476
aI338
aI2
aI622
aI7
aI28
aa(lp3471
I237
aI350
aI7
aI357
aI11
aI1633
aa(lp3472
I451
aI1651
aI143
aI341
aI466
aI28
aa(lp3473
I7
aI1633
aI2
aI158
aI2122
aI2123
aa(lp3474
I4
aI0
aI5
aI3
aI1991
aI1992
aa(lp3475
I169
aI168
aI28
aI3
aI361
aI207
aa(lp3476
I2125
aI2124
aI855
aI3
aI58
aI888
aa(lp3477
I75
aI5
aI903
aI40
aI1023
aI2126
aa(lp3478
I182
aI539
aI5
aI1117
aI1708
aI143
aa(lp3479
I110
aI7
aI287
aI2127
aI9
aI5
aa(lp3480
I413
aI0
aI5
aI3
aI1561
aI5
aa(lp3481
I11
aI544
aI143
aI3
aI545
aI546
aa(lp3482
I34
aI2128
aI94
aI82
aI524
aI189
aa(lp3483
I471
aI227
aI857
aI361
aI207
aI5
aa(lp3484
I2129
aI9
aI5
aI0
aI2130
aI40
aa(lp3485
I28
aI277
aI2
aI40
aI513
aI967
aa(lp3486
I48
aI67
aI66
aI37
aI413
aI110
aa(lp3487
I130
aI58
aI66
aI3
aI58
aI344
aa(lp3488
I433
aI216
aI432
aI434
aI435
aI433
aa(lp3489
I54
aI831
aI135
aI913
aI334
aI1182
aa(lp3490
I9
aI950
aI284
aI1001
aI34
aI663
aa(lp3491
I5
aI2026
aI39
aI40
aI173
aI359
aa(lp3492
I1818
aI1341
aI101
aI143
aI2131
aI150
aa(lp3493
I149
aI0
aI995
aI3
aI46
aI319
aa(lp3494
I737
aI207
aI2
aI40
aI338
aI86
aa(lp3495
I5
aI1713
aI1543
aI7
aI8
aI5
aa(lp3496
I28
aI2132
aI135
aI2133
aI98
aI5
aa(lp3497
I12
aI113
aI0
aI3
aI58
aI2134
aa(lp3498
I9
aI1796
aI123
aI365
aI305
aI380
aa(lp3499
I656
aI7
aI414
aI2135
aI98
aI5
aa(lp3500
I30
aI4
aI7
aI288
aI17
aI7
aa(lp3501
I207
aI108
aI0
aI98
aI1200
aI9
aa(lp3502
I46
aI37
aI66
aI48
aI5
aI131
aa(lp3503
I2137
aI2136
aI107
aI264
aI588
aI192
aa(lp3504
I143
aI558
aI2138
aI2139
aI5
aI706
aa(lp3505
I11
aI23
aI0
aI288
aI30
aI1825
aa(lp3506
I11
aI23
aI0
aI75
aI5
aI2140
aa(lp3507
I54
aI143
aI94
aI4
aI2141
aI115
aa(lp3508
I52
aI5
aI2142
aI3
aI90
aI189
aa(lp3509
I677
aI875
aI94
aI876
aI877
aI54
aa(lp3510
I82
aI7
aI137
aI1330
aI5
aI1475
aa(lp3511
I583
aI582
aI581
aI9
aI584
aI33
aa(lp3512
I570
aI143
aI5
aI3
aI539
aI1013
aa(lp3513
I85
aI11
aI2143
aI5
aI517
aI7
aa(lp3514
I188
aI52
aI372
aI349
aI182
aI370
aa(lp3515
I2144
aI19
aI131
aI3
aI97
aI7
aa(lp3516
I19
aI52
aI372
aI3
aI47
aI34
aa(lp3517
I694
aI0
aI857
aI98
aI5
aI102
aa(lp3518
I83
aI7
aI586
aI182
aI543
aI587
aa(lp3519
I779
aI20
aI24
aI462
aI788
aI1111
aa(lp3520
I1110
aI34
aI226
aI7
aI40
aI7
aa(lp3521
I20
aI370
aI600
aI86
aI346
aI2145
aa(lp3522
I115
aI5
aI216
aI558
aI661
aI2146
aa(lp3523
I192
aI58
aI694
aI305
aI40
aI524
aa(lp3524
I2147
aI98
aI2
aI143
aI54
aI305
aa(lp3525
I30
aI230
aI94
aI247
aI145
aI3
aa(lp3526
I34
aI45
aI94
aI220
aI159
aI304
aa(lp3527
I5
aI980
aI0
aI34
aI2148
aI30
aa(lp3528
I410
aI577
aI66
aI58
aI326
aI305
aasS'american'
p3529
(lp3530
(lp3531
I2
aI1
aI0
aI3
aI4
aI5
aa(lp3532
I8
aI7
aI6
aI9
aI10
aI11
aa(lp3533
I8
aI7
aI6
aI9
aI10
aI11
aa(lp3534
I4
aI13
aI12
aI14
aI15
aI16
aa(lp3535
I18
aI6
aI17
aI19
aI20
aI21
aa(lp3536
I10
aI17
aI22
aI23
aI24
aI25
aa(lp3537
I28
aI27
aI26
aI29
aI30
aI31
aa(lp3538
I34
aI33
aI32
aI35
aI4
aI36
aa(lp3539
I28
aI27
aI26
aI29
aI30
aI31
aa(lp3540
I39
aI38
aI37
aI40
aI41
aI42
aa(lp3541
I4
aI13
aI12
aI14
aI15
aI16
aa(lp3542
I45
aI44
aI43
aI46
aI47
aI48
aa(lp3543
I50
aI49
aI13
aI51
aI52
aI53
aa(lp3544
I55
aI6
aI54
aI56
aI57
aI58
aa(lp3545
I25
aI59
aI17
aI60
aI6
aI61
aa(lp3546
I8
aI7
aI6
aI9
aI10
aI11
aa(lp3547
I39
aI38
aI37
aI40
aI41
aI42
aasS'college'
p3548
(lp3549
(lp3550
I2
aI1
aI0
aI3
aI4
aI5
aa(lp3551
I8
aI7
aI6
aI9
aI10
aI11
aa(lp3552
I14
aI13
aI12
aI15
aI16
aI17
aa(lp3553
I20
aI19
aI18
aI10
aI21
aI22
aa(lp3554
I25
aI24
aI23
aI26
aI27
aI28
aa(lp3555
I30
aI29
aI20
aI31
aI32
aI33
aa(lp3556
I35
aI34
aI26
aI26
aI10
aI36
aa(lp3557
I39
aI38
aI37
aI40
aI41
aI42
aa(lp3558
I45
aI44
aI43
aI46
aI47
aI13
aa(lp3559
I49
aI48
aI14
aI50
aI51
aI4
aa(lp3560
I31
aI13
aI52
aI20
aI53
aI54
aa(lp3561
I57
aI56
aI55
aI26
aI58
aI59
aa(lp3562
I62
aI61
aI60
aI63
aI64
aI28
aa(lp3563
I67
aI66
aI65
aI68
aI6
aI69
aa(lp3564
I72
aI71
aI70
aI50
aI73
aI28
aa(lp3565
I75
aI74
aI20
aI76
aI40
aI77
aa(lp3566
I57
aI56
aI55
aI26
aI58
aI59
aa(lp3567
I13
aI78
aI20
aI79
aI80
aI81
aa(lp3568
I83
aI13
aI82
aI84
aI85
aI86
aa(lp3569
I87
aI21
aI10
aI88
aI89
aI90
aa(lp3570
I92
aI91
aI50
aI93
aI94
aI95
aa(lp3571
I79
aI96
aI20
aI4
aI97
aI44
aa(lp3572
I100
aI99
aI98
aI101
aI79
aI102
aa(lp3573
I24
aI14
aI103
aI104
aI105
aI106
aa(lp3574
I108
aI107
aI20
aI40
aI109
aI19
aa(lp3575
I110
aI0
aI103
aI111
aI104
aI112
aa(lp3576
I115
aI114
aI113
aI116
aI117
aI32
aa(lp3577
I119
aI118
aI4
aI120
aI121
aI92
aa(lp3578
I123
aI122
aI20
aI103
aI124
aI125
aa(lp3579
I79
aI96
aI20
aI4
aI97
aI44
aa(lp3580
I100
aI99
aI98
aI101
aI79
aI102
aa(lp3581
I45
aI10
aI20
aI126
aI127
aI118
aa(lp3582
I128
aI13
aI82
aI26
aI79
aI44
aa(lp3583
I131
aI130
aI129
aI18
aI132
aI133
aa(lp3584
I136
aI135
aI134
aI137
aI138
aI28
aa(lp3585
I140
aI20
aI139
aI46
aI141
aI66
aa(lp3586
I127
aI121
aI20
aI142
aI143
aI13
aa(lp3587
I56
aI1
aI0
aI79
aI21
aI26
aa(lp3588
I4
aI19
aI144
aI31
aI145
aI146
aa(lp3589
I40
aI147
aI13
aI26
aI76
aI40
aa(lp3590
I57
aI56
aI55
aI26
aI58
aI59
aa(lp3591
I150
aI149
aI148
aI151
aI152
aI153
aa(lp3592
I154
aI145
aI50
aI26
aI79
aI31
aa(lp3593
I156
aI155
aI28
aI157
aI158
aI159
aa(lp3594
I79
aI160
aI44
aI28
aI161
aI135
aa(lp3595
I162
aI14
aI44
aI163
aI65
aI164
aa(lp3596
I0
aI13
aI165
aI166
aI128
aI167
aa(lp3597
I40
aI147
aI14
aI79
aI147
aI168
aa(lp3598
I83
aI13
aI82
aI84
aI-1
aI-1
aa(lp3599
I170
aI40
aI169
aI171
aI26
aI172
aa(lp3600
I175
aI174
aI173
aI176
aI177
aI178
aa(lp3601
I100
aI99
aI98
aI101
aI79
aI102
aa(lp3602
I181
aI180
aI179
aI137
aI182
aI183
aa(lp3603
I24
aI14
aI103
aI104
aI105
aI106
aa(lp3604
I185
aI184
aI28
aI186
aI79
aI177
aa(lp3605
I79
aI44
aI187
aI188
aI189
aI28
aa(lp3606
I192
aI191
aI190
aI26
aI0
aI193
aa(lp3607
I196
aI195
aI194
aI137
aI197
aI198
aa(lp3608
I132
aI118
aI4
aI10
aI4
aI45
aa(lp3609
I14
aI44
aI43
aI40
aI109
aI180
aa(lp3610
I40
aI199
aI4
aI200
aI44
aI201
aa(lp3611
I182
aI135
aI202
aI203
aI153
aI40
aa(lp3612
I163
aI145
aI20
aI159
aI204
aI205
aa(lp3613
I44
aI206
aI40
aI137
aI207
aI208
aa(lp3614
I81
aI104
aI13
aI209
aI97
aI210
aa(lp3615
I212
aI168
aI211
aI142
aI213
aI129
aa(lp3616
I100
aI99
aI98
aI101
aI79
aI102
aa(lp3617
I100
aI99
aI98
aI101
aI79
aI102
aa(lp3618
I214
aI104
aI54
aI26
aI215
aI4
aasS'church'
p3619
(lp3620
(lp3621
I2
aI1
aI0
aI3
aI4
aI5
aa(lp3622
I7
aI6
aI1
aI8
aI9
aI10
aa(lp3623
I13
aI12
aI11
aI14
aI15
aI16
aa(lp3624
I17
aI2
aI1
aI18
aI19
aI20
aa(lp3625
I22
aI18
aI21
aI23
aI24
aI25
aa(lp3626
I11
aI1
aI11
aI26
aI27
aI28
aa(lp3627
I29
aI18
aI1
aI30
aI1
aI31
aa(lp3628
I34
aI33
aI32
aI35
aI32
aI36
aa(lp3629
I38
aI37
aI21
aI21
aI39
aI26
aa(lp3630
I41
aI40
aI30
aI42
aI43
aI44
aa(lp3631
I45
aI30
aI43
aI46
aI38
aI47
aa(lp3632
I39
aI2
aI48
aI49
aI50
aI51
aa(lp3633
I52
aI30
aI43
aI37
aI53
aI54
aa(lp3634
I56
aI1
aI55
aI57
aI58
aI43
aa(lp3635
I60
aI59
aI48
aI61
aI62
aI63
aa(lp3636
I22
aI18
aI21
aI23
aI24
aI25
aa(lp3637
I64
aI40
aI30
aI64
aI65
aI66
aa(lp3638
I41
aI40
aI30
aI42
aI43
aI44
aa(lp3639
I30
aI43
aI67
aI68
aI43
aI69
aa(lp3640
I18
aI70
aI43
aI71
aI72
aI73
aa(lp3641
I74
aI37
aI43
aI75
aI76
aI46
aa(lp3642
I78
aI1
aI77
aI32
aI37
aI1
aa(lp3643
I23
aI79
aI30
aI80
aI46
aI81
aa(lp3644
I39
aI2
aI43
aI71
aI82
aI83
aa(lp3645
I54
aI84
aI21
aI85
aI37
aI46
aa(lp3646
I30
aI87
aI86
aI88
aI43
aI89
aa(lp3647
I18
aI43
aI90
aI91
aI92
aI37
aa(lp3648
I30
aI1
aI93
aI94
aI47
aI95
aa(lp3649
I96
aI40
aI30
aI47
aI97
aI98
aa(lp3650
I100
aI64
aI99
aI37
aI101
aI102
aa(lp3651
I104
aI103
aI1
aI81
aI30
aI105
aa(lp3652
I106
aI2
aI1
aI46
aI107
aI108
aa(lp3653
I109
aI30
aI1
aI110
aI111
aI112
aa(lp3654
I41
aI40
aI30
aI42
aI43
aI44
aa(lp3655
I86
aI113
aI18
aI114
aI115
aI81
aa(lp3656
I74
aI37
aI43
aI75
aI76
aI46
aa(lp3657
I117
aI1
aI116
aI82
aI43
aI118
aa(lp3658
I120
aI2
aI119
aI64
aI121
aI122
aa(lp3659
I123
aI26
aI1
aI124
aI125
aI71
aa(lp3660
I126
aI1
aI11
aI127
aI30
aI128
aa(lp3661
I115
aI1
aI11
aI129
aI130
aI129
aa(lp3662
I68
aI1
aI131
aI71
aI132
aI133
aa(lp3663
I45
aI30
aI43
aI46
aI38
aI47
aa(lp3664
I2
aI1
aI93
aI32
aI115
aI120
aa(lp3665
I135
aI134
aI21
aI23
aI136
aI1
aa(lp3666
I43
aI137
aI2
aI138
aI139
aI32
aa(lp3667
I113
aI2
aI1
aI18
aI140
aI141
aa(lp3668
I1
aI142
aI11
aI143
aI144
aI65
aa(lp3669
I18
aI43
aI90
aI145
aI18
aI43
aa(lp3670
I146
aI2
aI1
aI147
aI148
aI1
aa(lp3671
I41
aI40
aI30
aI42
aI43
aI44
aa(lp3672
I129
aI50
aI149
aI150
aI58
aI151
aa(lp3673
I154
aI153
aI152
aI155
aI81
aI68
aa(lp3674
I43
aI156
aI15
aI1
aI157
aI158
aa(lp3675
I160
aI159
aI1
aI99
aI43
aI161
aa(lp3676
I1
aI105
aI162
aI82
aI18
aI163
aa(lp3677
I164
aI18
aI43
aI64
aI165
aI30
aa(lp3678
I166
aI2
aI1
aI136
aI46
aI167
aa(lp3679
I30
aI168
aI2
aI32
aI162
aI169
aa(lp3680
I82
aI88
aI1
aI170
aI171
aI65
aa(lp3681
I37
aI60
aI93
aI172
aI74
aI32
aa(lp3682
I2
aI43
aI173
aI18
aI174
aI1
aa(lp3683
I46
aI175
aI41
aI176
aI177
aI178
aa(lp3684
I2
aI1
aI179
aI180
aI1
aI181
aa(lp3685
I71
aI182
aI83
aI183
aI32
aI184
aa(lp3686
I46
aI185
aI61
aI186
aI9
aI30
aa(lp3687
I187
aI13
aI11
aI14
aI15
aI188
aa(lp3688
I41
aI40
aI30
aI42
aI43
aI44
aa(lp3689
I30
aI189
aI21
aI81
aI190
aI191
aa(lp3690
I164
aI18
aI43
aI64
aI165
aI30
aa(lp3691
I193
aI192
aI1
aI2
aI194
aI23
aa(lp3692
I196
aI1
aI195
aI197
aI198
aI72
aa(lp3693
I199
aI7
aI21
aI1
aI195
aI62
aa(lp3694
I146
aI2
aI43
aI18
aI200
aI201
aa(lp3695
I203
aI18
aI202
aI85
aI204
aI81
aa(lp3696
I41
aI205
aI1
aI46
aI206
aI207
aa(lp3697
I71
aI208
aI30
aI1
aI209
aI82
aa(lp3698
I74
aI37
aI43
aI75
aI76
aI46
aa(lp3699
I2
aI1
aI179
aI32
aI86
aI210
aa(lp3700
I211
aI88
aI48
aI110
aI58
aI212
aa(lp3701
I74
aI37
aI43
aI75
aI76
aI46
aa(lp3702
I30
aI1
aI93
aI94
aI47
aI95
aa(lp3703
I86
aI113
aI18
aI114
aI115
aI81
aa(lp3704
I18
aI1
aI213
aI108
aI46
aI26
aa(lp3705
I74
aI37
aI43
aI75
aI76
aI46
aa(lp3706
I215
aI214
aI90
aI71
aI216
aI212
aa(lp3707
I88
aI217
aI30
aI218
aI219
aI220
aa(lp3708
I18
aI70
aI43
aI71
aI72
aI73
aa(lp3709
I33
aI1
aI221
aI2
aI222
aI223
aa(lp3710
I224
aI168
aI2
aI32
aI162
aI81
aa(lp3711
I124
aI2
aI1
aI225
aI115
aI81
aa(lp3712
I17
aI2
aI1
aI18
aI19
aI20
aa(lp3713
I86
aI113
aI18
aI114
aI115
aI81
aa(lp3714
I2
aI1
aI55
aI32
aI81
aI225
aa(lp3715
I226
aI99
aI1
aI227
aI228
aI229
aa(lp3716
I2
aI1
aI61
aI230
aI88
aI1
aa(lp3717
I231
aI2
aI1
aI232
aI233
aI234
aa(lp3718
I61
aI35
aI235
aI32
aI236
aI237
aa(lp3719
I2
aI1
aI131
aI71
aI238
aI64
aa(lp3720
I1
aI240
aI239
aI241
aI242
aI243
aa(lp3721
I245
aI244
aI131
aI57
aI246
aI191
aa(lp3722
I1
aI223
aI247
aI2
aI212
aI248
aa(lp3723
I18
aI46
aI1
aI249
aI1
aI250
aa(lp3724
I251
aI30
aI1
aI18
aI252
aI46
aa(lp3725
I71
aI253
aI1
aI2
aI119
aI254
aa(lp3726
I222
aI255
aI1
aI81
aI256
aI129
aa(lp3727
I46
aI175
aI41
aI176
aI15
aI257
aa(lp3728
I196
aI1
aI195
aI197
aI198
aI72
aa(lp3729
I1
aI168
aI2
aI32
aI162
aI71
aa(lp3730
I1
aI240
aI239
aI241
aI242
aI243
aa(lp3731
I46
aI43
aI93
aI258
aI160
aI259
aa(lp3732
I260
aI1
aI55
aI261
aI262
aI30
aa(lp3733
I263
aI18
aI43
aI1
aI91
aI264
aa(lp3734
I265
aI18
aI1
aI2
aI266
aI267
aa(lp3735
I176
aI2
aI48
aI71
aI268
aI269
aa(lp3736
I203
aI18
aI43
aI270
aI271
aI110
aa(lp3737
I126
aI1
aI11
aI127
aI30
aI128
aa(lp3738
I272
aI184
aI18
aI273
aI119
aI207
aa(lp3739
I71
aI274
aI1
aI275
aI41
aI276
aa(lp3740
I278
aI277
aI1
aI47
aI1
aI279
aa(lp3741
I242
aI168
aI2
aI32
aI162
aI280
aa(lp3742
I48
aI281
aI18
aI282
aI283
aI284
aa(lp3743
I285
aI140
aI1
aI32
aI1
aI162
aa(lp3744
I285
aI140
aI1
aI32
aI1
aI162
aa(lp3745
I2
aI286
aI55
aI287
aI23
aI288
aa(lp3746
I290
aI1
aI289
aI291
aI292
aI293
aa(lp3747
I160
aI159
aI1
aI99
aI43
aI161
aa(lp3748
I74
aI37
aI43
aI75
aI76
aI46
aa(lp3749
I80
aI294
aI154
aI295
aI30
aI172
aa(lp3750
I224
aI168
aI2
aI32
aI162
aI81
aa(lp3751
I203
aI18
aI43
aI270
aI271
aI110
aa(lp3752
I1
aI142
aI11
aI143
aI144
aI65
aa(lp3753
I44
aI296
aI1
aI297
aI298
aI43
aa(lp3754
I48
aI299
aI37
aI81
aI300
aI41
aa(lp3755
I301
aI123
aI60
aI81
aI1
aI302
aa(lp3756
I303
aI30
aI1
aI32
aI1
aI304
aa(lp3757
I140
aI305
aI1
aI81
aI41
aI172
aa(lp3758
I306
aI30
aI1
aI85
aI62
aI54
aa(lp3759
I307
aI2
aI1
aI145
aI282
aI308
aa(lp3760
I310
aI309
aI1
aI32
aI311
aI1
aa(lp3761
I28
aI27
aI151
aI32
aI162
aI46
aa(lp3762
I18
aI70
aI43
aI71
aI72
aI73
aa(lp3763
I100
aI64
aI99
aI37
aI101
aI175
aa(lp3764
I312
aI46
aI43
aI313
aI314
aI275
aa(lp3765
I41
aI40
aI30
aI42
aI43
aI44
aa(lp3766
I18
aI1
aI55
aI283
aI284
aI315
aa(lp3767
I23
aI276
aI60
aI18
aI316
aI317
aa(lp3768
I318
aI1
aI55
aI319
aI46
aI1
aa(lp3769
I320
aI18
aI1
aI321
aI115
aI322
aa(lp3770
I68
aI40
aI30
aI47
aI97
aI145
aa(lp3771
I88
aI1
aI55
aI1
aI57
aI2
aa(lp3772
I2
aI1
aI131
aI275
aI40
aI47
aa(lp3773
I324
aI43
aI323
aI275
aI184
aI325
aa(lp3774
I82
aI18
aI43
aI7
aI71
aI326
aa(lp3775
I46
aI175
aI41
aI176
aI15
aI327
aa(lp3776
I329
aI328
aI242
aI32
aI7
aI1
aa(lp3777
I2
aI162
aI32
aI139
aI330
aI71
aa(lp3778
I113
aI2
aI1
aI18
aI140
aI141
aa(lp3779
I215
aI214
aI90
aI71
aI216
aI212
aa(lp3780
I41
aI331
aI83
aI7
aI21
aI332
aa(lp3781
I333
aI18
aI1
aI80
aI71
aI82
aa(lp3782
I2
aI1
aI131
aI275
aI40
aI47
aa(lp3783
I30
aI40
aI30
aI334
aI212
aI82
aa(lp3784
I335
aI162
aI1
aI68
aI336
aI337
aasS'military'
p3785
(lp3786
(lp3787
I2
aI1
aI0
aI3
aI4
aI5
aa(lp3788
I8
aI7
aI6
aI9
aI10
aI11
aa(lp3789
I14
aI13
aI12
aI15
aI16
aI17
aa(lp3790
I20
aI19
aI18
aI21
aI22
aI23
aa(lp3791
I25
aI24
aI2
aI26
aI27
aI28
aa(lp3792
I30
aI29
aI11
aI31
aI32
aI33
aa(lp3793
I35
aI34
aI2
aI36
aI37
aI38
aa(lp3794
I40
aI39
aI12
aI41
aI42
aI33
aa(lp3795
I18
aI44
aI43
aI45
aI33
aI11
aa(lp3796
I12
aI46
aI2
aI47
aI6
aI12
aa(lp3797
I49
aI12
aI48
aI50
aI33
aI23
aa(lp3798
I51
aI10
aI2
aI52
aI53
aI54
aa(lp3799
I56
aI2
aI55
aI57
aI12
aI11
aa(lp3800
I59
aI58
aI6
aI60
aI23
aI42
aa(lp3801
I61
aI12
aI11
aI62
aI19
aI63
aa(lp3802
I66
aI65
aI64
aI67
aI68
aI69
aa(lp3803
I72
aI71
aI70
aI73
aI74
aI75
aa(lp3804
I12
aI76
aI11
aI77
aI10
aI11
aa(lp3805
I79
aI78
aI11
aI80
aI81
aI10
aa(lp3806
I23
aI31
aI2
aI82
aI83
aI33
aa(lp3807
I85
aI84
aI2
aI86
aI87
aI88
aa(lp3808
I90
aI89
aI2
aI91
aI37
aI92
aa(lp3809
I12
aI94
aI93
aI50
aI95
aI96
aa(lp3810
I42
aI97
aI11
aI42
aI98
aI23
aa(lp3811
I100
aI99
aI11
aI101
aI102
aI42
aa(lp3812
I59
aI104
aI103
aI105
aI106
aI11
aa(lp3813
I108
aI107
aI10
aI6
aI109
aI110
aa(lp3814
I112
aI103
aI111
aI113
aI6
aI0
aa(lp3815
I115
aI114
aI11
aI65
aI116
aI117
aa(lp3816
I119
aI31
aI118
aI57
aI95
aI120
aa(lp3817
I33
aI121
aI33
aI39
aI122
aI123
aa(lp3818
I124
aI34
aI11
aI125
aI126
aI127
aa(lp3819
I129
aI128
aI39
aI130
aI131
aI129
aa(lp3820
I42
aI97
aI11
aI42
aI98
aI23
aa(lp3821
I30
aI29
aI11
aI132
aI12
aI133
aa(lp3822
I135
aI134
aI14
aI136
aI18
aI137
aa(lp3823
I139
aI80
aI138
aI140
aI141
aI142
aa(lp3824
I144
aI11
aI143
aI145
aI146
aI99
aa(lp3825
I148
aI147
aI23
aI149
aI6
aI35
aa(lp3826
I152
aI151
aI150
aI153
aI154
aI155
aa(lp3827
I12
aI76
aI11
aI77
aI10
aI11
aa(lp3828
I42
aI156
aI12
aI157
aI158
aI103
aa(lp3829
I160
aI12
aI159
aI161
aI99
aI11
aa(lp3830
I20
aI19
aI18
aI21
aI22
aI23
aa(lp3831
I48
aI162
aI11
aI163
aI33
aI164
aa(lp3832
I165
aI65
aI2
aI166
aI84
aI11
aa(lp3833
I167
aI65
aI2
aI168
aI23
aI169
aa(lp3834
I171
aI170
aI6
aI172
aI173
aI19
aa(lp3835
I20
aI19
aI18
aI21
aI22
aI23
aa(lp3836
I119
aI31
aI118
aI57
aI95
aI120
aa(lp3837
I35
aI174
aI2
aI175
aI176
aI177
aa(lp3838
I180
aI179
aI178
aI181
aI182
aI183
aa(lp3839
I185
aI126
aI184
aI186
aI102
aI19
aa(lp3840
I188
aI187
aI126
aI189
aI19
aI190
aa(lp3841
I192
aI84
aI191
aI24
aI6
aI193
aa(lp3842
I161
aI56
aI11
aI194
aI25
aI195
aa(lp3843
I11
aI62
aI196
aI6
aI197
aI198
aa(lp3844
I95
aI199
aI187
aI200
aI201
aI202
aa(lp3845
I203
aI126
aI23
aI204
aI205
aI206
aa(lp3846
I208
aI207
aI2
aI209
aI71
aI210
aa(lp3847
I212
aI211
aI11
aI63
aI39
aI74
aa(lp3848
I12
aI94
aI93
aI50
aI95
aI96
aa(lp3849
I213
aI10
aI21
aI6
aI51
aI214
aa(lp3850
I117
aI215
aI95
aI73
aI216
aI217
aa(lp3851
I218
aI103
aI137
aI219
aI220
aI128
aa(lp3852
I221
aI33
aI11
aI222
aI223
aI6
aa(lp3853
I225
aI6
aI224
aI226
aI12
aI115
aa(lp3854
I95
aI11
aI227
aI33
aI228
aI229
aa(lp3855
I185
aI126
aI184
aI186
aI102
aI19
aa(lp3856
I19
aI11
aI184
aI230
aI74
aI231
aa(lp3857
I232
aI39
aI10
aI35
aI233
aI234
aa(lp3858
I2
aI235
aI12
aI236
aI198
aI237
aa(lp3859
I96
aI33
aI238
aI239
aI240
aI33
aa(lp3860
I2
aI58
aI71
aI241
aI6
aI106
aa(lp3861
I12
aI126
aI23
aI223
aI242
aI243
aa(lp3862
I171
aI170
aI6
aI172
aI173
aI19
aa(lp3863
I6
aI2
aI238
aI244
aI19
aI42
aa(lp3864
I20
aI19
aI18
aI21
aI22
aI23
aa(lp3865
I246
aI245
aI11
aI10
aI247
aI21
aa(lp3866
I248
aI12
aI11
aI249
aI128
aI2
aa(lp3867
I11
aI250
aI6
aI251
aI11
aI197
aa(lp3868
I19
aI252
aI12
aI6
aI253
aI254
aa(lp3869
I256
aI255
aI0
aI257
aI6
aI116
aa(lp3870
I259
aI39
aI258
aI260
aI93
aI184
aa(lp3871
I261
aI31
aI11
aI262
aI12
aI263
aa(lp3872
I2
aI235
aI12
aI236
aI198
aI237
aa(lp3873
I12
aI126
aI23
aI223
aI242
aI243
aa(lp3874
I12
aI126
aI23
aI223
aI242
aI243
aa(lp3875
I25
aI265
aI264
aI266
aI12
aI267
aa(lp3876
I174
aI15
aI123
aI50
aI10
aI268
aa(lp3877
I269
aI95
aI2
aI237
aI270
aI271
aa(lp3878
I273
aI272
aI11
aI274
aI12
aI275
aa(lp3879
I33
aI277
aI276
aI226
aI11
aI278
aa(lp3880
I280
aI279
aI10
aI6
aI281
aI282
aa(lp3881
I284
aI283
aI11
aI285
aI-1
aI-1
aa(lp3882
I286
aI2
aI238
aI287
aI71
aI109
aa(lp3883
I20
aI19
aI18
aI21
aI22
aI23
aa(lp3884
I20
aI19
aI18
aI21
aI22
aI23
aa(lp3885
I288
aI51
aI6
aI289
aI64
aI290
aa(lp3886
I2
aI291
aI95
aI292
aI293
aI71
aa(lp3887
I246
aI245
aI11
aI10
aI247
aI21
aa(lp3888
I294
aI95
aI2
aI219
aI295
aI6
aa(lp3889
I296
aI10
aI11
aI297
aI298
aI299
aa(lp3890
I300
aI18
aI11
aI6
aI301
aI302
aa(lp3891
I48
aI304
aI303
aI50
aI33
aI23
aa(lp3892
I8
aI7
aI6
aI9
aI10
aI11
aa(lp3893
I25
aI42
aI305
aI306
aI307
aI222
aa(lp3894
I308
aI99
aI178
aI61
aI35
aI309
aa(lp3895
I296
aI10
aI11
aI35
aI240
aI310
aa(lp3896
I30
aI29
aI11
aI311
aI312
aI313
aa(lp3897
I103
aI315
aI314
aI27
aI316
aI317
aa(lp3898
I48
aI162
aI11
aI163
aI33
aI164
aa(lp3899
I2
aI318
aI12
aI6
aI109
aI204
aa(lp3900
I126
aI11
aI319
aI320
aI11
aI320
aa(lp3901
I12
aI126
aI23
aI223
aI242
aI243
aa(lp3902
I321
aI6
aI116
aI322
aI10
aI11
aa(lp3903
I324
aI12
aI323
aI325
aI31
aI326
aa(lp3904
I72
aI71
aI70
aI73
aI74
aI75
aa(lp3905
I213
aI328
aI327
aI270
aI102
aI35
aa(lp3906
I85
aI84
aI2
aI86
aI87
aI88
aa(lp3907
I34
aI329
aI11
aI6
aI184
aI330
aa(lp3908
I51
aI10
aI2
aI52
aI53
aI54
aa(lp3909
I19
aI11
aI184
aI230
aI74
aI231
aa(lp3910
I331
aI42
aI2
aI332
aI6
aI11
aa(lp3911
I333
aI12
aI11
aI286
aI126
aI334
aa(lp3912
I102
aI74
aI2
aI335
aI167
aI74
aa(lp3913
I20
aI19
aI18
aI21
aI22
aI23
aa(lp3914
I338
aI337
aI336
aI339
aI239
aI6
aa(lp3915
I340
aI84
aI11
aI341
aI12
aI342
aa(lp3916
I344
aI343
aI6
aI345
aI33
aI346
aa(lp3917
I20
aI19
aI18
aI21
aI22
aI23
aa(lp3918
I338
aI337
aI336
aI339
aI239
aI6
aa(lp3919
I347
aI102
aI213
aI270
aI102
aI35
aa(lp3920
I48
aI162
aI11
aI163
aI33
aI164
aa(lp3921
I171
aI348
aI2
aI241
aI349
aI350
aa(lp3922
I42
aI97
aI11
aI42
aI98
aI23
aa(lp3923
I12
aI352
aI351
aI353
aI6
aI39
aa(lp3924
I11
aI333
aI354
aI355
aI68
aI356
aa(lp3925
I171
aI170
aI6
aI172
aI173
aI19
aa(lp3926
I42
aI98
aI33
aI357
aI358
aI359
aa(lp3927
I360
aI6
aI11
aI361
aI11
aI362
aa(lp3928
I363
aI31
aI11
aI364
aI187
aI23
aa(lp3929
I12
aI2
aI365
aI57
aI366
aI367
aa(lp3930
I63
aI162
aI11
aI368
aI369
aI31
aa(lp3931
I294
aI95
aI2
aI219
aI295
aI6
aa(lp3932
I33
aI370
aI2
aI371
aI372
aI373
aa(lp3933
I374
aI19
aI11
aI67
aI12
aI2
aa(lp3934
I51
aI10
aI2
aI52
aI53
aI54
aa(lp3935
I246
aI245
aI11
aI10
aI247
aI21
aa(lp3936
I188
aI187
aI126
aI189
aI19
aI190
aa(lp3937
I296
aI10
aI11
aI297
aI298
aI299
aa(lp3938
I375
aI84
aI11
aI376
aI377
aI378
aa(lp3939
I380
aI10
aI379
aI316
aI2
aI112
aa(lp3940
I382
aI128
aI381
aI316
aI33
aI11
aa(lp3941
I10
aI383
aI6
aI384
aI213
aI385
aa(lp3942
I6
aI11
aI386
aI15
aI387
aI388
aa(lp3943
I390
aI389
aI354
aI391
aI171
aI392
aa(lp3944
I393
aI56
aI386
aI289
aI11
aI394
aa(lp3945
I396
aI353
aI395
aI279
aI397
aI372
aa(lp3946
I20
aI19
aI18
aI21
aI22
aI23
aa(lp3947
I399
aI381
aI398
aI400
aI401
aI33
aa(lp3948
I12
aI402
aI317
aI403
aI6
aI404
aa(lp3949
I103
aI328
aI405
aI406
aI307
aI407
aa(lp3950
I20
aI19
aI18
aI21
aI22
aI23
aa(lp3951
I100
aI99
aI11
aI101
aI102
aI42
aa(lp3952
I208
aI207
aI2
aI209
aI71
aI210
aa(lp3953
I99
aI408
aI18
aI6
aI197
aI409
aa(lp3954
I208
aI207
aI2
aI209
aI71
aI210
aa(lp3955
I63
aI23
aI11
aI410
aI11
aI411
aa(lp3956
I20
aI19
aI18
aI21
aI22
aI23
aa(lp3957
I373
aI413
aI412
aI316
aI68
aI213
aa(lp3958
I192
aI128
aI10
aI353
aI25
aI128
aa(lp3959
I414
aI84
aI11
aI415
aI10
aI416
aa(lp3960
I2
aI418
aI417
aI414
aI419
aI420
aa(lp3961
I99
aI408
aI18
aI6
aI197
aI409
aa(lp3962
I17
aI422
aI421
aI219
aI66
aI106
aa(lp3963
I286
aI2
aI238
aI287
aI71
aI109
aa(lp3964
I12
aI352
aI351
aI353
aI6
aI39
aa(lp3965
I386
aI51
aI6
aI423
aI33
aI424
aa(lp3966
I374
aI19
aI11
aI67
aI12
aI2
aa(lp3967
I425
aI12
aI11
aI426
aI427
aI428
aa(lp3968
I10
aI429
aI6
aI430
aI33
aI11
aa(lp3969
I19
aI23
aI39
aI431
aI33
aI73
aa(lp3970
I286
aI2
aI238
aI287
aI71
aI109
aa(lp3971
I432
aI6
aI208
aI45
aI102
aI128
aa(lp3972
I12
aI352
aI351
aI353
aI6
aI39
aa(lp3973
I329
aI11
aI433
aI434
aI435
aI148
aa(lp3974
I437
aI177
aI436
aI438
aI422
aI439
aa(lp3975
I441
aI440
aI2
aI442
aI443
aI12
aa(lp3976
I20
aI19
aI18
aI21
aI22
aI23
aa(lp3977
I15
aI33
aI174
aI15
aI444
aI445
aa(lp3978
I232
aI446
aI11
aI6
aI109
aI447
aa(lp3979
I148
aI147
aI23
aI149
aI6
aI35
aa(lp3980
I449
aI187
aI448
aI5
aI23
aI35
aa(lp3981
I450
aI12
aI184
aI451
aI452
aI453
aa(lp3982
I343
aI12
aI454
aI455
aI93
aI11
aa(lp3983
I12
aI456
aI84
aI457
aI37
aI197
aa(lp3984
I171
aI170
aI6
aI172
aI173
aI19
aa(lp3985
I19
aI68
aI128
aI458
aI68
aI459
aa(lp3986
I188
aI187
aI126
aI189
aI19
aI190
aa(lp3987
I12
aI11
aI460
aI260
aI71
aI19
aa(lp3988
I461
aI183
aI11
aI62
aI126
aI2
aa(lp3989
I296
aI10
aI11
aI462
aI463
aI64
aa(lp3990
I48
aI304
aI303
aI50
aI33
aI23
aa(lp3991
I84
aI51
aI71
aI464
aI465
aI466
aa(lp3992
I144
aI11
aI143
aI145
aI146
aI99
aa(lp3993
I467
aI123
aI11
aI468
aI469
aI11
aa(lp3994
I360
aI6
aI11
aI361
aI11
aI362
aa(lp3995
I171
aI170
aI6
aI172
aI173
aI19
aa(lp3996
I470
aI126
aI226
aI57
aI39
aI471
aa(lp3997
I33
aI472
aI5
aI273
aI239
aI473
aa(lp3998
I475
aI474
aI6
aI54
aI476
aI477
aa(lp3999
I79
aI78
aI11
aI80
aI81
aI10
aa(lp4000
I478
aI307
aI11
aI479
aI480
aI329
aa(lp4001
I12
aI94
aI93
aI50
aI95
aI96
aa(lp4002
I374
aI19
aI11
aI67
aI12
aI2
aa(lp4003
I25
aI265
aI264
aI266
aI12
aI267
aa(lp4004
I481
aI33
aI327
aI482
aI329
aI68
aa(lp4005
I483
aI99
aI250
aI71
aI51
aI17
aa(lp4006
I486
aI485
aI484
aI66
aI487
aI414
aa(lp4007
I171
aI170
aI6
aI172
aI173
aI19
aa(lp4008
I488
aI103
aI11
aI489
aI490
aI349
aa(lp4009
I492
aI491
aI11
aI493
aI494
aI10
aa(lp4010
I375
aI84
aI11
aI440
aI492
aI495
aa(lp4011
I324
aI12
aI323
aI325
aI31
aI326
aa(lp4012
I10
aI11
aI496
aI31
aI37
aI497
aa(lp4013
I393
aI56
aI386
aI289
aI11
aI394
aa(lp4014
I286
aI2
aI238
aI287
aI71
aI109
aa(lp4015
I171
aI170
aI6
aI172
aI173
aI19
aa(lp4016
I122
aI126
aI23
aI498
aI10
aI499
aa(lp4017
I11
aI500
aI45
aI21
aI501
aI373
aa(lp4018
I328
aI502
aI15
aI503
aI6
aI328
aa(lp4019
I6
aI170
aI504
aI505
aI102
aI506
aas.