c__builtin__
set
p0
((lp1
Vcircuitri
p2
aVfoul
p3
aVfour
p4
aVhistoricli
p5
aVop
p6
aVauthorit
p7
aVrestrictionlimit
p8
aVxto
p9
aVdigit
p10
aVrcs8pocwruedu
p11
aVdell
p12
aVconondrum
p13
aVfractal
p14
aVdisturb
p15
aVprize
p16
aVstepanakert
p17
aVxyz
p18
aVdecima
p19
aVfactori
p20
aVrauno
p21
aVsolid
p22
aVdvx
p23
aVcroatian
p24
aVmiller
p25
aVseper
p26
aVbudget
p27
aVsecond
p28
aVkeirnan
p29
aV278
p30
aVlitig
p31
aVgunawanenvmsaeasasuedu
p32
aVusenet
p33
aVncarucar
p34
aVpreemptiv
p35
aVwidget
p36
aVherc
p37
aVhere
p38
aVchina
p39
aVcart
p40
aVcult
p41
aVunharm
p42
aVxkernel
p43
aVmilitari
p44
aVk
p45
aVfinger1
p46
aVgillogli
p47
aVgolden
p48
aVtxd
p49
aVbrought
p50
aVunix
p51
aVuniv
p52
aVunit
p53
aVspoke
p54
aVwisebcsrpiedu
p55
aVtrackbal
p56
aVaerodynamicist
p57
aVmusic
p58
aVpassport
p59
aVstrike
p60
aVuntil
p61
aVnyquil
p62
aVandysailstanfordedu
p63
aVpaperwork
p64
aVrelay
p65
aVfirepow
p66
aVgeorgian
p67
aVrelat
p68
aVnotic
p69
aVhurt
p70
aV99
p71
aVexce
p72
aVholi
p73
aV91
p74
aV90
p75
aVhole
p76
aVhold
p77
aV95
p78
aV96
p79
aVaccid
p80
aVkillinganintrud
p81
aVunwil
p82
aVstinsonbibdunledu
p83
aV351m
p84
aVrefut
p85
aVmicrolab
p86
aVrework
p87
aVphang
p88
aVserazumauucp
p89
aVwang
p90
aVetiquett
p91
aVhousehold
p92
aVcenturi
p93
aVsmtp
p94
aVcaution
p95
aVwant
p96
aVartilleri
p97
aVtype1
p98
aVhog
p99
aVshuffl
p100
aVtravel
p101
aVclassifi
p102
aVhow
p103
aVhot
p104
aVoldtim
p105
aVoctupi
p106
aVturk
p107
aVperspect
p108
aVwinsock
p109
aVxrlogin
p110
aVseahuntimatcom
p111
aVwrong
p112
aVbeauti
p113
aV510
p114
aVchump
p115
aVunselfish
p116
aVprodig
p117
aVtetri
p118
aVprofess
p119
aVwarfar
p120
aVwing
p121
aVwind
p122
aV__
p123
aVfeedback
p124
aVtelecom
p125
aVxlib
p126
aVvara
p127
aVaffect
p128
aVkneejerk
p129
aVpretti
p130
aVvari
p131
aVfit
p132
aVfix
p133
aVinan
p134
aVhidden
p135
aVwinbench
p136
aVeasier
p137
aVrecours
p138
aVenrich
p139
aVrectangl
p140
aV366383
p141
aVcnew
p142
aVinterrupt
p143
aVyouknowwho
p144
aVsilver
p145
aVdialton
p146
aVladi
p147
aVrepaint
p148
aVarrog
p149
aVfnord
p150
aVdebut
p151
aVhizbollah
p152
aVpyotr
p153
aVaccommod
p154
aVdebug
p155
aVcryptophon
p156
aVwhim
p157
aVlaboratori
p158
aVallan
p159
aVwednesday
p160
aV397
p161
aV395
p162
aVceresnj
p163
aVtruman
p164
aVhomicid
p165
aVrx
p166
aVdss
p167
aVdsp
p168
aVmason
p169
aVlacki
p170
aVre
p171
aVrf
p172
aV360dpi
p173
aVadapt
p174
aVrc
p175
aVdsg
p176
aVrn
p177
aVrh
p178
aVri
p179
aVprivatelydevelop
p180
aVnightmar
p181
aVomiss
p182
aVexpends
p183
aVezscsi
p184
aVmd5
p185
aVatf
p186
aVallerg
p187
aVate
p188
aVspeedi
p189
aVphotocopypcxwindow
p190
aVr3
p191
aVati
p192
aVsilicon
p193
aVatt
p194
aVunabl
p195
aVconfus
p196
aVfredom
p197
aVshopper
p198
aVwast
p199
aVwash
p200
aVbengurion
p201
aV178
p202
aVplastic
p203
aV170
p204
aVstereovideo
p205
aVevolut
p206
aVstack
p207
aVnecessarili
p208
aVmaster
p209
aVsimilarli
p210
aVgilbert
p211
aVeuro
p212
aVlisten
p213
aVwisdom
p214
aV_the
p215
aVcrawl
p216
aVtechnic
p217
aVcypru
p218
aV_____________________________________________________________________
p219
aVoutlaw
p220
aVtree
p221
aVshower
p222
aVxlite
p223
aVahmet
p224
aVfunctionari
p225
aVscrewup
p226
aVcodepackag
p227
aV486dx266mhz
p228
aVnapalm
p229
aVwirethank
p230
aVboston
p231
aVspectrum
p232
aVbusinessbrian
p233
aVincrement
p234
aVpctcp
p235
aVincompat
p236
aVdozen
p237
aVee11engrlatechedu
p238
aVthat
p239
aVvga
p240
aV__ian
p241
aVn020batamvm1tamuedu
p242
aVsimplifi
p243
aVshall
p244
aVobject
p245
aVswiss
p246
aVspecifi
p247
aVletter
p248
aVencipher
p249
aVsinger
p250
aVtect
p251
aVprofessor
p252
aVcamp
p253
aVhospit
p254
aVtech
p255
aVarlo
p256
aVbisexu
p257
aVcame
p258
aVmarvel
p259
aVxloadimag
p260
aVbomb
p261
aVreactor
p262
aVcheapli
p263
aVdicken
p264
aVlayout
p265
aV170134
p266
aV1541
p267
aVmenu
p268
aVsupersport
p269
aVrestaur
p270
aVbush
p271
aVbusi
p272
aVrick
p273
aVrich
p274
aVmeng
p275
aVplate
p276
aVgodzilla
p277
aVceil
p278
aVpetit
p279
aVpiggi
p280
aVldr
p281
aVxm121
p282
aVpatch
p283
aVindigen
p284
aVhazi
p285
aVrespond
p286
aVsoontob
p287
aVfair
p288
aVfose
p289
aV5104896165
p290
aVmandatori
p291
aVresult
p292
aVrespons
p293
aVfail
p294
aVlivni
p295
aVhammer
p296
aVbest
p297
aVteleus
p298
aVirq
p299
aVftpcontribr5hpsrv
p300
aVlotu
p301
aViri
p302
aVfigur
p303
aVscore
p304
aVadvisedli
p305
aVunto
p306
aVscorn
p307
aVglasgow
p308
aVwage
p309
aVhenrik
p310
aVextend
p311
aVsmacenyxcsduedu
p312
aVboundri
p313
aVextens
p314
aVtmail
p315
aVextent
p316
aVfeloni
p317
aVadvertis
p318
aVastroocistempleedu
p319
aVplanner
p320
aV8133840584
p321
aV49931
p322
aVtyranni
p323
aVlogia
p324
aVlogic
p325
aVcountri
p326
aVlogin
p327
aVadaptec
p328
aVcompromis
p329
aVrehash
p330
aVassur
p331
aVvain
p332
aVgopher
p333
aV2nd
p334
aVcanyon
p335
aVgsxr750
p336
aV252
p337
aVdiff
p338
aV250
p339
aVassum
p340
aVsummar
p341
aV255
p342
aVsubsidi
p343
aVyale
p344
aVdecxtrap
p345
aVmuck
p346
aVslav
p347
aVmuch
p348
aV104
p349
aVdixon
p350
aV25k
p351
aVlife
p352
aVregul
p353
aVretrospect
p354
aVeastern
p355
aVworker
p356
aVtelnet
p357
aVwish
p358
aVdave
p359
aVlift
p360
aVchile
p361
aVdualpag
p362
aVspin
p363
aVbookstor
p364
aVchill
p365
aVant
p366
aVximag
p367
aVcommerci
p368
aVemploy
p369
aVmarriag
p370
aVzoompan
p371
aVdesta
p372
aV074
p373
aVtoolkit
p374
aVdisprov
p375
aVthirtysix
p376
aVplayer
p377
aVelicit
p378
aVudac
p379
aVpalmsnycanvabitnet
p380
aV197477
p381
aVhong
p382
aVcirclesellipsesetc
p383
aVcredit
p384
aVtranspar
p385
aVthingi
p386
aVsplit
p387
aVxxxxx00
p388
aVjartsu
p389
aVeuropean
p390
aVipxnetx
p391
aVgraem
p392
aVupdown
p393
aVwrongdo
p394
aVfairli
p395
aVstuiii
p396
aVownership
p397
aVrefin
p398
aVa2i
p399
aVtune
p400
aVacsuiucedu
p401
aVbewar
p402
aVacademia
p403
aVsubpoena
p404
aVlegisl
p405
aVxopendisplayremote0
p406
aVokidata
p407
aV115r
p408
aVairbag
p409
aVhibbitt
p410
aVprevious
p411
aVpi1arcumnedu
p412
aVhal
p413
aVham
p414
aVeasi
p415
aVhad
p416
aVfortran
p417
aVendus
p418
aVprison
p419
aVgete
p420
aVeast
p421
aVhat
p422
aVhav
p423
aVdeterg
p424
aVpreserv
p425
aVmakario
p426
aVbirth
p427
aVshadow
p428
aV101key
p429
aVtruetyp
p430
aVspecif
p431
aViclud
p432
aVrecautosusenet
p433
aVremind
p434
aVbobbi
p435
aVbasra
p436
aVunderli
p437
aVshredderteleramapghpau
p438
aVattorney
p439
aVright
p440
aVold
p441
aVole
p442
aVlockstep
p443
aVsrebrenica
p444
aVbillboard
p445
aVtransmiss
p446
aVraytrac
p447
aVfor
p448
aVbottom
p449
aVinhuman
p450
aVcompletli
p451
aVzoloft
p452
aV66mhz
p453
aVwellsfcau
p454
aVfdisk
p455
aVcondit
p456
aVgsfc
p457
aVsensibl
p458
aVegregi
p459
aVrightrot
p460
aVcolleg
p461
aVconnot
p462
aVslightli
p463
aVo
p464
aVunequivoc
p465
aVnixon
p466
aVcodecraft
p467
aVmbi
p468
aVson
p469
aVnexrad
p470
aVhigherthanlist
p471
aVwrap
p472
aVsox
p473
aVsuffici
p474
aVsupport
p475
aV144mb
p476
aVhappi
p477
aVavail
p478
aVjoseph
p479
aVjane
p480
aVoverhead
p481
aVconstantli
p482
aVcoronahscuscedu
p483
aVoffer
p484
aVrecommend
p485
aVmultiprocessor
p486
aVbach
p487
aVsafeguard
p488
aVprojectmanag
p489
aVmisinform
p490
aVmyopic
p491
aVwhove
p492
aV24si
p493
aVleninstalin
p494
aVxnewspost
p495
aVfermi
p496
aVtalkpoliticsgun
p497
aVpalm
p498
aVunivesa
p499
aVdissemin
p500
aV150
p501
aVadopt
p502
aVflyback
p503
aVsunsoft
p504
aVmodel1
p505
aVmirror
p506
aVproven
p507
aVjmsparclarcnasagov
p508
aVexist
p509
aVdealer
p510
aV200mb
p511
aVfloor
p512
aVrole
p513
aVcompsyssgi
p514
aVedb9140tamsuntamuedu
p515
aVxgrabsc
p516
aVmicrotek
p517
aVpresum
p518
aVsmell
p519
aVroll
p520
aVlegitim
p521
aVintend
p522
aVdevot
p523
aVnotwithstand
p524
aVintens
p525
aVintent
p526
aVxthe
p527
aVfreecel
p528
aV15n
p529
aVcadgatechedu
p530
aVottawa
p531
aVcarriag
p532
aVtime
p533
aVpush
p534
aVtifftargagifjpegpictpostscriptfax
p535
aVchain
p536
aVwhoever
p537
aVapto
p538
aVhawaii
p539
aVskate
p540
aVusrlibx11xdevic
p541
aVdecid
p542
aVherebi
p543
aVver
p544
aVreligion
p545
aVmotifbc
p546
aVplayerhard
p547
aV818
p548
aVdecis
p549
aVwebb
p550
aVdeskwrit
p551
aVlaurm00tohidmiusherbca
p552
aVkojian
p553
aVos2
p554
aV_defined_
p555
aVevalulatetest
p556
aVexact
p557
aVsfisantafeed
p558
aVundeni
p559
aVsrg3sirgrvgracecrinz
p560
aV720x280
p561
aVteam
p562
aVcooki
p563
aVprevent
p564
aVsigh
p565
aVcompens
p566
aVboca
p567
aVsign
p568
aVabdullah
p569
aVmelt
p570
aVcurrent
p571
aVturgur
p572
aVogp0180
p573
aV824gc
p574
aVpostgradu
p575
aVharriss
p576
aVmnp5
p577
aVmodif
p578
aVaddress
p579
aValong
p580
aV7191991
p581
aVbrilliant
p582
aVchecksum
p583
aVworldwid
p584
aVet4000
p585
aVthroughput
p586
aVcommonli
p587
aVepistl
p588
aVsrsdmwtdmid
p589
aVlove
p590
aVprefer
p591
aVfakeri
p592
aVgtoalpizzaboxdemoncouk
p593
aVfake
p594
aVinstal
p595
aVipx
p596
aV117r
p597
aVnewslett
p598
aVofffffff
p599
aVpanason
p600
aVscope
p601
aVangri
p602
aVuuencod
p603
aVprosecutor
p604
aVwicked
p605
aVmathewmantiscouk
p606
aVpeopl
p607
aVjealou
p608
aVoregon
p609
aVenhanc
p610
aVvisual
p611
aVtimexsinclar
p612
aVrutgersremusrutgersedukaldi
p613
aVeasiest
p614
aVreadconvertcropwhatnot
p615
aVrutherford
p616
aVdescriptor
p617
aVvega
p618
aVwhatev
p619
aVpreclud
p620
aVproblemat
p621
aVrobichaulambdamsfcnasagov
p622
aVpresbyterian
p623
aVirwinn
p624
aVbackplan
p625
aVdisadvantag
p626
aVstole
p627
aVposthuman
p628
aV1024x72816
p629
aVpseudohistor
p630
aVs3
p631
aVs1
p632
aVrevolut
p633
aVfpu
p634
aVnextsrvcasmuohioedu
p635
aVmalloc3
p636
aVlaureti
p637
aVeffectsorigin
p638
aVremap
p639
aVspot
p640
aVflushabl
p641
aVdate
p642
aVsuch
p643
aVsuck
p644
aVdata
p645
aVharmon
p646
aVsy
p647
aVconscious
p648
aVwheelchair
p649
aVsp
p650
aVsw
p651
aVsu
p652
aVst
p653
aVsi
p654
aVso
p655
aVsn
p656
aVyoshiro
p657
aVmultiauthor
p658
aVuntest
p659
aVordinarili
p660
aVse
p661
aVpcdriver
p662
aVelbel
p663
aV5pm10pm
p664
aVkong
p665
aVfarnsworthhirsch
p666
aVpixmap
p667
aVdisconnect
p668
aVthumb
p669
aVjim
p670
aVinstantli
p671
aVsuspicion
p672
aVmonopol
p673
aVnsa
p674
aV4fge
p675
aVtorx
p676
aVdeviant
p677
aVanecedot
p678
aV16mbyte
p679
aVcivilian
p680
aVqmodem
p681
aVnation
p682
aVretrain
p683
aVsw6sw5
p684
aVtherebi
p685
aVakron
p686
aVnegoti
p687
aVrevers
p688
aVflown
p689
aVsepar
p690
aVwin31
p691
aVrundown
p692
aVconfid
p693
aVcompil
p694
aVbraindamag
p695
aVbreakthrough
p696
aVthomasrcpqhoucompaqcom
p697
aVsponsor
p698
aVedta
p699
aVbonehead
p700
aV795
p701
aVestabish
p702
aVgiddi
p703
aVinternet
p704
aVdjgpp
p705
aVhci
p706
aVextrasharp
p707
aVmsachsux1csouiucedu
p708
aVmillion
p709
aVseventh
p710
aV1135
p711
aVallstar
p712
aVgx
p713
aVmimi
p714
aVbyte
p715
aVchevi
p716
aV525550
p717
aVreschedul
p718
aVpuni
p719
aVcrazierand
p720
aVrecov
p721
aVgordon
p722
aVuglvuvicca
p723
aVjoesbarccvtedu
p724
aVnicknam
p725
aVneglect
p726
aVmanufactor
p727
aVoper
p728
aVgunshot
p729
aVspoken
p730
aVonc
p731
aVone
p732
aVspanish
p733
aVvote
p734
aVopen
p735
aVopel
p736
aVbrochur
p737
aVwrath
p738
aVconvent
p739
aVpman
p740
aVbite
p741
aVlesbian
p742
aVciti
p743
aV2
p744
aVfmj
p745
aVconveni
p746
aVcite
p747
aVconsultantmicroumnedu
p748
aVfloppi
p749
aV3103766224
p750
aVstll
p751
aVmunnariozau
p752
aVarun
p753
aV6176253972
p754
aVrussia
p755
aVinfluenti
p756
aVsam
p757
aVdometucbehsanucedu
p758
aVargument
p759
aVsae
p760
aVsad
p761
aValleg
p762
aVsay
p763
aVallen
p764
aVturner
p765
aVsaw
p766
aVappolog
p767
aVnotr
p768
aV640x400
p769
aVdiscordian
p770
aVnote
p771
aVdenomin
p772
aVtake
p773
aVdestroy
p774
aVnoth
p775
aVgolan
p776
aVpg1281
p777
aVprinter
p778
aVcapitalist
p779
aVbuffer
p780
aV640x400x16
p781
aVknew
p782
aVcompress
p783
aV28meg
p784
aVabus
p785
aVpager
p786
aVphig
p787
aVarchi
p788
aVphil
p789
aVsale
p790
aVxhibit
p791
aVpreambl
p792
aVsda
p793
aVtelefind
p794
aVcobra
p795
aVkenaidenali
p796
aVbright
p797
aVama
p798
aVxgetwindowproperti
p799
aVslot
p800
aVactix
p801
aVslow
p802
aVselfidentifi
p803
aVmailgwncsl
p804
aVactiv
p805
aVhockey
p806
aVmotosport
p807
aVirq2
p808
aVirq3
p809
aVlitigi
p810
aVpegasu
p811
aVirq4
p812
aVoutlet
p813
aVimport
p814
aVrequir
p815
aVdesqviewx
p816
aVperus
p817
aVprima
p818
aVxgod
p819
aVartist
p820
aVadmini
p821
aVmultidisplay
p822
aVborrow
p823
aV10mpixelsec
p824
aV486d2lp
p825
aVpriest
p826
aVroger
p827
aVthencurr
p828
aVwhere
p829
aVvision
p830
aVespn
p831
aVsurgeri
p832
aV_using_
p833
aVpicassoocistempleedu
p834
aVtechnologyha
p835
aVdormitori
p836
aVtelevis
p837
aVubiquit
p838
aVhpcc01recmotorcycl
p839
aVkt32
p840
aV45342
p841
aVjumper
p842
aVspars
p843
aVgrandpar
p844
aVmarvin
p845
aVscreen
p846
aVclayton
p847
aVsparc
p848
aVsteroid
p849
aVquack
p850
aVoust
p851
aVloudli
p852
aVrutin
p853
aVconfisc
p854
aVs
p855
aVmani
p856
aV70km
p857
aVhercul
p858
aVc1381
p859
aVboat
p860
aVcurs
p861
aVneedlessli
p862
aVstretch
p863
aVwest
p864
aVbreath
p865
aVsonofab
p866
aVpoolobsess
p867
aVgist
p868
aVthousand
p869
aVresolut
p870
aVincontrovert
p871
aVvue
p872
aVmehdhwcca
p873
aVformer
p874
aVhostname0
p875
aVfullthrottl
p876
aVscath
p877
aVlifeischeap
p878
aVnonciph
p879
aVmono
p880
aVscriptur
p881
aVcurricula
p882
aVpl241235
p883
aVive
p884
aVkoon
p885
aVballpark
p886
aVn0nzo
p887
aVconvini
p888
aVcanon
p889
aVconvinc
p890
aVwarehous
p891
aV16450
p892
aVascii
p893
aVfame
p894
aVsmalltalk
p895
aVsauer
p896
aV6419
p897
aVeconom
p898
aVbinari
p899
aVotto
p900
aVslavon
p901
aVintergalact
p902
aVemough
p903
aVextern
p904
aVhummingbird
p905
aVmegabyt
p906
aVgeniu
p907
aVveal
p908
aVdaversjcmentorgcom
p909
aVsummer
p910
aVfmsrl71pqep5inn88
p911
aV210
p912
aVformlul
p913
aVrest
p914
aVpassphras
p915
aVoutyear
p916
aVindulg
p917
aV7pin
p918
aVlittl
p919
aVbattincyclopsiucfindianaedu
p920
aVcolor
p921
aVexercis
p922
aVoverthrow
p923
aVstopwatch
p924
aVaround
p925
aVpostag
p926
aVregim
p927
aVtraffic
p928
aVpop
p929
aVremco
p930
aVaiaa
p931
aVworld
p932
aV28800baud
p933
aV2550
p934
aV60
p935
aVexpositori
p936
aVintel
p937
aVstranger
p938
aVbeverli
p939
aV62
p940
aVinteg
p941
aVcontridict
p942
aVupdat
p943
aVclay
p944
aVint86
p945
aV64
p946
aVmanag
p947
aVobstruct
p948
aVparticipa
p949
aVlebanon
p950
aVmuscl
p951
aVhandshak
p952
aVracial
p953
aVasterixinescnpt
p954
aVconstitut
p955
aVwinfax
p956
aVchronicl
p957
aVnoon
p958
aVdefinit
p959
aVmoslem
p960
aVevolv
p961
aVexit
p962
aVamino
p963
aVnotabl
p964
aVrefer
p965
aVhpux901
p966
aVwestinghous
p967
aVpower
p968
aVinternship
p969
aVration
p970
aVsprung
p971
aVleadership
p972
aVxprogram
p973
aVacc
p974
aVstone
p975
aVacm
p976
aVluci
p977
aVneighbor
p978
aVact
p979
aVindustri
p980
aVbond
p981
aVmosqu
p982
aVeffici
p983
aVsurviv
p984
aVhomeless
p985
aVwade
p986
aVhelser
p987
aVher
p988
aVglean
p989
aVhex
p990
aVhey
p991
aVmindless
p992
aVfranchis
p993
aVresum
p994
aVheh
p995
aVconclud
p996
aVbundl
p997
aVamplifi
p998
aVpreselect
p999
aVbaffl
p1000
aV__the
p1001
aVwith
p1002
aVconclus
p1003
aVpull
p1004
aVrush
p1005
aVassi
p1006
aVagrev
p1007
aVmonopoli
p1008
aVaa
p1009
aVgone
p1010
aVac
p1011
aVab
p1012
aVae
p1013
aVad
p1014
aVcreat
p1015
aVcertain
p1016
aVrecmodelsrocket
p1017
aV131988
p1018
aVmarchapril
p1019
aVvort
p1020
aVas
p1021
aVar
p1022
aVat
p1023
aVaw
p1024
aVopco
p1025
aVuucp
p1026
aVv205
p1027
aVdrafte
p1028
aVspatial
p1029
aVgenuin
p1030
aVcongress
p1031
aVterri
p1032
aVherzog
p1033
aVsocbi
p1034
aVodwyer
p1035
aV144m
p1036
aVxapplresdir
p1037
aVmask
p1038
aVtricki
p1039
aVztimer
p1040
aVmass
p1041
aVadam
p1042
aVdyer
p1043
aV28610
p1044
aVcpu
p1045
aVsco
p1046
aVsci
p1047
aVconsider
p1048
aVillustr
p1049
aVbidzo
p1050
aVdegan
p1051
aVsalubri
p1052
aVreson
p1053
aVnors
p1054
aVandrea
p1055
aVtaiz
p1056
aVtx
p1057
aVtv
p1058
aVtt
p1059
aVodiesantarosaedu
p1060
aVcrayton
p1061
aVto
p1062
aVtail
p1063
aVtm
p1064
aVkeysearch
p1065
aVintroduc
p1066
aVnagornokarabakh
p1067
aVcandid
p1068
aVemrick
p1069
aVstrang
p1070
aVunalt
p1071
aVvidiot
p1072
aVcolleagu
p1073
aV619
p1074
aVthermographi
p1075
aVadjust
p1076
aVqemm386max
p1077
aVsmall
p1078
aVbeje
p1079
aVsync
p1080
aV193
p1081
aVpast
p1082
aV525i
p1083
aVpass
p1084
aVhealer
p1085
aVxor
p1086
aVrichard
p1087
aVclock
p1088
aVsection
p1089
aVdelet
p1090
aVbacklight
p1091
aVxoa
p1092
aVmethod
p1093
aVfull
p1094
aVhash
p1095
aVsalyut
p1096
aVnonam
p1097
aV19m
p1098
aVgiacalo
p1099
aVimmort
p1100
aVinher
p1101
aVparenthesi
p1102
aVlegend
p1103
aVsolips
p1104
aValmost
p1105
aVheatsink
p1106
aVnewlin
p1107
aVturkish
p1108
aVbrutal
p1109
aVprior
p1110
aVsocial
p1111
aVaction
p1112
aVintroductori
p1113
aVluck
p1114
aVraze
p1115
aVweirder
p1116
aVvia
p1117
aVdepart
p1118
aVdecenso
p1119
aVchaum
p1120
aVvip
p1121
aVaotc
p1122
aVunbias
p1123
aVgosh
p1124
aVcareer
p1125
aVselect
p1126
aVvlsi
p1127
aVmorn
p1128
aVtesterand
p1129
aV6
p1130
aVmore
p1131
aVreachabl
p1132
aVthwe
p1133
aVshutdowncrash
p1134
aVdoor
p1135
aVr5
p1136
aVagnostic
p1137
aVhundr
p1138
aVscsi2
p1139
aVscsi1
p1140
aVnomad
p1141
aVworri
p1142
aVcompani
p1143
aVcach
p1144
aVlotsa
p1145
aVendpoint
p1146
aVcereskingstonacuk
p1147
aVexpostfacto
p1148
aVphillip
p1149
aVxargv
p1150
aVmerkl
p1151
aV68hc11
p1152
aVquickdraw
p1153
aV68hc16
p1154
aVlearn
p1155
aV5257350
p1156
aVqvtnet
p1157
aVmale
p1158
aVscam
p1159
aVbogu
p1160
aVscan
p1161
aVchalleng
p1162
aVregistr
p1163
aVaccept
p1164
aVchessmast
p1165
aVbogg
p1166
aVoneeigth
p1167
aVcondemn
p1168
aVvisuallib
p1169
aVhuge
p1170
aVlocalbu
p1171
aVvoltag
p1172
aVsimpl
p1173
aVupto
p1174
aVplant
p1175
aVmodernstyl
p1176
aVperrin
p1177
aVwiley
p1178
aVbrett
p1179
aVunsound
p1180
aVplane
p1181
aVdevelop
p1182
aVbankrol
p1183
aVm60
p1184
aVcircumst
p1185
aVimageri
p1186
aVkennehralogiccampclarksonedu
p1187
aVmexican
p1188
aVradios
p1189
aVpant
p1190
aVyavoivyparamaxcom
p1191
aVfraser
p1192
aVandolina
p1193
aVpscribe
p1194
aVtrade
p1195
aV3c507
p1196
aVpaper
p1197
aVscott
p1198
aV3c503
p1199
aVterrainimag
p1200
aVsnakecsuidahoedu
p1201
aVcompatibilti
p1202
aVnifti
p1203
aVgerald
p1204
aVfilip
p1205
aVwrt
p1206
aVbypass
p1207
aVisaac
p1208
aVst002560brownvmbrownedu
p1209
aVrapier
p1210
aVsrgp
p1211
aVgadget
p1212
aVzhen
p1213
aVshitless
p1214
aVeventu
p1215
aVumpir
p1216
aVinstruct
p1217
aVauthent
p1218
aVachiev
p1219
aVgenom
p1220
aVfound
p1221
aVgenoa
p1222
aVdenni
p1223
aVengland
p1224
aVmultilater
p1225
aVmonoton
p1226
aVprocedur
p1227
aVrealli
p1228
aVlieand
p1229
aVscribe
p1230
aVreduct
p1231
aVsattelit
p1232
aVftp
p1233
aVagre
p1234
aVvancouv
p1235
aVfinney
p1236
aVresearch
p1237
aVrexecd
p1238
aVhighway
p1239
aVqualifi
p1240
aVbelief
p1241
aVctrlaltdel
p1242
aVsiegel
p1243
aVbeliev
p1244
aVacorn
p1245
aVheadquart
p1246
aVmessagedigest
p1247
aVdirector
p1248
aVslp9kccusuedu
p1249
aVstruggl
p1250
aVw
p1251
aVar15
p1252
aVmajor
p1253
aVnumber
p1254
aVunderstat
p1255
aVhorribl
p1256
aVmemoryquadra700instal
p1257
aVguess
p1258
aVguest
p1259
aVunrecogniz
p1260
aV16mhz
p1261
aVsaint
p1262
aVilleg
p1263
aVammunit
p1264
aVrecsporthockey
p1265
aVdepressingli
p1266
aVrelationship
p1267
aV200mhz
p1268
aVschultzvnetibmcom
p1269
aVbank
p1270
aVword
p1271
aVconsult
p1272
aVgrace
p1273
aVreinstal
p1274
aVthreedimension
p1275
aViranian
p1276
aVgetaway
p1277
aVarrang
p1278
aVcomput
p1279
aV45000
p1280
aVbeforehand
p1281
aVpackag
p1282
aVrequisit
p1283
aVsell
p1284
aVequival
p1285
aVself
p1286
aValso
p1287
aVdehydr
p1288
aVuplink
p1289
aVplay
p1290
aVsheepmind
p1291
aVfirsthand
p1292
aVdisplayoutput
p1293
aVplan
p1294
aVpsuedostat
p1295
aVpantilt
p1296
aVsomemani
p1297
aVtpg
p1298
aVreward
p1299
aVxlastupd
p1300
aVchicago
p1301
aVcover
p1302
aVhamid
p1303
aVbarrel
p1304
aVmicrosoft
p1305
aVreincarn
p1306
aVgolf
p1307
aVgold
p1308
aVcrywyr
p1309
aVswanesddlneccom
p1310
aVsnailmail
p1311
aVsession
p1312
aV768x1024
p1313
aVreput
p1314
aV500000000
p1315
aVkadi
p1316
aVgeospher
p1317
aVdugganecsumassedu
p1318
aVsoandso
p1319
aVwriter
p1320
aVsolut
p1321
aVdeliri
p1322
aVrockefel
p1323
aVcitoh
p1324
aVfactor
p1325
aVcsrcncslnistgov
p1326
aVpavarotti
p1327
aVstreamer
p1328
aVsecular
p1329
aVbresenham
p1330
aVresent
p1331
aVmainten
p1332
aVdependend
p1333
aV60hz
p1334
aVamhux3amherstedu
p1335
aVavocet
p1336
aVcrt
p1337
aVacur
p1338
aVacut
p1339
aVsingapor
p1340
aVnowher
p1341
aVrivet
p1342
aVsew
p1343
aVset
p1344
aVcreator
p1345
aVoverwhelm
p1346
aV311
p1347
aVincrimin
p1348
aVstartup
p1349
aVsex
p1350
aVps2
p1351
aVsee
p1352
aVsed
p1353
aVanalog
p1354
aVproject
p1355
aVpickup
p1356
aValiyev
p1357
aVpropoganda
p1358
aVnope
p1359
aVsignatur
p1360
aVimagemagick
p1361
aVpirat
p1362
aVmildmann
p1363
aVdividend
p1364
aVismbnlmnihgov
p1365
aVpagan
p1366
aVlast
p1367
aVnontechn
p1368
aVbonnieicsuciedu
p1369
aVpdr
p1370
aVenrout
p1371
aVmcdiarmid
p1372
aVwholl
p1373
aVcoprocessor
p1374
aVwhole
p1375
aVload
p1376
aVdrunk
p1377
aVschedul
p1378
aVloan
p1379
aVhollow
p1380
aVchurch
p1381
aVprovoc
p1382
aVworthless
p1383
aVdevil
p1384
aVdevic
p1385
aVcalculu
p1386
aVmonthli
p1387
aVhomosexu
p1388
aVdevis
p1389
aVfirm
p1390
aVchampion
p1391
aVfire
p1392
aVinfect
p1393
aVnra
p1394
aVsampler
p1395
aV39
p1396
aVfund
p1397
aVracer
p1398
aVracew
p1399
aVguynn
p1400
aVdeport
p1401
aVeduc
p1402
aV386sx16
p1403
aVmlb
p1404
aVstraight
p1405
aVerron
p1406
aVhistor
p1407
aVnanao
p1408
aVdurat
p1409
aV33
p1410
aVmlv
p1411
aVerror
p1412
aV5000200
p1413
aVbreadtub
p1414
aV5000205
p1415
aVreal
p1416
aVpound
p1417
aVmarktstrass
p1418
aVinfluenc
p1419
aVxian
p1420
aVvanish
p1421
aVkhrist
p1422
aV24bit
p1423
aVu_c
p1424
aVirrelev
p1425
aVwd100227x
p1426
aVdx266
p1427
aVmint
p1428
aVshorten
p1429
aVshorter
p1430
aVfunni
p1431
aVdecod
p1432
aVbethesda
p1433
aV2030
p1434
aVrda
p1435
aVanatom
p1436
aVsnail
p1437
aVinetg
p1438
aValert
p1439
aV5200
p1440
aV0x0069
p1441
aVmicrostrip
p1442
aVtobacco
p1443
aVrabin
p1444
aVkelli
p1445
aVhonor
p1446
aVperson
p1447
aVsnefru
p1448
aVdevkoresh
p1449
aVexpens
p1450
aVliaison
p1451
aVacadem
p1452
aVleong
p1453
aVtim
p1454
aVpc1oandrewcmuedu
p1455
aVxserver
p1456
aVpozitsiya
p1457
aVsimd
p1458
aVnofre
p1459
aVfailsaf
p1460
aVsimm
p1461
aVmandat
p1462
aVunsecur
p1463
aVeager
p1464
aVinput
p1465
aVminerva
p1466
aVindonesian
p1467
aVaustralia
p1468
aVinconsequenti
p1469
aVformat
p1470
aVcoupld
p1471
aVbureaucrat
p1472
aV589tax
p1473
aVbauder
p1474
aVlouisvil
p1475
aVformal
p1476
aVd
p1477
aVfouryearold
p1478
aVbaggag
p1479
aVivan
p1480
aVbruin
p1481
aVencount
p1482
aVstd_disclaimerh
p1483
aVcrippl
p1484
aVsampl
p1485
aVb1
p1486
aVmideast
p1487
aVdonccognoscom
p1488
aVbattalion
p1489
aVsheesh
p1490
aVgateway
p1491
aVrecognit
p1492
aVxvisualinfo
p1493
aVrecognis
p1494
aVnewcomb
p1495
aVnoncommerci
p1496
aVmachin
p1497
aVbe
p1498
aVbb
p1499
aVbc
p1500
aVgrotesqu
p1501
aVbm
p1502
aVbh
p1503
aVagreement
p1504
aVbu
p1505
aVbw
p1506
aVgatekeep
p1507
aVby
p1508
aVjuvenil
p1509
aVcoexist
p1510
aVmateri
p1511
aVhatcher
p1512
aVmatern
p1513
aVambush
p1514
aVaddict
p1515
aVrepair
p1516
aVclinton
p1517
aVcolorado
p1518
aVprimarili
p1519
aVirrit
p1520
aVinto
p1521
aVsavag
p1522
aVgaryschuett
p1523
aVcontributor
p1524
aVoccupi
p1525
aVsubmit
p1526
aVcustom
p1527
aVsuit
p1528
aVdoj
p1529
aVjewish
p1530
aVposter
p1531
aVlint
p1532
aVpastor
p1533
aVlevequ
p1534
aVdecomposit
p1535
aVarchaic
p1536
aVlink
p1537
aVatom
p1538
aVline
p1539
aV230we
p1540
aVcic
p1541
aVcia
p1542
aVthreequart
p1543
aVselfprotect
p1544
aVut
p1545
aVctsrt
p1546
aVup
p1547
aVus
p1548
aVjoslin
p1549
aVun
p1550
aVnonescrow
p1551
aVuk
p1552
aVpunjabi
p1553
aVinsignia
p1554
aVteammat
p1555
aVchad
p1556
aVinkjet
p1557
aVchar
p1558
aVhp286
p1559
aVcoder
p1560
aVparadox
p1561
aVroesvaxoxfordacuk
p1562
aV950
p1563
aVcopyr
p1564
aVpff
p1565
aVscrape
p1566
aVtuff
p1567
aVretract
p1568
aVloasilcitilillefr
p1569
aVrevision
p1570
aV48633
p1571
aV700000
p1572
aVumbil
p1573
aVfreez
p1574
aVlucid
p1575
aVinprincipl
p1576
aVago
p1577
aVphdgraduat
p1578
aVlane
p1579
aVland
p1580
aVfighter
p1581
aVapostol
p1582
aValgorithm
p1583
aVelectromagnet
p1584
aVinaccuraci
p1585
aVage
p1586
aVloopback
p1587
aVaga
p1588
aVdiscrimin
p1589
aVwalker
p1590
aVfresh
p1591
aVhello
p1592
aVcode
p1593
aVpartial
p1594
aVcoda
p1595
aVscratch
p1596
aVpiddli
p1597
aVantisemit
p1598
aVpeaceabl
p1599
aVprim
p1600
aVquarantin
p1601
aVplcc
p1602
aVprocur
p1603
aVcougarecnuoknoredu
p1604
aVcantuac533emcv7
p1605
aVyoung
p1606
aVsend
p1607
aVspectromet
p1608
aVvisavi
p1609
aVsens
p1610
aV8900
p1611
aVblackmag
p1612
aVramdriv
p1613
aV8xx
p1614
aVtulsa
p1615
aVi486
p1616
aVxtbase
p1617
aVp9000resdat
p1618
aVdisast
p1619
aVisaiah
p1620
aVwipe
p1621
aVgurion
p1622
aVtri
p1623
aVmagic
p1624
aVinclin
p1625
aVsemipract
p1626
aVkansa
p1627
aVrace
p1628
aVreich
p1629
aVmarri
p1630
aVrack
p1631
aVvehicl
p1632
aVimpli
p1633
aV592
p1634
aVcupc51cv1mll
p1635
aVnatur
p1636
aVusrlibx11xdmxsess
p1637
aVcrook
p1638
aVvideo
p1639
aVhc11
p1640
aVbopper2phxmcdmotcom
p1641
aVodd
p1642
aVtartarusuwaeduau
p1643
aVchildcar
p1644
aVmacus
p1645
aVevacu
p1646
aVmultimedia
p1647
aVwinchest
p1648
aVstillyou
p1649
aVindian
p1650
aVursa
p1651
aVwalterraincom
p1652
aVumbdrv
p1653
aVlutheran
p1654
aVled
p1655
aVghicacyclop
p1656
aVleg
p1657
aVcnn
p1658
aVpunch
p1659
aVlen
p1660
aVlet
p1661
aVdecript
p1662
aVkhachikian
p1663
aVgreat
p1664
aVmailinglist
p1665
aVcasino
p1666
aVtechnolog
p1667
aVwindowsprintcaptur
p1668
aVsurvey
p1669
aVdefeat
p1670
aVftpccalmrogiedu
p1671
aVopinion
p1672
aVmaker
p1673
aVdigitis
p1674
aVcalibr
p1675
aVfx80
p1676
aVrsinternicnet
p1677
aVdisciplin
p1678
aVsgi
p1679
aVdumbest
p1680
aVamaranthvelaacsoaklandedu
p1681
aVmultiplatform
p1682
aVbent
p1683
aVzip
p1684
aVcommun
p1685
aVdoubl
p1686
aVupgrad
p1687
aVnext
p1688
aVhostag
p1689
aVsoftengcsuwmedu
p1690
aVdoubt
p1691
aVpencil
p1692
aV1canuck
p1693
aVsrc
p1694
aVbabi
p1695
aVsg7
p1696
aVchariti
p1697
aVpes3cunixfcccolumbiaedu
p1698
aVantichrist
p1699
aVvelapold
p1700
aVreproduct
p1701
aVxfig
p1702
aVpour
p1703
aVthin
p1704
aVdrill
p1705
aVpeke
p1706
aVbend
p1707
aVedgetacalcul
p1708
aVloca
p1709
aValgorythim
p1710
aVprocess
p1711
aVlock
p1712
aVpreformat
p1713
aVrode
p1714
aVhigh
p1715
aVparaphras
p1716
aVslip
p1717
aVschemat
p1718
aVcrimin
p1719
aVmartyr
p1720
aVtrumpet
p1721
aVcsdvax1993apr150018133907
p1722
aVreuter
p1723
aVinhal
p1724
aVwaitlist
p1725
aVawait
p1726
aVsurfac
p1727
aVnotebook
p1728
aVhorrer
p1729
aVhawk
p1730
aVeasilycompromis
p1731
aValloc
p1732
aVsciencessdsuedu
p1733
aVessenti
p1734
aVseriou
p1735
aVrobot
p1736
aVwintrumpet
p1737
aVissu
p1738
aV0625
p1739
aVmaclean
p1740
aVallot
p1741
aVallow
p1742
aVselfdefens
p1743
aVhouston
p1744
aVthigh
p1745
aVroutin
p1746
aVmove
p1747
aVmicrosystem
p1748
aVevolutionari
p1749
aVbrahma
p1750
aVeasytoread
p1751
aVperfect
p1752
aVdisconfirmatori
p1753
aVchosen
p1754
aVhobbi
p1755
aVfaxcomm
p1756
aVremorseless
p1757
aVinfrastructur
p1758
aVdecad
p1759
aVtherefor
p1760
aV2013
p1761
aVearl
p1762
aVlegendari
p1763
aVnada
p1764
aVoveral
p1765
aVtehlerian
p1766
aVcage
p1767
aVanyth
p1768
aVgoh
p1769
aVtruth
p1770
aVshouldercal
p1771
aVstarnet
p1772
aVsocieti
p1773
aVbooki
p1774
aV640x480
p1775
aVstatic
p1776
aVwander
p1777
aVmight
p1778
aVvariabl
p1779
aVdopler
p1780
aVmatrix
p1781
aVfmsrl71pqf9oinn88
p1782
aVmaldanado
p1783
aVhaapanen
p1784
aVshut
p1785
aVperish
p1786
aVpl810
p1787
aVcleartext
p1788
aVliant
p1789
aVcould
p1790
aVarea
p1791
aVdavid
p1792
aVenforc
p1793
aVoutsid
p1794
aVhussein
p1795
aVscare
p1796
aVendors
p1797
aVblown
p1798
aV450
p1799
aVscene
p1800
aVcyberspac
p1801
aVepiskopo
p1802
aVowner
p1803
aVsharon
p1804
aVdoublepark
p1805
aVlicens
p1806
aVsystem
p1807
aVbackdoor
p1808
aVwaterg
p1809
aVtermin
p1810
aVnorton
p1811
aVcookamunga
p1812
aV24pdqsi
p1813
aVadaptor
p1814
aVcarinahkscom
p1815
aVgotcha
p1816
aVrenderman
p1817
aVsubmiss
p1818
aV250denningcsgeorgetownedu
p1819
aVmcovingtaiugaedu
p1820
aVsteel
p1821
aVwet
p1822
aVbother
p1823
aVpsalm
p1824
aVdosbas
p1825
aVpsycholog
p1826
aVmisunderstand
p1827
aVimho
p1828
aVzeroknowledg
p1829
aVterribl
p1830
aVviewer
p1831
aVpartnership
p1832
aVclearli
p1833
aVdosag
p1834
aVfourteenth
p1835
aVelement
p1836
aVaudaci
p1837
aVmaplecircaufledu
p1838
aVoverthrew
p1839
aVsdio
p1840
aV4000
p1841
aVchief
p1842
aVaccuraci
p1843
aViocard
p1844
aVkorean
p1845
aVcourtesi
p1846
aVfidel
p1847
aVdoug
p1848
aVlinuxxfree86
p1849
aV01
p1850
aVsegment
p1851
aVfaci
p1852
aVstronger
p1853
aVextendend
p1854
aVface
p1855
aVoneselfth
p1856
aVinstit
p1857
aVpubtechreportslarc
p1858
aVfact
p1859
aVxop
p1860
aVswastica
p1861
aVdbm
p1862
aVbring
p1863
aVtrivial
p1864
aVredirect
p1865
aVwindowsstack
p1866
aVseizur
p1867
aVdmodem
p1868
aVnois
p1869
aVjay
p1870
aVmovi
p1871
aVshould
p1872
aVgestur
p1873
aVjam
p1874
aVsuppos
p1875
aVgouroud
p1876
aVclementin
p1877
aVtude
p1878
aVhope
p1879
aVweitek
p1880
aVmeant
p1881
aVfamiliar
p1882
aVpasseng
p1883
aVautom
p1884
aVacces
p1885
aVprostititut
p1886
aVdefenseless
p1887
aV30bo
p1888
aVh
p1889
aVrs1rrzunikoelnd
p1890
aVreid
p1891
aVstuff
p1892
aV926540837
p1893
aVcyberman
p1894
aVohio
p1895
aVnist
p1896
aVbtw
p1897
aVchicogo
p1898
aVcreationist
p1899
aVframe
p1900
aVpinout
p1901
aVpacket
p1902
aVbrintonicdteradynecom
p1903
aVtemporarili
p1904
aVparticl
p1905
aV1376613011
p1906
aVwire
p1907
aVsimtel20
p1908
aVnuclear
p1909
aVnationwid
p1910
aVmisus
p1911
aVanonymousftp
p1912
aVbiblic
p1913
aVyoull
p1914
aVemail
p1915
aVdislik
p1916
aVstaci
p1917
aVdisput
p1918
aVundoubt
p1919
aVradiuswar
p1920
aVallpass
p1921
aVdrum
p1922
aVgoldin
p1923
aVdrug
p1924
aVsidiropoulo
p1925
aVetc
p1926
aVharvard
p1927
aVpuff
p1928
aVci
p1929
aVch
p1930
aVco
p1931
aVcl
p1932
aVcc
p1933
aVmalcolm
p1934
aVrevamp
p1935
aVcd
p1936
aVindict
p1937
aVucc
p1938
aVtoler
p1939
aVcs
p1940
aV601
p1941
aV2800
p1942
aVlargeer
p1943
aVcv
p1944
aVscanner
p1945
aVmidland
p1946
aVquotat
p1947
aVtriniti
p1948
aVinsuffici
p1949
aVrhode
p1950
aVtrajectori
p1951
aVfeather
p1952
aVimmedi
p1953
aVls
p1954
aVmanretard
p1955
aV57x
p1956
aVadob
p1957
aVdeliber
p1958
aVaccident
p1959
aVtogeth
p1960
aVatlanta
p1961
aVafterdark
p1962
aVc7
p1963
aVbanish
p1964
aVlaser
p1965
aVrbi
p1966
aVdecept
p1967
aVultra
p1968
aVvb
p1969
aVpurchas
p1970
aVrealis
p1971
aVomni
p1972
aVvi
p1973
aVvl
p1974
aVsite
p1975
aVvr
p1976
aVarchiv
p1977
aVincom
p1978
aVsurprisingli
p1979
aVsoftfont
p1980
aVjenner
p1981
aVterrorist
p1982
aVrussel
p1983
aVlocaltalk
p1984
aVmatthew
p1985
aVcompetit
p1986
aVball
p1987
aVcolumbia
p1988
aVpeic
p1989
aVexpans
p1990
aVdrink
p1991
aVupon
p1992
aVcoffe
p1993
aVkopek
p1994
aVeurocrypt
p1995
aVv3
p1996
aVv8
p1997
aVferriera
p1998
aVopamp
p1999
aVexpand
p2000
aVdat
p2001
aVoff
p2002
aVtimerdriven
p2003
aVjumboreadtasccom
p2004
aVcolour
p2005
aVaboudamceeclarksonedu
p2006
aVdpmspsx
p2007
aVstranglehold
p2008
aVexampl
p2009
aVcommand
p2010
aV350
p2011
aVaudio
p2012
aVfacilit
p2013
aVmathematica
p2014
aVnewest
p2015
aVless
p2016
aVcompel
p2017
aVpaul
p2018
aVdemograph
p2019
aVclipper
p2020
aVweb
p2021
aVwed
p2022
aVreleasesom
p2023
aVwimpi
p2024
aVarrest
p2025
aVcrack
p2026
aVigc
p2027
aVatrophi
p2028
aVchancellor
p2029
aVcrud
p2030
aVpiec
p2031
aVpreponder
p2032
aVfive
p2033
aVdesk
p2034
aVnvm
p2035
aVpassword
p2036
aVresid
p2037
aVfinnish
p2038
aVcorpor
p2039
aVgxv
p2040
aVmhz
p2041
aVxtdisplaycanva
p2042
aVsurest
p2043
aVcaptur
p2044
aVspheroid
p2045
aVflush
p2046
aVguarante
p2047
aVballot
p2048
aVtransport
p2049
aVdigitalanalog
p2050
aVfeder
p2051
aV256
p2052
aVavoid
p2053
aVlowtech
p2054
aVdoen
p2055
aVkxp1124
p2056
aV_then_
p2057
aVmnemon
p2058
aVdigestif
p2059
aVstage
p2060
aVsister
p2061
aVpcspeaker
p2062
aVinterven
p2063
aVofftheshelf
p2064
aVdocumentari
p2065
aVlibertarianstyl
p2066
aVpeak
p2067
aVtheyr
p2068
aVsulfit
p2069
aVtheyv
p2070
aVxmailer
p2071
aVassess
p2072
aV62678
p2073
aVsparcstat
p2074
aVtheyd
p2075
aVmere
p2076
aVuninvolv
p2077
aVproisrael
p2078
aVwp51
p2079
aVdsiuscrpac
p2080
aVbd
p2081
aVhadambcsc02govbcca
p2082
aVdeliveri
p2083
aVauitobnc
p2084
aVphilosoph
p2085
aVdannybpanixcom
p2086
aVgrate
p2087
aVapollo
p2088
aVga5000
p2089
aVcount
p2090
aVbaptist
p2091
aVpackard
p2092
aVsmooth
p2093
aVmicrosofti
p2094
aVr2d2
p2095
aVvolvo
p2096
aVtini
p2097
aVotherwis
p2098
aVproblem
p2099
aVbaptism
p2100
aVnetbio
p2101
aVirish
p2102
aVint
p2103
aVimc10mednavymil
p2104
aVink
p2105
aVine
p2106
aVinc
p2107
aVsharif
p2108
aVvarieti
p2109
aVfirstorg
p2110
aVrepeat
p2111
aVmonday
p2112
aVrex
p2113
aVmcarthyit
p2114
aVmca
p2115
aVv17v29v27ter
p2116
aVrepeal
p2117
aVghost
p2118
aVrule
p2119
aV3193
p2120
aVsyllabi
p2121
aVrep
p2122
aVulrichgalkitoppointd
p2123
aVapproxmi
p2124
aVwinjet
p2125
aVonur
p2126
aVwhack
p2127
aVbike
p2128
aVmatlab
p2129
aVregal
p2130
aVpragramm
p2131
aVspec
p2132
aVmegamax
p2133
aVpublicdomain
p2134
aVaurora
p2135
aVdistort
p2136
aVundiscrimin
p2137
aVchapel
p2138
aVcmo
p2139
aVhisher
p2140
aVcmd
p2141
aVupload
p2142
aVhprndrosehpcom
p2143
aVenquir
p2144
aVmath
p2145
aV294
p2146
aVreinvent
p2147
aV293
p2148
aVtriumph
p2149
aVapertur
p2150
aVpaperback
p2151
aVshitload
p2152
aVpreacher
p2153
aVhighpow
p2154
aVhors
p2155
aVdotmatrix
p2156
aVspect
p2157
aVeerikiastateedu
p2158
aVdcd8
p2159
aVamus
p2160
aVcalcul
p2161
aVamun
p2162
aVtopolog
p2163
aVtold
p2164
aVcrunch
p2165
aVscaleddown
p2166
aVpleasur
p2167
aVdaughter
p2168
aVrgbroadnetupscom
p2169
aVcrap
p2170
aVsmoke
p2171
aV8plane
p2172
aVbunker
p2173
aVstudi
p2174
aVnewspap
p2175
aVinfield
p2176
aVlinearli
p2177
aVbro
p2178
aVattitud
p2179
aVmathsoft
p2180
aV1024x758
p2181
aVtotal
p2182
aVdatatext
p2183
aVhighli
p2184
aVplot
p2185
aVpalestinian
p2186
aV16384processor
p2187
aVduxdundeeacuk
p2188
aVinsult
p2189
aVindiana
p2190
aVmimevers
p2191
aVsociopath
p2192
aVbr1
p2193
aVmathew
p2194
aVmather
p2195
aV1991
p2196
aV1990
p2197
aV1993
p2198
aV1992
p2199
aV1995
p2200
aV1900quotem
p2201
aVerr
p2202
aVrestor
p2203
aV1999
p2204
aVcrest
p2205
aVwork
p2206
aVtecum
p2207
aVwors
p2208
aVera
p2209
aVerc
p2210
aVfootpeg
p2211
aVraod
p2212
aVpierr
p2213
aVnovic
p2214
aV555
p2215
aV554
p2216
aVknesset
p2217
aVin
p2218
aV550
p2219
aVindic
p2220
aVcoalit
p2221
aVwoman
p2222
aVwalsh
p2223
aVbasebal
p2224
aVtitledrag
p2225
aVultrix
p2226
aVfstgds15tugrazacat
p2227
aVordinari
p2228
aVchameleon
p2229
aVpreregist
p2230
aVmodemfax
p2231
aVdisappear
p2232
aVinterview
p2233
aVverifi
p2234
aV4cylind
p2235
aVu28037uicvmuicedu
p2236
aVlan
p2237
aVinterlibrari
p2238
aVrecogn
p2239
aVlai
p2240
aVsimplemayb
p2241
aVchines
p2242
aVafter
p2243
aVlab
p2244
aV286a
p2245
aVlay
p2246
aVshortsight
p2247
aV286i
p2248
aVlaw
p2249
aVdemonstr
p2250
aVdomin
p2251
aVjwhcitiumichedu
p2252
aVgreet
p2253
aVgreek
p2254
aV48bit
p2255
aVgreec
p2256
aVmokhtarian
p2257
aVorder
p2258
aVsoftwar
p2259
aVconsent
p2260
aVoffici
p2261
aVzeo
p2262
aVpascal
p2263
aVincid
p2264
aVflexibl
p2265
aVdenver
p2266
aVinadvert
p2267
aValtath
p2268
aVoffic
p2269
aVbelittl
p2270
aVshear
p2271
aVreverseengin
p2272
aVthen
p2273
aVthem
p2274
aVthee
p2275
aVsafe
p2276
aVbreak
p2277
aVband
p2278
aVthey
p2279
aVenamor
p2280
aVspigot
p2281
aVl
p2282
aVnaysay
p2283
aVxdpyinfo
p2284
aVwilfredhansencscmuedu
p2285
aVslaveri
p2286
aVkiria
p2287
aVxgl
p2288
aVvt100
p2289
aVxga2
p2290
aVaspi2do
p2291
aV_know_
p2292
aV366th
p2293
aVnetwork
p2294
aVvandal
p2295
aVautocad
p2296
aVwgt
p2297
aVpalac
p2298
aVdaniel
p2299
aVforth
p2300
aVforti
p2301
aVvete
p2302
aVtaloscsbuffaloedu
p2303
aVntu
p2304
aVstandard
p2305
aVnth
p2306
aVrevernmsuedu
p2307
aVmeagerest
p2308
aVreconfigur
p2309
aVgoldmin
p2310
aVangl
p2311
aVsidebysid
p2312
aVrender
p2313
aVindepend
p2314
aVmessag
p2315
aVchopper
p2316
aVcomic
p2317
aVnomin
p2318
aVtimothi
p2319
aVjohn
p2320
aVsupportbb
p2321
aVnetwar
p2322
aVgrandchildren
p2323
aVswapfil
p2324
aVhappili
p2325
aVtotten
p2326
aVtoronto
p2327
aVtarget
p2328
aVcitibank
p2329
aVprovid
p2330
aVbiolog
p2331
aVmerci
p2332
aVdigitalk
p2333
aVguilt
p2334
aViron
p2335
aVdesign
p2336
aVminut
p2337
aVprovis
p2338
aVcontenti
p2339
aVinterfac
p2340
aVreali
p2341
aVponder
p2342
aVstrength
p2343
aVrealm
p2344
aVrecreat
p2345
aVlatter
p2346
aVmmilitzoskidmoreedu
p2347
aVtransmit
p2348
aVtrewesday
p2349
aVgermani
p2350
aVbruce
p2351
aVwhat
p2352
aVfigmonetcomcom
p2353
aVsatisfaxt
p2354
aVaccesss
p2355
aVphase
p2356
aVgrave
p2357
aVrosenkranz
p2358
aVexcus
p2359
aVnihimag
p2360
aVrusch
p2361
aVbesieg
p2362
aVbracket
p2363
aVoppress
p2364
aVopposit
p2365
aVapprocah
p2366
aVprotocol
p2367
aVd0
p2368
aVinvolv
p2369
aVrexlex
p2370
aValdu
p2371
aVturboborland
p2372
aV600000
p2373
aVgideon
p2374
aVcoreleft
p2375
aVdo
p2376
aVdi
p2377
aVdg
p2378
aVnasti
p2379
aVde
p2380
aVdb
p2381
aVdc
p2382
aVda
p2383
aVcryptographi
p2384
aVonboard
p2385
aVdr
p2386
aVscoriat
p2387
aVdevguid
p2388
aVemg
p2389
aVfurst
p2390
aVdiabet
p2391
aVemm
p2392
aVlexington
p2393
aV414
p2394
aV415
p2395
aVwinpktcom
p2396
aVhumanist
p2397
aV413
p2398
aVsteal
p2399
aVreread
p2400
aVsethnorth13acpubdukeedu
p2401
aVassualt
p2402
aVcica
p2403
aVw1
p2404
aVchristian
p2405
aVawar
p2406
aVaway
p2407
aVbitnet
p2408
aVatroc
p2409
aVbitspixel
p2410
aV92
p2411
aVaccord
p2412
aVwa
p2413
aVkimbal
p2414
aVwm
p2415
aVwh
p2416
aVwu
p2417
aVautofil
p2418
aVwp
p2419
aVcastleman
p2420
aVstricter
p2421
aVcop
p2422
aVcor
p2423
aVframebuff
p2424
aVcow
p2425
aVnfid
p2426
aVhowev
p2427
aVfafter
p2428
aVbrag
p2429
aVsteer
p2430
aVbrad
p2431
aVcom
p2432
aVcol
p2433
aVcon
p2434
aVtough
p2435
aVwideo
p2436
aVheali
p2437
aVtoni
p2438
aVroyal
p2439
aVpl94
p2440
aVshaftdriven
p2441
aVwider
p2442
aVparadis
p2443
aVguid
p2444
aVspeak
p2445
aVstrong
p2446
aVhay
p2447
aVnewish
p2448
aVsubscrib
p2449
aV6680
p2450
aVbaud
p2451
aVhmri
p2452
aVselim
p2453
aVtaxat
p2454
aV80486
p2455
aVsabotag
p2456
aV1378113
p2457
aVphysician
p2458
aVgnp
p2459
aVident
p2460
aVaix
p2461
aVgnu
p2462
aVlauncher
p2463
aVproperti
p2464
aVair
p2465
aVaim
p2466
aVpublicli
p2467
aVaid
p2468
aVvagu
p2469
aVsucces
p2470
aVdizzi
p2471
aVegan
p2472
aVharddriv
p2473
aVbrake
p2474
aVhebrew
p2475
aVhpcc01compdcommodem
p2476
aVv326
p2477
aVperform
p2478
aV1800mullerloriafr
p2479
aVnicon
p2480
aVlithium
p2481
aVjerri
p2482
aVnih
p2483
aVraid
p2484
aVevid
p2485
aVsaddam
p2486
aVbalkan
p2487
aVhang
p2488
aVevil
p2489
aVhand
p2490
aVnorwegian
p2491
aVrais
p2492
aVma_ind25blurtoswegoedu
p2493
aVsamsonkihno
p2494
aVniv
p2495
aVkept
p2496
aVundesir
p2497
aVscenario
p2498
aV1978
p2499
aV1600
p2500
aVthu
p2501
aVdriv
p2502
aV1972
p2503
aV1971
p2504
aV1970
p2505
aVsdpa
p2506
aVcontact
p2507
aVcaringforwristsp
p2508
aVthi
p2509
aVthe
p2510
aVcampu
p2511
aVepa
p2512
aVhprpcdrosehpcom
p2513
aVstringent
p2514
aVindigo
p2515
aVbackground
p2516
aVvlbide
p2517
aVphoto
p2518
aVfireston
p2519
aVvictim
p2520
aVt2000
p2521
aVthankx
p2522
aVjose
p2523
aVlossani
p2524
aV323
p2525
aVjosh
p2526
aVstragegi
p2527
aVweiss
p2528
aVboard
p2529
aVrighteous
p2530
aVplasma
p2531
aVmaya
p2532
aVquicktim
p2533
aVmayb
p2534
aVrng
p2535
aVarab
p2536
aVfusion
p2537
aVleagu
p2538
aVretreat
p2539
aVvoyag
p2540
aV530
p2541
aVpl7
p2542
aVpl6
p2543
aVpl5
p2544
aVpl2
p2545
aVjefferi
p2546
aVpl9
p2547
aVpl8
p2548
aVussnail
p2549
aVborn
p2550
aVjfelderlercnasagov
p2551
aVflatten
p2552
aVbore
p2553
aVorchid
p2554
aVascona
p2555
aVhumor
p2556
aVamigado
p2557
aVovercom
p2558
aVccuumanitobaca
p2559
aVplu
p2560
aVxw
p2561
aVconfer
p2562
aVplc
p2563
aVrepositori
p2564
aVtaker
p2565
aVpost
p2566
aVposs
p2567
aV_____
p2568
aVchronolog
p2569
aVliteratur
p2570
aVtrophi
p2571
aVcipher
p2572
aVmiracul
p2573
aVobp
p2574
aVdilemma
p2575
aVcuriou
p2576
aVbounc
p2577
aVfloat
p2578
aVprofession
p2579
aVbound
p2580
aVcurios
p2581
aVlewi
p2582
aVedition_
p2583
aVopportun
p2584
aVaccordingli
p2585
aVguthri
p2586
aVdewi
p2587
aVsovereign
p2588
aVfight
p2589
aVway
p2590
aVwav
p2591
aVwar
p2592
aVhr16
p2593
aVcdtv
p2594
aVlistserv
p2595
aVpropols
p2596
aV4086885409
p2597
aVoffbas
p2598
aVtrue
p2599
aVreset
p2600
aVabsent
p2601
aVdkbtrace
p2602
aVreser
p2603
aVinquir
p2604
aVintern
p2605
aVdiphenhydramin
p2606
aV0649
p2607
aVcrystal
p2608
aVinaccur
p2609
aVhsinchu
p2610
aVabsenc
p2611
aVresel
p2612
aV486dx266
p2613
aVemit
p2614
aVtesla
p2615
aVrequest
p2616
aVabstract
p2617
aVflaw
p2618
aVuserfriendli
p2619
aVpostscript
p2620
aVgretzki
p2621
aVprayer
p2622
aVandwellsicourlawyersony
p2623
aVcompuerv
p2624
aVencrypt
p2625
aVstake
p2626
aVjone
p2627
aVtest
p2628
aVrealiti
p2629
aVpoliti
p2630
aVnonloc
p2631
aVearthjupit
p2632
aVtulkarm
p2633
aVmsmail
p2634
aVgobbl
p2635
aVoutdat
p2636
aVconcept
p2637
aVfox
p2638
aVglobal
p2639
aV61x6752
p2640
aVlebanes
p2641
aVbergmann
p2642
aVmiddl
p2643
aVquilti
p2644
aVgraph
p2645
aVgodless
p2646
aVflash
p2647
aVhp2xx
p2648
aVsupposedli
p2649
aVterror
p2650
aVdartmouth
p2651
aVmallen
p2652
aVowieneramu
p2653
aVnonturbo
p2654
aVxsizehint
p2655
aVwibbl
p2656
aVcompuserv
p2657
aVbrows
p2658
aVheshcuphpcom
p2659
aVadministr
p2660
aVgui
p2661
aVreconcil
p2662
aVgun
p2663
aVnontradit
p2664
aVp
p2665
aVgup
p2666
aVgut
p2667
aVguy
p2668
aVupper
p2669
aVhte
p2670
aVbrave
p2671
aVregret
p2672
aVbravo
p2673
aVglovehand
p2674
aVcost
p2675
aVbryen
p2676
aVtempest
p2677
aVcolormap
p2678
aVappear
p2679
aVadvantageth
p2680
aVuniform
p2681
aVwatchdogtm
p2682
aVappeal
p2683
aV1012
p2684
aVpostcript
p2685
aVgawd
p2686
aVhart
p2687
aVgener
p2688
aVmuslim
p2689
aVunauthor
p2690
aVfootbal
p2691
aVdisclaim
p2692
aVastrophysicist
p2693
aVreportcheck
p2694
aVnother
p2695
aVtekterm
p2696
aV11000
p2697
aVtablish
p2698
aVplotter
p2699
aVcheapnasti
p2700
aVtrial
p2701
aVfranklin
p2702
aVtriad
p2703
aVyeaer
p2704
aV430
p2705
aVunreason
p2706
aVphyserverphymtuedu
p2707
aVregardless
p2708
aVextra
p2709
aVbullock
p2710
aVunsympathet
p2711
aVfbi
p2712
aVmobil
p2713
aVfirearm
p2714
aVmarket
p2715
aV13meg
p2716
aVprove
p2717
aVsubvert
p2718
aVlive
p2719
aVcreolnetcomcom
p2720
aVtape
p2721
aVmagitron
p2722
aVclub
p2723
aVplexu
p2724
aVadipos
p2725
aVcompgraph
p2726
aVpeacemak
p2727
aVgraphic
p2728
aVibm
p2729
aVcar
p2730
aVprepar
p2731
aVcap
p2732
aVfocu
p2733
aVcat
p2734
aVgraphit
p2735
aVcan
p2736
aVcam
p2737
aVsocreligion
p2738
aVcab
p2739
aVcad
p2740
aVheart
p2741
aVchip
p2742
aVtopic
p2743
aVheard
p2744
aVabort
p2745
aVdxf
p2746
aVcardio
p2747
aVcardin
p2748
aVoccup
p2749
aVmultipl
p2750
aVbankrupt
p2751
aVicesurfac
p2752
aVeconomi
p2753
aVwrite
p2754
aVqicstream
p2755
aV_dsr
p2756
aVproduct
p2757
aVsouthern
p2758
aVdx2
p2759
aVlancast
p2760
aVflourish
p2761
aVreal3d
p2762
aVregularli
p2763
aVkuri
p2764
aVfavorit
p2765
aVirrat
p2766
aVnowif
p2767
aVapprov
p2768
aVbrain
p2769
aVstill
p2770
aVdynam
p2771
aVpowercard
p2772
aVedgelit
p2773
aV486sx25
p2774
aVwindow
p2775
aVwinnipeg
p2776
aV2400
p2777
aVmediocr
p2778
aVfactual
p2779
aVnorway
p2780
aVnon
p2781
aVnorad
p2782
aVrecal
p2783
aVwealthi
p2784
aVsharewarefreewar
p2785
aVadcom
p2786
aV1957
p2787
aV1950
p2788
aVhalf
p2789
aVnot
p2790
aVnow
p2791
aVprovision
p2792
aVdiscuss
p2793
aVnor
p2794
aVintroduct
p2795
aVwont
p2796
aValansari
p2797
aV68000
p2798
aVcda90038ucf1vmbitnet
p2799
aVmagazin
p2800
aVwong
p2801
aVdenmark
p2802
aVpbmplu
p2803
aVem
p2804
aVdomain
p2805
aVen
p2806
aVeh
p2807
aVcitat
p2808
aVej
p2809
aVee
p2810
aVreplac
p2811
aVeg
p2812
aVea
p2813
aVyeah
p2814
aVec
p2815
aVbradley
p2816
aVinfecti
p2817
aVsignificantli
p2818
aVez
p2819
aV14203
p2820
aVhappen
p2821
aVep
p2822
aVes
p2823
aVer
p2824
aVtextmod
p2825
aVshown
p2826
aVaccomplish
p2827
aVabsorpt
p2828
aV4jet
p2829
aVspace
p2830
aVvlbu
p2831
aVjwhitwbst845exeroxcom
p2832
aVcarv
p2833
aVargu
p2834
aVcoin
p2835
aVcarl
p2836
aVcard
p2837
aVcare
p2838
aVscarri
p2839
aVtextbook
p2840
aV4779429
p2841
aVinstrutech
p2842
aVbritish
p2843
aVhonest
p2844
aVfc
p2845
aVunwis
p2846
aVnonprofit
p2847
aV512
p2848
aVhershelealfdeccom
p2849
aVeeprom
p2850
aVblind
p2851
aVdirectli
p2852
aVyourself
p2853
aVxy
p2854
aVring
p2855
aVdrove
p2856
aVxv
p2857
aVtomorrow
p2858
aVxt
p2859
aVsize
p2860
aVcorinthian
p2861
aVsheer
p2862
aVsheet
p2863
aVsilent
p2864
aVcaught
p2865
aVcallous
p2866
aVeachoth
p2867
aVstatewid
p2868
aVtragic
p2869
aVfo
p2870
aVfriend
p2871
aVpkunzip
p2872
aVcoerciv
p2873
aVarith
p2874
aVespeci
p2875
aVpittsburgh
p2876
aVdelphinoscmil
p2877
aVmostli
p2878
aVthan
p2879
aVrecruit
p2880
aVvolat
p2881
aVappleu
p2882
aVworcest
p2883
aVprodriv
p2884
aVbrowser
p2885
aVmultiscreen
p2886
aVangel
p2887
aVbemisunderstood
p2888
aVcraig
p2889
aVanywher
p2890
aVslam
p2891
aVanger
p2892
aVxdisclaim
p2893
aVengin
p2894
aVlongword
p2895
aVveteran
p2896
aVultrascsi
p2897
aVsatellit
p2898
aVlaserpostscriptinkjetcolordot
p2899
aVwcl
p2900
aVbegin
p2901
aVimportantli
p2902
aVgeoff
p2903
aVprice
p2904
aVamerica
p2905
aVega
p2906
aV2238
p2907
aVrenam
p2908
aVrescu
p2909
aVachitectur
p2910
aVmeanwhil
p2911
aVknuckl
p2912
aVlandsberg
p2913
aVgerman
p2914
aVyalcin
p2915
aVscoreboard
p2916
aVconcurr
p2917
aVzwart
p2918
aVcapston
p2919
aVground
p2920
aVaint
p2921
aVonli
p2922
aVumbdr522zip
p2923
aVratio
p2924
aVstain
p2925
aV220
p2926
aVwaddl
p2927
aVcannon
p2928
aVloath
p2929
aVcannot
p2930
aVxcursor
p2931
aVtruli
p2932
aVgunawan
p2933
aVtelecommut
p2934
aVmujanov
p2935
aVcdtechnolog
p2936
aVcisko
p2937
aVhostil
p2938
aVintermitt
p2939
aV80523
p2940
aVtelecommun
p2941
aVamanda
p2942
aVhusband
p2943
aVburst
p2944
aVhoen
p2945
aVwhitewash
p2946
aVhoek
p2947
aVbeginnerinfo
p2948
aVsport
p2949
aVconcern
p2950
aVvgawonderxl24
p2951
aVzebe
p2952
aV3
p2953
aVbetween
p2954
aVindexstrchr
p2955
aVdeliver
p2956
aVblame
p2957
aVarmenian
p2958
aVcomeback
p2959
aVvram
p2960
aVjavier
p2961
aVazt
p2962
aVvoicemail
p2963
aVdifferet
p2964
aVpropaganda
p2965
aVmacibmpcsunamigaatarinextoth
p2966
aVtutori
p2967
aVqassam
p2968
aVaura
p2969
aVmg15prismgatechedu
p2970
aVexb0405csdvaxcsdunsweduau
p2971
aVnaplp
p2972
aVoverview
p2973
aVbaltimor
p2974
aVkhafr
p2975
aVjeann
p2976
aVexploit
p2977
aVwdctl
p2978
aVdamag
p2979
aVclarif
p2980
aVrebuild
p2981
aVinvers
p2982
aVvehicul
p2983
aVpcatwich
p2984
aV17000k
p2985
aVfoggi
p2986
aVmasonri
p2987
aVtwincom
p2988
aVaviat
p2989
aV1mb
p2990
aVoak77
p2991
aVbout
p2992
aVstimpycssitdumichedu
p2993
aVmerril
p2994
aVheikki
p2995
aVthese
p2996
aVpram
p2997
aVvaleri
p2998
aVtrick
p2999
aVscud
p3000
aVzenith
p3001
aVsoil
p3002
aVmetric
p3003
aVhenc
p3004
aVuncov
p3005
aVeras
p3006
aVmarti
p3007
aVinquiri
p3008
aVmedin
p3009
aVmedia
p3010
aVmedic
p3011
aVdocument
p3012
aVionoscmil
p3013
aVfinish
p3014
aVclosest
p3015
aVsomeon
p3016
aVmoreless
p3017
aVjakebony1bonycom
p3018
aVtheater
p3019
aVvnew
p3020
aVam2oandrewcmuedu
p3021
aVcci
p3022
aVdisassoci
p3023
aVjoystick
p3024
aV77
p3025
aVabund
p3026
aVharddisk
p3027
aVbitmap
p3028
aVrhknow
p3029
aVtouch
p3030
aVspeed
p3031
aVfullil
p3032
aVdeath
p3033
aVeurop
p3034
aVspecialpurpos
p3035
aVdesktop
p3036
aVgoedel
p3037
aVtreatment
p3038
aVaerospac
p3039
aVstruck
p3040
aVca
p3041
aVmomentum
p3042
aVvgalib
p3043
aVearli
p3044
aVswii
p3045
aVfrown
p3046
aVhypothesi
p3047
aVonscreen
p3048
aVread
p3049
aVomnisci
p3050
aVelmerfuddcsberkeleyedu
p3051
aVame
p3052
aVamd
p3053
aVgonna
p3054
aVenvis
p3055
aVdxterm
p3056
aVbenefit
p3057
aVt
p3058
aVpuram
p3059
aVcascad
p3060
aVoutput
p3061
aVaccessdigexnet
p3062
aVverbal
p3063
aVanomal
p3064
aVpl85
p3065
aVbillson
p3066
aVpl88
p3067
aVpl89
p3068
aV1858
p3069
aVencryptor
p3070
aVsquirt
p3071
aVepson
p3072
aVp9000
p3073
aVhabu
p3074
aVsadder
p3075
aVthrow
p3076
aVnamelik
p3077
aVcomparison
p3078
aVcentral
p3079
aVgreatli
p3080
aVtestimoni
p3081
aVlastrang
p3082
aVcring
p3083
aVdegre
p3084
aVstress
p3085
aVassassin
p3086
aVbackup
p3087
aVprocessor
p3088
aVrj3
p3089
aVanomali
p3090
aVcontentlength
p3091
aVyoud
p3092
aVunregist
p3093
aVyouv
p3094
aVnurs
p3095
aVairlin
p3096
aVyour
p3097
aVlog
p3098
aVkmart
p3099
aVopengl
p3100
aVusmc
p3101
aVmailtonew
p3102
aVstart
p3103
aVfascin
p3104
aVstarv
p3105
aVlow
p3106
aVlot
p3107
aVstarr
p3108
aVvgalogovga
p3109
aVseagat
p3110
aVgaza
p3111
aVoscil
p3112
aVkc2wz
p3113
aVsatur
p3114
aVhire
p3115
aVfraud
p3116
aVhpcc01recsportbasebal
p3117
aVstanford
p3118
aVdefault
p3119
aVk_p
p3120
aVlindholmucsubcca
p3121
aVtoner
p3122
aVgibberish
p3123
aVwsai3duracuk
p3124
aV052192
p3125
aVv31
p3126
aV607
p3127
aVmutil
p3128
aV600
p3129
aVsunroof
p3130
aV1200
p3131
aVhuizenga
p3132
aVracist
p3133
aVschismat
p3134
aVsubtext
p3135
aVantenna
p3136
aVpisssssssss
p3137
aVcaltech
p3138
aVtelaviv
p3139
aVyou
p3140
aVpoor
p3141
aVpolar
p3142
aVauthoritarian
p3143
aVrenccwfccutexasedu
p3144
aV120v
p3145
aVoverreact
p3146
aV120r
p3147
aV60e
p3148
aV320200256
p3149
aVpeac
p3150
aVpool
p3151
aVreduc
p3152
aVbulk
p3153
aV50012
p3154
aVcorel
p3155
aVinevit
p3156
aVv130
p3157
aVmonth
p3158
aVcorrel
p3159
aVinterappl
p3160
aVembarras
p3161
aVvs
p3162
aVprophisi
p3163
aVarticl
p3164
aVcomerci
p3165
aV250csspabmailgwncslnistgov
p3166
aVw_id
p3167
aVhomer
p3168
aVvers
p3169
aVhighvoltag
p3170
aVhorror
p3171
aVmechan
p3172
aV640x480x167mil
p3173
aVveri
p3174
aVcandida
p3175
aVheaven
p3176
aVomvi
p3177
aVemul
p3178
aVcosic
p3179
aV195
p3180
aV29447562971p00261psilinkcom
p3181
aVdimens
p3182
aVanonim
p3183
aVhamper
p3184
aVstalin
p3185
aVgchinssfengsuncom
p3186
aVsbrogiitymnetcom
p3187
aVconspectu
p3188
aVessenc
p3189
aViran
p3190
aVrochest
p3191
aVvet
p3192
aVexcess
p3193
aVwandersman
p3194
aViraq
p3195
aVmodifi
p3196
aVarena
p3197
aVtraumat
p3198
aVahead
p3199
aVvegetarian
p3200
aVflop1r5f7linnj71
p3201
aVtelecast
p3202
aVsoldier
p3203
aVamount
p3204
aVheroin
p3205
aVkriger
p3206
aVarent
p3207
aVlavey
p3208
aVmedicin
p3209
aV7145868811
p3210
aVthatcher
p3211
aVput
p3212
aVvc
p3213
aVfamili
p3214
aVvd
p3215
aVkhan
p3216
aVmackintosh
p3217
aVinjuri
p3218
aVviru
p3219
aVmassag
p3220
aVaspi4do
p3221
aVasm
p3222
aVpovray
p3223
aVtaken
p3224
aVpetersburg
p3225
aVdiod
p3226
aVturbo
p3227
aVxbitmap
p3228
aVmounter
p3229
aVvm
p3230
aVwouold
p3231
aV1that
p3232
aVbroke
p3233
aVoblivi
p3234
aVusdaar
p3235
aVhistori
p3236
aVnebraska
p3237
aVnine
p3238
aVfundamentalist
p3239
aVareth
p3240
aVfresco
p3241
aVfirmli
p3242
aVsysnet
p3243
aVunreli
p3244
aVphrase
p3245
aVmn
p3246
aVstring
p3247
aVjerk
p3248
aVnonvolitil
p3249
aVanoth
p3250
aVspreadsheet
p3251
aV8002539693
p3252
aVlaserwrit
p3253
aVreject
p3254
aVidaho
p3255
aVschultz
p3256
aVthreat
p3257
aVsneak
p3258
aVfb
p3259
aVhubbard
p3260
aVfd
p3261
aV_not_
p3262
aVundergradu
p3263
aVfk
p3264
aVfl
p3265
aVvintag
p3266
aVa
p3267
aVspectra
p3268
aVscsi
p3269
aVdream
p3270
aVwizbang
p3271
aVphotoshop
p3272
aVhelp
p3273
aVreservoir
p3274
aVsoon
p3275
aVheld
p3276
aVthermal
p3277
aVsteril
p3278
aVhierarchi
p3279
aVhell
p3280
aVparamet
p3281
aVdiskett
p3282
aVyolo2utkvxutkedu
p3283
aVgenealog
p3284
aVfool
p3285
aVkevinlstel
p3286
aVfood
p3287
aVsentenc
p3288
aVye
p3289
aVintelbas
p3290
aVcharismat
p3291
aVvomit
p3292
aVninja
p3293
aVys
p3294
aVbryan
p3295
aVarticleid
p3296
aVpyotrhalcyoncom
p3297
aVfulli
p3298
aVintervent
p3299
aVbal1mcdukeedu
p3300
aVneil
p3301
aVpcanywher
p3302
aVblank
p3303
aVheavi
p3304
aVrokhlin
p3305
aVquantum
p3306
aVbeyond
p3307
aVevent
p3308
aVretribut
p3309
aVsafeti
p3310
aVitem
p3311
aVrobert
p3312
aVpublish
p3313
aVhypercard
p3314
aVsustain
p3315
aV7
p3316
aVcompunct
p3317
aVass
p3318
aVasq
p3319
aVast
p3320
aVreason
p3321
aVbase
p3322
aVask
p3323
aVasi
p3324
aVphd
p3325
aVpursuad
p3326
aVheroic
p3327
aVbasi
p3328
aVfirstclass
p3329
aVlaunch
p3330
aVappos
p3331
aVobor
p3332
aVamerican
p3333
aVundergo
p3334
aVassign
p3335
aVntutaiwan
p3336
aVmisl
p3337
aVobviou
p3338
aVelder
p3339
aVanywer
p3340
aVpl8line
p3341
aVmiss
p3342
aVeddi
p3343
aVlongdist
p3344
aVstation
p3345
aVscheme
p3346
aVadhes
p3347
aVadher
p3348
aVbehind
p3349
aVncr
p3350
aVasshol
p3351
aV1918
p3352
aVshifter
p3353
aV1915
p3354
aV1914
p3355
aVdiorama
p3356
aVogata
p3357
aVdtk
p3358
aVgrep
p3359
aVdta
p3360
aVdtg
p3361
aVgrey
p3362
aVgreg
p3363
aVkindli
p3364
aVdtr
p3365
aVdtp
p3366
aVnicddnmil
p3367
aVrandomli
p3368
aVcomrad
p3369
aVwasnt
p3370
aV13706
p3371
aVphilli
p3372
aV318i
p3373
aVnull
p3374
aVkarl
p3375
aVlid
p3376
aVlie
p3377
aVvaneveri
p3378
aVlib
p3379
aVwritercuphpcom
p3380
aVscotland
p3381
aVlik
p3382
aVuseless
p3383
aVivker
p3384
aVnorma
p3385
aVhistolog
p3386
aVoffscreen
p3387
aVpatrick
p3388
aVkan
p3389
aVmace
p3390
aVsirtf
p3391
aVeaten
p3392
aVpediatr
p3393
aValpha
p3394
aVmach
p3395
aVclear
p3396
aVticketpric
p3397
aVclean
p3398
aVfetal
p3399
aV8250
p3400
aVv12
p3401
aV666
p3402
aV19930416
p3403
aVkinsey
p3404
aVymp
p3405
aVcoerc
p3406
aVcopyright
p3407
aVduncan
p3408
aVparanoid
p3409
aVncd
p3410
aVparanoia
p3411
aVlonni
p3412
aVpalett
p3413
aVzambia
p3414
aVnativ
p3415
aVadlib
p3416
aVdissap
p3417
aVprogun
p3418
aVswitzerland
p3419
aVx
p3420
aVremov
p3421
aVfluoresc
p3422
aVmoeni
p3423
aVrocketpropel
p3424
aVdelux
p3425
aVleukocyt
p3426
aVdelug
p3427
aVclose
p3428
aVwhatsoev
p3429
aVdeir
p3430
aVwaim
p3431
aVwow
p3432
aVparticip
p3433
aVosfmotif
p3434
aVwor
p3435
aVplush
p3436
aVwon
p3437
aVpiss
p3438
aVdalla
p3439
aVnumer
p3440
aVisol
p3441
aVdistinguish
p3442
aVdecwindow
p3443
aVboth
p3444
aVtoward
p3445
aVsternlight
p3446
aVinde7wvrosieuhedu
p3447
aVanon
p3448
aVforgotten
p3449
aVvault
p3450
aVvpisu
p3451
aVprotector
p3452
aV4dx266v
p3453
aVjeff
p3454
aVbellovin
p3455
aVproton
p3456
aVgnuemac
p3457
aVmednewsasuacadbitnet
p3458
aVliket
p3459
aVlinux
p3460
aVbatteri
p3461
aVbridg
p3462
aVkaypro
p3463
aVforgiv
p3464
aVstamp
p3465
aVterritori
p3466
aVempti
p3467
aVenuff
p3468
aVdamn
p3469
aVappropiatli
p3470
aVthreaten
p3471
aVpanturk
p3472
aVdame
p3473
aVawfulto
p3474
aV129648199
p3475
aVimak
p3476
aVimag
p3477
aVcitizen
p3478
aVnetcom
p3479
aVspeedomet
p3480
aVcoordin
p3481
aVpartli
p3482
aVliver
p3483
aVsubcommitte
p3484
aVhighest
p3485
aVutmost
p3486
aVlook
p3487
aVsocialist
p3488
aVcanadian
p3489
aVrope
p3490
aVpace
p3491
aVwhile
p3492
aVought
p3493
aVwhill
p3494
aVloos
p3495
aVloop
p3496
aVsherzer
p3497
aVthemsevl
p3498
aVreadm
p3499
aVamfm
p3500
aVredisplay
p3501
aVmorgu
p3502
aVgrant
p3503
aVtheocrat
p3504
aVstratigi
p3505
aVdest
p3506
aVdiscredit
p3507
aVhighlyinterpret
p3508
aVconflict
p3509
aValyosha
p3510
aVimagin
p3511
aVoptim
p3512
aVinflat
p3513
aV001
p3514
aVuser
p3515
aVyeltsin
p3516
aVspecialis
p3517
aVkurdish
p3518
aVolder
p3519
aVpoland
p3520
aVflorian
p3521
aVlowerrisk
p3522
aVweakest
p3523
aVcoup
p3524
aVemacetenetedu
p3525
aVtypefac
p3526
aVbaptiz
p3527
aVadminist
p3528
aVrawlin
p3529
aVnotifi
p3530
aV13000
p3531
aVpearlstein
p3532
aVjerom
p3533
aVsubsequ
p3534
aVmarch
p3535
aVstein
p3536
aVdearli
p3537
aVxterm
p3538
aVchenwang
p3539
aVroommat
p3540
aVmotorola
p3541
aVmarcu
p3542
aVcharacterist
p3543
aVoverthrown
p3544
aVeet
p3545
aVsignal
p3546
aVresolv
p3547
aV______________________________________
p3548
aV32bit
p3549
aVxscope
p3550
aVparamilitari
p3551
aVpopular
p3552
aVcruis
p3553
aVautoanswerautodi
p3554
aV7500
p3555
aVsome
p3556
aVdoberman
p3557
aVcg3
p3558
aVcg4
p3559
aVsyndrom
p3560
aVmailserv
p3561
aVdebri
p3562
aVrun
p3563
aVcga
p3564
aVbooklet
p3565
aVreoccur
p3566
aVrug
p3567
aVinfra
p3568
aVstep
p3569
aVuniessen
p3570
aVscielectron
p3571
aVabroad
p3572
aVfranco
p3573
aVfaith
p3574
aVwinsong
p3575
aVwouldnt
p3576
aVmonstrou
p3577
aVidl
p3578
aV7423
p3579
aVphoneansw
p3580
aVide
p3581
aVblock
p3582
aVxbit
p3583
aVshonkwil
p3584
aVwithin
p3585
aVpowersav
p3586
aVslovak
p3587
aVheschel
p3588
aVsirosh
p3589
aVensur
p3590
aVxwindow
p3591
aVpentagon
p3592
aVvineyard
p3593
aV60ship
p3594
aVtriangl
p3595
aVsw4sw3
p3596
aVlarri
p3597
aVhousearchivedgrtpdgcom
p3598
aV16mx1
p3599
aValtsecur
p3600
aVserversright
p3601
aVdule
p3602
aVnewer
p3603
aVduli
p3604
aVpwm
p3605
aVspecialti
p3606
aV12180
p3607
aVinfo
p3608
aVthru
p3609
aVskull
p3610
aVmadceltcwisunomahaedu
p3611
aVkuhn
p3612
aVsimilar
p3613
aVweakth
p3614
aVmalic
p3615
aVtomographi
p3616
aVcrari
p3617
aVlectur
p3618
aVdestruct
p3619
aVpdsvicar
p3620
aVpolygon
p3621
aVpronounc
p3622
aVtitl
p3623
aVnah
p3624
aVnonanonym
p3625
aVaccross
p3626
aVafford
p3627
aVsetenv
p3628
aVmacibm
p3629
aVnay
p3630
aVdraw
p3631
aVtongu
p3632
aVwrightlims01lercnasagov
p3633
aVresign
p3634
aVwilliam
p3635
aVcliffnot
p3636
aVdrag
p3637
aVevan
p3638
aVdmorf12zip
p3639
aVsupris
p3640
aVsoundex
p3641
aVinfrequ
p3642
aVe
p3643
aVheata
p3644
aVorbit
p3645
aVdepth
p3646
aVincandesc
p3647
aVforsal
p3648
aVoop
p3649
aVgp
p3650
aVamphotericin
p3651
aVgb
p3652
aVga
p3653
aVgo
p3654
aVgm
p3655
aVgl
p3656
aVbenevol
p3657
aVhampshir
p3658
aVcda
p3659
aVkaunda
p3660
aV6172532781
p3661
aVwizard
p3662
aVladner
p3663
aVfriendli
p3664
aVxpostedfrom
p3665
aVpulldown
p3666
aVtextmathgraph
p3667
aVaris
p3668
aVv11
p3669
aVwave
p3670
aVtue
p3671
aVcellular
p3672
aVbutton
p3673
aVaixps2
p3674
aVmichael
p3675
aVcassett
p3676
aVpornographi
p3677
aVv71
p3678
aVjump
p3679
aVdownload
p3680
aVnetcomput
p3681
aVpoke
p3682
aVg5g
p3683
aVwaaaaaaaaah
p3684
aV64k
p3685
aVcelp
p3686
aVcell
p3687
aVexperiment
p3688
aV_naive_
p3689
aVs_132
p3690
aVx386
p3691
aV140239132
p3692
aVmjsthe
p3693
aVioerror
p3694
aVbecom
p3695
aVtoell
p3696
aVconvert
p3697
aVconvers
p3698
aVverison
p3699
aVvacat
p3700
aVuptight
p3701
aVmilwauke
p3702
aV640
p3703
aVappletalk
p3704
aVgeni
p3705
aVchang
p3706
aVchanc
p3707
aValthough
p3708
aVclark
p3709
aVdanger
p3710
aVwin
p3711
aVaustria
p3712
aVwit
p3713
aVarthur
p3714
aViraniraq
p3715
aVjamesbessett
p3716
aVcloud
p3717
aVdosent
p3718
aVmetaphor
p3719
aVvideogener
p3720
aVeyephon
p3721
aVhudson
p3722
aVtauru
p3723
aVcray
p3724
aVimplic
p3725
aVcamera
p3726
aVviktorolesovaivalt
p3727
aVjonathan
p3728
aVmalawi
p3729
aVcosmo
p3730
aVhewlettpackardsantarosasystmsdivrohnertparkca
p3731
aVveikko
p3732
aVmismatch
p3733
aVflaki
p3734
aVpolyray
p3735
aVisraelit
p3736
aVjornakubnl
p3737
aVmitsubishi
p3738
aVretriev
p3739
aVnoncompar
p3740
aVride
p3741
aVdrope
p3742
aVincombat
p3743
aVmeet
p3744
aVcontrol
p3745
aVcouncil
p3746
aVsought
p3747
aVwonderful
p3748
aVextreemist
p3749
aVpreemptionchannel
p3750
aV230
p3751
aVgeorg
p3752
aVreestablish
p3753
aVmonash
p3754
aV0025
p3755
aVfaro
p3756
aVdjlewisualredu
p3757
aVelud
p3758
aVwinter
p3759
aVmswindow
p3760
aVpctool
p3761
aVscoop
p3762
aVhic
p3763
aVencyclopedia
p3764
aVagenda
p3765
aVshirtprotect
p3766
aVwinprinter800
p3767
aVstepwis
p3768
aV10000
p3769
aVbrook
p3770
aVatclass
p3771
aVpixel
p3772
aVpure
p3773
aVhandl
p3774
aVauto
p3775
aVhandi
p3776
aVtribul
p3777
aVfront
p3778
aVmacwharehous
p3779
aV029
p3780
aVsomewher
p3781
aVguard
p3782
aVprepackag
p3783
aVslide
p3784
aVmode
p3785
aVchunk
p3786
aVrectifi
p3787
aV700
p3788
aV701
p3789
aVmollusc
p3790
aVsanjuansantafeed
p3791
aVspecial
p3792
aVmat
p3793
aVintrud
p3794
aVarmor
p3795
aVreboot
p3796
aVsecretli
p3797
aVsuitabl
p3798
aVamphibi
p3799
aVcalib
p3800
aVmemet
p3801
aVvesselin
p3802
aVoptic_nervembvlabwpafbafmil
p3803
aVq700
p3804
aVecb
p3805
aVsander
p3806
aVlightwavelightwave3d
p3807
aVmanipul
p3808
aVundo
p3809
aV70n
p3810
aVect
p3811
aV148
p3812
aVspeedstar
p3813
aVinterplanetari
p3814
aVetern
p3815
aV1980
p3816
aV1981
p3817
aVflorida
p3818
aVmac
p3819
aVkeep
p3820
aVshred
p3821
aVcurti
p3822
aVgeometri
p3823
aVaustin
p3824
aVobstens
p3825
aVjudaiz
p3826
aVairborn
p3827
aVchristoph
p3828
aVqualiti
p3829
aVkoresh
p3830
aVcongo
p3831
aVbitch
p3832
aVesun228
p3833
aVart
p3834
aVattach
p3835
aVattack
p3836
aVprivaci
p3837
aVgeneralpurpos
p3838
aVaccessori
p3839
aVoccasionali
p3840
aVfinal
p3841
aVprone
p3842
aVrsi
p3843
aVpunish
p3844
aVmethodolog
p3845
aVrsa
p3846
aVrsb
p3847
aVbiggest
p3848
aVorigni
p3849
aVtissu
p3850
aVexactli
p3851
aVapologist
p3852
aVphotograph
p3853
aVben
p3854
aVbem
p3855
aVevergrow
p3856
aVbeg
p3857
aVdubiou
p3858
aVbare
p3859
aV7400
p3860
aVbet
p3861
aVfunction
p3862
aVstdin
p3863
aVesposito
p3864
aV54
p3865
aVturbomodem
p3866
aVjulian
p3867
aVtabl
p3868
aVneed
p3869
aVborder
p3870
aVscrew
p3871
aVbastard
p3872
aVgodthi
p3873
aVvideoaid
p3874
aVunawar
p3875
aV250hoffmanseasgwuedu
p3876
aV40pin
p3877
aVtactic
p3878
aVtruck
p3879
aVdetector
p3880
aVmountaintop
p3881
aVsingl
p3882
aVsiniaticu
p3883
aVtextur
p3884
aVtwomachin
p3885
aV4000seri
p3886
aVdiscov
p3887
aVshelley1r6k3hinnq5t
p3888
aVrigor
p3889
aVsb
p3890
aVarcan
p3891
aVmonochrom
p3892
aVstereo
p3893
aVurg
p3894
aVspaceflight
p3895
aVfatherslead
p3896
aVovermuch
p3897
aVlittlefield
p3898
aVupset
p3899
aVinde
p3900
aVzhiguli
p3901
aVaffair
p3902
aVyaer
p3903
aV12h
p3904
aVsent
p3905
aVsoftwarehardwar
p3906
aVottoman
p3907
aVmolest
p3908
aVpositiveor
p3909
aVcsutexasedu
p3910
aVtire
p3911
aVwinner
p3912
aVupstair
p3913
aVmanufactur
p3914
aVarabian
p3915
aVrabbi
p3916
aVfuel
p3917
aVdiscontinu
p3918
aVghhwangcsienctuedutw
p3919
aVmga
p3920
aVwmanual
p3921
aVfansmor
p3922
aV121
p3923
aV125
p3924
aVwerent
p3925
aV128
p3926
aVenabl
p3927
aVunscrupul
p3928
aVgrayscal
p3929
aVxew13
p3930
aVkph2qonyxcsvirginiaedu
p3931
aVshi
p3932
aVgrab
p3933
aVgrad
p3934
aVdpi
p3935
aVj
p3936
aVimmol
p3937
aVimmor
p3938
aVyugoslavia
p3939
aVsolder
p3940
aVentitl
p3941
aVxtermin
p3942
aVstatu
p3943
aV_turn
p3944
aVlynnvax1mankatomsusedu
p3945
aVcorrectli
p3946
aVhomewood
p3947
aV655360
p3948
aVtend
p3949
aVwritten
p3950
aVendocrinolog
p3951
aVtyre
p3952
aVneither
p3953
aVken
p3954
aVkhartoum
p3955
aVkey
p3956
aVchipset
p3957
aVgoodluck
p3958
aVoverhaul
p3959
aVengp2008nusunixnussg
p3960
aVthank
p3961
aVadmin
p3962
aVaqua
p3963
aVadmit
p3964
aVadmir
p3965
aVmac23
p3966
aVami
p3967
aVpubxr4
p3968
aVjersey
p3969
aVafaik
p3970
aVcommer
p3971
aVcamoflag
p3972
aVpcat
p3973
aVultratrivi
p3974
aVorig
p3975
aVquit
p3976
aVslowli
p3977
aVcaretak
p3978
aVquiz
p3979
aVtreat
p3980
aV300x225
p3981
aVdure
p3982
aVhernandez
p3983
aV83103
p3984
aVdisney
p3985
aV209900
p3986
aVrenegad
p3987
aVingredi
p3988
aVnovel
p3989
aVnickelucsindianaedu
p3990
aVripem
p3991
aVjusgement
p3992
aVengag
p3993
aVdemo
p3994
aV1z2
p3995
aVneuron
p3996
aVcompletedli
p3997
aV417100
p3998
aVnonup
p3999
aVrevis
p4000
aVscienc
p4001
aVwelcom
p4002
aVasant
p4003
aVparti
p4004
aVbegan
p4005
aVspeaker
p4006
aVnorthwest
p4007
aV_he
p4008
aVnonappl
p4009
aVnightli
p4010
aV486dx
p4011
aVabsorb
p4012
aVindign
p4013
aVeffect
p4014
aVselfpromo
p4015
aViniti
p4016
aVpheonix
p4017
aVphill
p4018
aVmecl
p4019
aVi
p4020
aVmeca
p4021
aVwell
p4022
aVrelatif
p4023
aVpart3
p4024
aVwelt
p4025
aVrifl
p4026
aV44
p4027
aVhesh
p4028
aVnemon
p4029
aVoak
p4030
aVmistaken
p4031
aV43
p4032
aVrebuildingreconfigur
p4033
aVdistant
p4034
aV40
p4035
aVincreasingli
p4036
aVskill
p4037
aVbrainpow
p4038
aVse30
p4039
aV128155358
p4040
aV120ksec
p4041
aVtitti
p4042
aVdensiti
p4043
aVwarrant
p4044
aVfate
p4045
aVhypocrici
p4046
aVutah
p4047
aV579712
p4048
aVmunich
p4049
aV261
p4050
aVburden
p4051
aVmy_int_var
p4052
aVdos5
p4053
aVloss
p4054
aVlincoln
p4055
aVlost
p4056
aVcommunicationsnot
p4057
aVnonoppres
p4058
aV4mb
p4059
aVnecessari
p4060
aVmartin
p4061
aVcandl
p4062
aVpage
p4063
aVcandi
p4064
aVmeg_arnoldqmsricom
p4065
aVcsugradcsvtedu
p4066
aVglare
p4067
aVshea
p4068
aV8pin
p4069
aV986
p4070
aVgerrit
p4071
aVcontin
p4072
aVhome
p4073
aVpeter
p4074
aVlibrari
p4075
aVborland
p4076
aVoverlay
p4077
aVdenali
p4078
aVoverlap
p4079
aVestim
p4080
aVuptod
p4081
aVhinder
p4082
aVencourag
p4083
aVemm386ex
p4084
aVworkgroup
p4085
aVjournal
p4086
aVusag
p4087
aVleffler
p4088
aVcryptolog
p4089
aVoffset
p4090
aVrefuge
p4091
aV040
p4092
aVquarter
p4093
aVnoemailaddresseicnetnach
p4094
aVoldhand
p4095
aVfreedom
p4096
aVcleans
p4097
aVbobkc2wzbubbleorg
p4098
aVrightthink
p4099
aVnoncolour
p4100
aVressurect
p4101
aVpanix
p4102
aVxr2240
p4103
aVglenn
p4104
aVprimal
p4105
aVtortur
p4106
aVwashington
p4107
aVultrasound
p4108
aV38733mhz
p4109
aVcouldnt
p4110
aVscharfi
p4111
aVpointless
p4112
aVcb900
p4113
aVpc
p4114
aVhammarbi
p4115
aVmacwoof
p4116
aVodiou
p4117
aVnorth
p4118
aVhr
p4119
aVhp
p4120
aVxerox
p4121
aVhu
p4122
aVastro
p4123
aVwhod
p4124
aVneutral
p4125
aVhi
p4126
aVgain
p4127
aVspuriou
p4128
aVstratego
p4129
aVeas
p4130
aVear
p4131
aVeat
p4132
aVhd
p4133
aVhe
p4134
aVtransmitrec
p4135
aVemsworthandrewcmuedu
p4136
aV727
p4137
aVcruel
p4138
aVlimit
p4139
aVdisplay
p4140
aVsignet
p4141
aVcrosspost
p4142
aVevalu
p4143
aVmustnt
p4144
aVtwist
p4145
aVerik
p4146
aVtclsipp
p4147
aVflight
p4148
aVeric
p4149
aVdiego
p4150
aVfutur
p4151
aVrememb
p4152
aVstat
p4153
aVstar
p4154
aVstay
p4155
aVstaf
p4156
aVnintendo
p4157
aVsphinx
p4158
aVmassacr
p4159
aVatheist
p4160
aVindirectli
p4161
aVwincak
p4162
aVatheism
p4163
aVportion
p4164
aVantifight
p4165
aVdecemb
p4166
aVsimpson
p4167
aVasw410
p4168
aVpardon
p4169
aVsecondli
p4170
aVprotest
p4171
aVlowcost
p4172
aVwhose
p4173
aVaccus
p4174
aVaccur
p4175
aVsorri
p4176
aVswap
p4177
aVaux
p4178
aVsaver
p4179
aVkudo
p4180
aVhitech
p4181
aVvoic
p4182
aVgover
p4183
aVgovern
p4184
aVappar
p4185
aVlefthand
p4186
aVvast
p4187
aVthinkth
p4188
aVexsoviet
p4189
aVvector
p4190
aVbusinessresid
p4191
aVwindowsnt
p4192
aVpolanyi
p4193
aV10a
p4194
aVnoncrypto
p4195
aVhelluva
p4196
aVill
p4197
aVcrackleitdadelaideeduau
p4198
aVillumin
p4199
aVeven
p4200
aVwreck
p4201
aVneg
p4202
aVdecstat
p4203
aVasid
p4204
aVlightn
p4205
aVnec
p4206
aVnea
p4207
aVnew
p4208
aVnet
p4209
aVever
p4210
aVxr500ii
p4211
aVmed
p4212
aVmeg
p4213
aVmea
p4214
aVbehavior
p4215
aVmem
p4216
aVmel
p4217
aVnever
p4218
aVdrew
p4219
aVmet
p4220
aV103
p4221
aV100
p4222
aV101
p4223
aVinterpret
p4224
aV105
p4225
aVnetowrk
p4226
aVcindi
p4227
aVinterupt
p4228
aVjame
p4229
aVharass
p4230
aVdrl
p4231
aVwfworkgroup
p4232
aVpermit
p4233
aVzombi
p4234
aVjami
p4235
aVcompusa
p4236
aVvolunt
p4237
aVcampaign
p4238
aVkayaakin
p4239
aVbayonet
p4240
aVreagan
p4241
aVdefaultscreen
p4242
aVmoral
p4243
aVinstabl
p4244
aVsmartdrv
p4245
aV___
p4246
aVsecessionist
p4247
aVreadi
p4248
aVhallambak
p4249
aVedward
p4250
aVcall
p4251
aVtypo
p4252
aVarmi
p4253
aVtype
p4254
aVtell
p4255
aVtorqu
p4256
aVyucki
p4257
aVwarn
p4258
aVwarm
p4259
aVadult
p4260
aVware
p4261
aVrlogin
p4262
aVworst
p4263
aVroom
p4264
aVsetup
p4265
aVroof
p4266
aVworth
p4267
aVakin
p4268
aVroot
p4269
aVtechonolog
p4270
aVgive
p4271
aVstudenttcumnedu
p4272
aVclimax
p4273
aVdmtsemtlam
p4274
aVshippinginsur
p4275
aVwaltcsmsstateedu
p4276
aVquot
p4277
aVpolic
p4278
aVfaulti
p4279
aVet4000w32
p4280
aVscrambl
p4281
aVanswer
p4282
aVcolonis
p4283
aVconfig
p4284
aV128k
p4285
aVpolit
p4286
aVilleduc
p4287
aVsubstanc
p4288
aVsarfati
p4289
aVeprom
p4290
aVrouter
p4291
aVsubstant
p4292
aVloyalti
p4293
aVstoredoubl
p4294
aVguerilla
p4295
aVattempt
p4296
aVthird
p4297
aVwangrrpiedu
p4298
aVmaintain
p4299
aVaustrailian
p4300
aVethernet
p4301
aVcardhumcsdundeeacuk
p4302
aVbelong
p4303
aVfortifi
p4304
aVghastli
p4305
aVtoadi
p4306
aVmurray
p4307
aVprivileg
p4308
aVsaturnsdsuedu
p4309
aVkeyboard
p4310
aVstreamlin
p4311
aVlengthi
p4312
aVcrew
p4313
aVbetter
p4314
aVasala
p4315
aVanim
p4316
aVtherapi
p4317
aVvicepresid
p4318
aVpromin
p4319
aVunthink
p4320
aVpromis
p4321
aVviciou
p4322
aV20mhz
p4323
aVmicrosci
p4324
aVncdware
p4325
aVbaylor
p4326
aVsuperfast
p4327
aVlcii
p4328
aVwent
p4329
aVside
p4330
aVmean
p4331
aVmediev
p4332
aVenorm
p4333
aVgpf
p4334
aVcalmli
p4335
aVtaught
p4336
aVeplain
p4337
aVforgot
p4338
aVextract
p4339
aV24x
p4340
aVcontend
p4341
aV50mhz
p4342
aVcrucial
p4343
aVcontent
p4344
aVrewrit
p4345
aVvcpi
p4346
aVreader
p4347
aVlinear
p4348
aVmetronom
p4349
aVsituat
p4350
aVinfin
p4351
aVgreasi
p4352
aV244
p4353
aVbestow
p4354
aVsegacd
p4355
aV240
p4356
aVbacklit
p4357
aVbeatti
p4358
aVwelfar
p4359
aV12000
p4360
aVloui
p4361
aV34812
p4362
aV100000
p4363
aVisa
p4364
aVbladestackurctuenl
p4365
aVgrade
p4366
aVdesacr
p4367
aVthereof
p4368
aVhook
p4369
aVunlik
p4370
aVscanmat
p4371
aVmassiv
p4372
aVpayload
p4373
aVunexpectedli
p4374
aV1281742521
p4375
aVhistorian
p4376
aVsometim
p4377
aVbrainwash
p4378
aVdraft
p4379
aV6bit
p4380
aVcattalk
p4381
aVidacom
p4382
aVsomewhat
p4383
aVhadnt
p4384
aVpeculiar
p4385
aVsilli
p4386
aVkeyword
p4387
aVconsequ
p4388
aVioannu
p4389
aV600x400
p4390
aVmatter
p4391
aVmodern
p4392
aVmind
p4393
aVmine
p4394
aVseen
p4395
aVseem
p4396
aVseek
p4397
aVavion
p4398
aVchest
p4399
aVamberssdcsdharriscom
p4400
aVunemploy
p4401
aVcaddi
p4402
aVsourcesit
p4403
aVpandorasdsuedu
p4404
aVnorri
p4405
aVdiscipl
p4406
aVmarin
p4407
aVmario
p4408
aVregular
p4409
aVhide
p4410
aVprematur
p4411
aVtradit
p4412
aVdon
p4413
aVdoc
p4414
aValarm
p4415
aVm
p4416
aVdog
p4417
aVdod
p4418
aVdoe
p4419
aVilyess
p4420
aVrouhi
p4421
aVdov
p4422
aVdot
p4423
aVarmament
p4424
aVspeedup
p4425
aVplanetari
p4426
aVaccelar
p4427
aVdespit
p4428
aVnortheast
p4429
aVacquir
p4430
aVdespis
p4431
aVexplain
p4432
aVsugar
p4433
aVbahrain
p4434
aVstbpowergraph
p4435
aVhelppenetfi
p4436
aVtoll
p4437
aVstop
p4438
aVstablereli
p4439
aVsaturn
p4440
aVpolygon_reduct
p4441
aVbat
p4442
aVbar
p4443
aVdisco
p4444
aVbad
p4445
aV134841324
p4446
aVtroop
p4447
aVban
p4448
aVbal
p4449
aVshuld
p4450
aVmicroscopi
p4451
aVrecertifi
p4452
aVsubject
p4453
aVpete
p4454
aV00
p4455
aVsaid
p4456
aVsorta
p4457
aVsail
p4458
aVinfatu
p4459
aVinvalu
p4460
aVwinfield
p4461
aVattribut
p4462
aVvitamin
p4463
aVcrosstalkwinfax
p4464
aVtripled
p4465
aV386
p4466
aVvisualist
p4467
aVunpatent
p4468
aVfaxansw
p4469
aVroyc
p4470
aVunx
p4471
aVrethought
p4472
aVagainst
p4473
aV0k
p4474
aVunisi
p4475
aV16m
p4476
aVontolog
p4477
aVloader
p4478
aVquinn
p4479
aV16v
p4480
aVether
p4481
aVsan
p4482
aVreciev
p4483
aVliabil
p4484
aVmaintech
p4485
aVthree
p4486
aVspecul
p4487
aVinterest
p4488
aVbasic
p4489
aVidol
p4490
aVthrew
p4491
aVlybian
p4492
aVsuppress
p4493
aVyeahsureth
p4494
aVemmis
p4495
aVsynagogu
p4496
aVmultithread
p4497
aV111
p4498
aV168
p4499
aVefficaci
p4500
aVcdrom
p4501
aV167
p4502
aV162
p4503
aVmohammad
p4504
aVugli
p4505
aVtank
p4506
aVtang
p4507
aVbreifli
p4508
aVneal
p4509
aVasign
p4510
aVnear
p4511
aVneat
p4512
aVoccas
p4513
aVjerald
p4514
aVrfc1281
p4515
aVmexico
p4516
aVip
p4517
aVis
p4518
aVir
p4519
aVit
p4520
aViv
p4521
aVii
p4522
aVshame
p4523
aVcant
p4524
aVembasi
p4525
aVim
p4526
aVio
p4527
aVjesu
p4528
aVia
p4529
aVscreensdisplay
p4530
aVic
p4531
aVie
p4532
aVid
p4533
aVsever
p4534
aVif
p4535
aVloach
p4536
aVreceiv
p4537
aVmake
p4538
aVvaxvm
p4539
aVpolaroid
p4540
aV6220
p4541
aVazerbaijani
p4542
aVtooltalklik
p4543
aVwelker
p4544
aVkit
p4545
aVfbibatf
p4546
aVovers
p4547
aVkid
p4548
aVqualif
p4549
aVcongreg
p4550
aVsmoker
p4551
aVphilosphi
p4552
aVstuden
p4553
aVstimulu
p4554
aVdamnabl
p4555
aVprogramm
p4556
aV800
p4557
aV_did_
p4558
aVpixrect
p4559
aVleft
p4560
aVidentifi
p4561
aVjust
p4562
aVyea
p4563
aVnowaday
p4564
aVyee
p4565
aVunfair
p4566
aVhuman
p4567
aVdisinform
p4568
aVyet
p4569
aVlanguag
p4570
aVnswc
p4571
aVpropuls
p4572
aVputimag
p4573
aVcharacter
p4574
aV129957234
p4575
aVjefferson
p4576
aVslauson
p4577
aVsave
p4578
aVadress
p4579
aVapplic
p4580
aVdisect
p4581
aVccalmrpubacegrxvgr209tarz
p4582
aValsoinvolv
p4583
aVmileag
p4584
aVdissid
p4585
aVelabor
p4586
aVgovt
p4587
aVilliter
p4588
aVscanningedit
p4589
aVdaemon
p4590
aVs108
p4591
aVmanual
p4592
aV3031
p4593
aVtestinstrumentsmeterpowersupplyoscilloscopestorag
p4594
aVquarterdeck
p4595
aVdean
p4596
aVdeal
p4597
aVgopath
p4598
aVstaff
p4599
aVdisord
p4600
aVdeaf
p4601
aVsomehow
p4602
aVdead
p4603
aVrever
p4604
aVrevel
p4605
aVvplot
p4606
aV16001700
p4607
aVdear
p4608
aVpain
p4609
aVinterf
p4610
aVwwi
p4611
aVelderli
p4612
aV204
p4613
aVanatolia
p4614
aVroster
p4615
aVdcswitsendtnetcom
p4616
aVquicklink
p4617
aVx113d
p4618
aVlocalhost
p4619
aVslavic
p4620
aVbold
p4621
aVuncompress
p4622
aVusedheard
p4623
aVinsecur
p4624
aVburn
p4625
aVsouthofthebord
p4626
aVlabkaslsidhpcom
p4627
aVpromot
p4628
aVsuper
p4629
aVconceal
p4630
aVpl21
p4631
aVbeta
p4632
aVsimul
p4633
aVafternoon
p4634
aVcommit
p4635
aVmarshal
p4636
aVtelephon
p4637
aV22k
p4638
aVuxdlivacuk
p4639
aVdown
p4640
aVstripdown
p4641
aVformerli
p4642
aVcontrib
p4643
aVchime
p4644
aVlyme
p4645
aVmicrowav
p4646
aVriskier
p4647
aVxnewsread
p4648
aVprejudg
p4649
aVeditor
p4650
aVanalysi
p4651
aVunprovok
p4652
aVazeri
p4653
aVsecondhand
p4654
aVform
p4655
aVforc
p4656
aVforg
p4657
aVsurveil
p4658
aVford
p4659
aVsubstrat
p4660
aVoverburden
p4661
aV223
p4662
aV221
p4663
aVfort
p4664
aV50mm
p4665
aVxwd
p4666
aVunrel
p4667
aVtemper
p4668
aVfeatur
p4669
aVshin
p4670
aVclassic
p4671
aVtoss
p4672
aVsidestep
p4673
aVdrive
p4674
aVdiagnost
p4675
aVglanc
p4676
aV65535
p4677
aVship
p4678
aVshit
p4679
aVexcel
p4680
aVredicul
p4681
aVcg6
p4682
aVunlimit
p4683
aV2500
p4684
aVhandicap
p4685
aVfelt
p4686
aVaward
p4687
aV30kb
p4688
aVdiem
p4689
aVweekend
p4690
aVmykotronx
p4691
aVbillion
p4692
aV400x400x8
p4693
aVfemal
p4694
aVfurthermor
p4695
aVpseudo
p4696
aVignor
p4697
aValmanac
p4698
aVdaili
p4699
aVbefriend
p4700
aVcamerastor
p4701
aVskip
p4702
aVmadison
p4703
aVinvent
p4704
aVmild
p4705
aVskin
p4706
aVmill
p4707
aVsega
p4708
aVhierarch
p4709
aVmisread
p4710
aVslipon
p4711
aVdepend
p4712
aVmitserverdixwindowc
p4713
aVsovereignti
p4714
aVx11xutilh
p4715
aVfather
p4716
aVaspi
p4717
aV0
p4718
aVmagstrip
p4719
aVsociolog
p4720
aVdaryl
p4721
aVpersonwho
p4722
aVshoot
p4723
aVproblemsetc
p4724
aVminist
p4725
aVyeast
p4726
aVhuayong
p4727
aVgoodfornoth
p4728
aVma
p4729
aVexerpt
p4730
aVdim
p4731
aVazerbadjan
p4732
aVghostscript
p4733
aVdik
p4734
aVdid
p4735
aVdie
p4736
aVdemocrat
p4737
aVmagnet
p4738
aVtranmit
p4739
aVdiy
p4740
aVbehs
p4741
aVresettl
p4742
aVdip
p4743
aVround
p4744
aVdir
p4745
aVshoe
p4746
aVtelescop
p4747
aVmultiplenot
p4748
aVresourc
p4749
aV____
p4750
aVgauguin
p4751
aVcgm
p4752
aVffritzehpwbe007wadhpcom
p4753
aVfavour
p4754
aVheret
p4755
aVsuspect
p4756
aVsomalia
p4757
aVpegasus130393124328fp1dialin7uoregonedu
p4758
aVcadcor
p4759
aVaddi
p4760
aVkelsey
p4761
aVderiv
p4762
aV8510
p4763
aVmailord
p4764
aVfrench
p4765
aVcoincid
p4766
aVrs232
p4767
aVwait
p4768
aVbox
p4769
aVboy
p4770
aVreleiv
p4771
aVinvit
p4772
aVshift
p4773
aVbow
p4774
aVabscensesp
p4775
aVextrem
p4776
aVbob
p4777
aV20mb
p4778
aVboe
p4779
aVelect
p4780
aVmodul
p4781
aVaccessnetaxscom
p4782
aV317
p4783
aVtransplant
p4784
aVwealth
p4785
aVsake
p4786
aVunivers
p4787
aVvisit
p4788
aVeverybodi
p4789
aVibmer
p4790
aVcaroten
p4791
aVyoghurt
p4792
aVserdar
p4793
aVthomassunshinekodakcom
p4794
aVbennett
p4795
aVxview
p4796
aVheartless
p4797
aVexamin
p4798
aVcolorimage5
p4799
aVunselfishli
p4800
aVeffort
p4801
aVimpair
p4802
aVxsetwmnormalhint
p4803
aVcitri
p4804
aVmelodrama
p4805
aVuniqu
p4806
aVfli
p4807
aVeberhart
p4808
aVgandler
p4809
aVcisc
p4810
aV_any_
p4811
aVclaim
p4812
aVfavourit
p4813
aV256kb
p4814
aVkenneth
p4815
aVpredict
p4816
aVreynold
p4817
aVfuck
p4818
aVagent
p4819
aVscimednutrit
p4820
aVcrazi
p4821
aVcoincident
p4822
aVagenc
p4823
aVpredica
p4824
aVuptothemo
p4825
aVnyx
p4826
aVuae
p4827
aVclever
p4828
aVget
p4829
aVtill
p4830
aVsunday
p4831
aVsword
p4832
aVroubenmathumbcedu
p4833
aVnyc
p4834
aVmap
p4835
aV144
p4836
aVmar
p4837
aVproaudio
p4838
aV140
p4839
aVmay
p4840
aVmax
p4841
aVnermalsantarosaedu
p4842
aVusabl
p4843
aVintrus
p4844
aVmembership
p4845
aVmad
p4846
aVmag
p4847
aVgrow
p4848
aVman
p4849
aVtific
p4850
aVhayesstwrisc1unisaacza
p4851
aVjohnson
p4852
aV6th
p4853
aVq
p4854
aVswitch
p4855
aVjail
p4856
aVyassin
p4857
aVunmonitor
p4858
aVtall
p4859
aVida
p4860
aVtali
p4861
aVtalk
p4862
aVmousesi
p4863
aVgradual
p4864
aVgraduat
p4865
aVlst
p4866
aVfarul
p4867
aVpitch
p4868
aVspinoff
p4869
aVequip
p4870
aVpeterson
p4871
aVshaki
p4872
aVpointer
p4873
aVentiti
p4874
aVtexan
p4875
aVgroup
p4876
aVmonitor
p4877
aVpolici
p4878
aVstartrek
p4879
aV9088341254
p4880
aVmail
p4881
aVthant
p4882
aVmain
p4883
aVcyano
p4884
aVmisconcept
p4885
aVprime
p4886
aVlaserjet
p4887
aVfinanci
p4888
aVautomobil
p4889
aVsooner
p4890
aVapplelink
p4891
aVpossess
p4892
aVtandi
p4893
aVhealeth
p4894
aVxli
p4895
aVcrypto
p4896
aVmassachusett
p4897
aVrock
p4898
aVx10
p4899
aVx11
p4900
aV820
p4901
aV25kbyte
p4902
aVcontinu
p4903
aVredistribut
p4904
aVpublicaccessunixsystem
p4905
aVbitgraypixel
p4906
aVappsoft
p4907
aVcanada
p4908
aVannounc
p4909
aV3rd
p4910
aVprepoder
p4911
aVxremot
p4912
aVdutch
p4913
aVsensor
p4914
aVcorrect
p4915
aVdiseas
p4916
aVmonster
p4917
aVquran
p4918
aVch41prismgatechedu
p4919
aVquick386
p4920
aVcalifornia
p4921
aVinstitut
p4922
aVkeith
p4923
aVxpm
p4924
aVbadli
p4925
aVfrequenc
p4926
aVthing
p4927
aVthine
p4928
aVministri
p4929
aVprincipl
p4930
aVthink
p4931
aVfrequent
p4932
aVfirst
p4933
aVcarri
p4934
aVlone
p4935
aVw8944
p4936
aVyanoffcsd4csduwmedu
p4937
aVacquisit
p4938
aVlong
p4939
aVoppos
p4940
aVcdrd
p4941
aVarco
p4942
aVworkaround
p4943
aVambul
p4944
aVsigpip
p4945
aVaverag
p4946
aVescort
p4947
aVdeciph
p4948
aVauthorartist
p4949
aVproposit
p4950
aVmelbourn
p4951
aV48650dx
p4952
aVmeme
p4953
aVhillari
p4954
aViicx
p4955
aVbute
p4956
aVmemo
p4957
aVundoubtedli
p4958
aVmenac
p4959
aVbroadcast
p4960
aVbalakisi
p4961
aVallegedli
p4962
aV11
p4963
aV10
p4964
aV13
p4965
aV12
p4966
aV15
p4967
aV14
p4968
aV17
p4969
aV16
p4970
aV19
p4971
aV18
p4972
aVexclusionari
p4973
aVwere
p4974
aVscien
p4975
aVcosmolog
p4976
aVsanguinecholericmelencholicphlegmat
p4977
aVconspiraci
p4978
aVmellish
p4979
aVperciev
p4980
aV20c
p4981
aVproperli
p4982
aVportrait
p4983
aVnazi
p4984
aV48666
p4985
aVsquar
p4986
aVadvic
p4987
aVbezier
p4988
aVconsortium
p4989
aVultraconserv
p4990
aVadvis
p4991
aVinterior
p4992
aVchannel
p4993
aV201
p4994
aV200
p4995
aV203
p4996
aV202
p4997
aV205
p4998
aVincorpor
p4999
aVtrace
p5000
aVnormal
p5001
aVtrack
p5002
aVfriedman
p5003
aVpaid
p5004
aVassault
p5005
aVpair
p5006
aVbeth
p5007
aVnamesphon
p5008
aVpathet
p5009
aVcognosdonc
p5010
aV4mg
p5011
aV8900cl
p5012
aVsigma
p5013
aVshop
p5014
aVhighbandwidth
p5015
aVshot
p5016
aVlocaltalkcompat
p5017
aVshow
p5018
aVserialis
p5019
aVrussian
p5020
aVshod
p5021
aVcambodian
p5022
aVemot
p5023
aVcorner
p5024
aVsnider
p5025
aVcontemporari
p5026
aVstudentinternetbr4416aamericanedu
p5027
aVenthusiast
p5028
aVistead
p5029
aVnewssoftwar
p5030
aVdick
p5031
aVinnoc
p5032
aVblack
p5033
aVsiggraph
p5034
aVinstallationsetup
p5035
aV1024x768
p5036
aVrevisionist
p5037
aVeyewit
p5038
aV200000
p5039
aVnearli
p5040
aVvariou
p5041
aVdistinctli
p5042
aVvoluntarilli
p5043
aVstomp
p5044
aVsecondari
p5045
aV2mb
p5046
aVgem
p5047
aVgel
p5048
aVgirl
p5049
aVheadphon
p5050
aVyield
p5051
aVstupid
p5052
aV8918637
p5053
aVmediat
p5054
aV386486
p5055
aVsummari
p5056
aVkernel
p5057
aV33710
p5058
aVassumpt
p5059
aVseat
p5060
aVsean
p5061
aVkermit
p5062
aVseal
p5063
aVtrackfrict
p5064
aVcalendar
p5065
aVcarpalinfo
p5066
aVtranslat
p5067
aVresinfo
p5068
aVwonder
p5069
aVinfinit
p5070
aVinnov
p5071
aVpump
p5072
aVrigidli
p5073
aVantiviru
p5074
aVnntp
p5075
aVacross
p5076
aVfarzin
p5077
aVaugust
p5078
aVparent
p5079
aVquadra
p5080
aVjq
p5081
aVcruce
p5082
aVam
p5083
aVjo
p5084
aVlopez
p5085
aVjb
p5086
aVsketchi
p5087
aVz
p5088
aVtrader
p5089
aVaudienc
p5090
aVtout
p5091
aVimprov
p5092
aV494513909413
p5093
aVamong
p5094
aVacceler
p5095
aVusborn
p5096
aVverpeaux
p5097
aVhicnet
p5098
aVcopierprint
p5099
aViscan
p5100
aVultrastor
p5101
aVultim
p5102
aVmarc
p5103
aVcontribxephem
p5104
aVmari
p5105
aVmark
p5106
aVworkshop
p5107
aVmelnick
p5108
aV80386sl
p5109
aVbarri
p5110
aValittl
p5111
aVbockamphphalle2ginformatiktumuenchend
p5112
aVsquash
p5113
aV12meg
p5114
aVlawmast
p5115
aVbmp
p5116
aVwake
p5117
aVbmw
p5118
aVrepres
p5119
aVthose
p5120
aVsound
p5121
aVhdt
p5122
aVimperi
p5123
aVhdf
p5124
aVinvok
p5125
aVcoca
p5126
aVmargin
p5127
aVadvantag
p5128
aVjackbmddcommmotcom
p5129
aVdeityetern
p5130
aVdestin
p5131
aV322
p5132
aVonthefli
p5133
aVoutrag
p5134
aVeveryday
p5135
aVpap
p5136
aVfastcach
p5137
aVpat
p5138
aVdoctor
p5139
aVpay
p5140
aVtour
p5141
aVsame
p5142
aVdifferend
p5143
aVspeech
p5144
aVdayna
p5145
aVpal
p5146
aVpan
p5147
aVexhaust
p5148
aVscanman
p5149
aVoil
p5150
aVbrinton
p5151
aVassist
p5152
aVcapabl
p5153
aVdriven
p5154
aVduckyilsnwuedu
p5155
aVconfist
p5156
aVappropri
p5157
aVmacro
p5158
aVparodi
p5159
aVraymak
p5160
aVeightysomeodd
p5161
aVroughli
p5162
aVgunawanenuxvaeasasuedu
p5163
aVexecut
p5164
aVmoney
p5165
aVsumgait
p5166
aVmultiplex
p5167
aVaspect
p5168
aVasthma
p5169
aVfaxmodem
p5170
aVsyquest
p5171
aVpile
p5172
aV4
p5173
aVhewlettpackard
p5174
aVpill
p5175
aVgrip
p5176
aVjake
p5177
aVsecreci
p5178
aVdeepak
p5179
aVtemperatur
p5180
aVmon
p5181
aVmom
p5182
aVmol
p5183
aVmoa
p5184
aVr4
p5185
aVlouzi
p5186
aVmacarthur
p5187
aV800x60016
p5188
aVdeaththreat
p5189
aVserver
p5190
aVeither
p5191
aVbeehiv
p5192
aV3000
p5193
aVtsto
p5194
aVcabl
p5195
aVtitan
p5196
aVcancel
p5197
aVadequ
p5198
aVdetroit
p5199
aVcprigcapcorg
p5200
aVgross
p5201
aVconfirm
p5202
aV_many_
p5203
aVlunar
p5204
aVknife
p5205
aVbroken
p5206
aVbravado
p5207
aVcostbenefit
p5208
aVcornerston
p5209
aVitsillegaltocopythi
p5210
aVisland
p5211
aVinsect
p5212
aVfallaci
p5213
aV204000
p5214
aVsmeal
p5215
aVallianc
p5216
aVroad
p5217
aVwhitey
p5218
aVdownshift
p5219
aVterminolog
p5220
aVappleshar
p5221
aVdram
p5222
aVquietli
p5223
aVstrip
p5224
aVdx33
p5225
aVpreachment
p5226
aVxliter
p5227
aVtotalitarian
p5228
aVmadden
p5229
aVoverwrit
p5230
aVcompliant
p5231
aVmidwayecnuoknoredu
p5232
aVdaytim
p5233
aVwoudl
p5234
aVenough
p5235
aVwiderang
p5236
aVsunris
p5237
aVgori
p5238
aVcryptograph
p5239
aVbuggi
p5240
aV1024x768x16
p5241
aVpossibl
p5242
aVzeineldin
p5243
aVunusu
p5244
aVaaplayex
p5245
aVembed
p5246
aVcensor
p5247
aVcwindowssystemvgalogorl
p5248
aVcasualti
p5249
aVfile
p5250
aVcultur
p5251
aVfilm
p5252
aVfill
p5253
aVagain
p5254
aVpersonnel
p5255
aVhybrid
p5256
aVsingleaxi
p5257
aVfield
p5258
aVastronaut
p5259
aVarchitectur
p5260
aVfork
p5261
aVmatjazgamsijssi
p5262
aVfirmwar
p5263
aVfileshar
p5264
aVcondens
p5265
aVsequenc
p5266
aVvelaacsoaklandedu
p5267
aVnichol
p5268
aV1993apr1921104428763guinnessidbsuedu
p5269
aVansi
p5270
aVrecent
p5271
aV486
p5272
aVconcav
p5273
aVgibbon
p5274
aVucrengr
p5275
aVfoundri
p5276
aVdescript
p5277
aV640x480x32k
p5278
aV35000
p5279
aVu
p5280
aVkuwait
p5281
aVescap
p5282
aVrepresent
p5283
aVforget
p5284
aVfounder
p5285
aVsuburban
p5286
aVdollar
p5287
aVatlant
p5288
aVsuno
p5289
aVzinc
p5290
aVallergi
p5291
aVchildren
p5292
aVzink
p5293
aVedg
p5294
aVencyrpt
p5295
aVmethamphetamin
p5296
aVcrimson
p5297
aVkaskebce
p5298
aVentrop
p5299
aVsun3
p5300
aVspreadintent
p5301
aVpowerbook
p5302
aVsun4
p5303
aVutil
p5304
aVwiretap
p5305
aVmakela
p5306
aVhewlett
p5307
aVfall
p5308
aVbottleneck
p5309
aVwsj
p5310
aVwsm
p5311
aVwsu
p5312
aVsaudi
p5313
aVreceivesend
p5314
aV20th
p5315
aVtboot
p5316
aVandor
p5317
aVritter
p5318
aV500c
p5319
aVhitachi
p5320
aVexcommun
p5321
aVmmle
p5322
aVfurther
p5323
aVribbon
p5324
aVexcit
p5325
aVdial
p5326
aVabc
p5327
aVbenowitz
p5328
aVskeptic
p5329
aVgk
p5330
aVabl
p5331
aVstacker
p5332
aVbodeeeualbertaca
p5333
aVhurdl
p5334
aVpublic
p5335
aVmovement
p5336
aV5000
p5337
aVchristi
p5338
aVvariat
p5339
aVsophist
p5340
aVranger
p5341
aVbeacon
p5342
aVmulroney
p5343
aVvalu
p5344
aVsearch
p5345
aVfwi
p5346
aVcodebas
p5347
aVnarrow
p5348
aV9mm
p5349
aVdeclin
p5350
aVprimit
p5351
aVafrica
p5352
aVestablish
p5353
aVmemor
p5354
aV_includes_
p5355
aVsanjay
p5356
aVwirefram
p5357
aVdistinct
p5358
aVliber
p5359
aVregist
p5360
aVtwo
p5361
aVxplane
p5362
aVcodifi
p5363
aVnonvolatil
p5364
aVbulgarian
p5365
aVdiamond
p5366
aVdesir
p5367
aVisasnasda
p5368
aVscss3clmsuedu
p5369
aVleonard
p5370
aVparticular
p5371
aVmagnific
p5372
aV22600
p5373
aVnineteen
p5374
aVtown
p5375
aVdictat
p5376
aVnone
p5377
aVhour
p5378
aVhous
p5379
aVder
p5380
aVmaniac
p5381
aVnoni
p5382
aVremain
p5383
aVparagraph
p5384
aVdel
p5385
aVden
p5386
aVsystemcommand
p5387
aVabandon
p5388
aVimpris
p5389
aVdec
p5390
aVconsistantli
p5391
aVsucka
p5392
aVexplod
p5393
aVwormtm
p5394
aVwarlik
p5395
aVshare
p5396
aVcompart
p5397
aVexplor
p5398
aVexplos
p5399
aVwhichev
p5400
aVpostoffice1pscedu
p5401
aVsharwar
p5402
aVsecur
p5403
aVcomfort
p5404
aVpatton
p5405
aVxsoviet
p5406
aVaix32
p5407
aVstir
p5408
aVemac
p5409
aVblood
p5410
aVreadout
p5411
aVassoci
p5412
aV1bit
p5413
aVlipread
p5414
aVminervacisyaleedu
p5415
aVdragon
p5416
aVmislead
p5417
aVmultifind
p5418
aValpo
p5419
aVinfant
p5420
aV_least_
p5421
aVrotat
p5422
aVrand
p5423
aVhypertext
p5424
aVspook
p5425
aVazerbaijan
p5426
aVsetback
p5427
aVradar
p5428
aVthrough
p5429
aVsuffer
p5430
aVzyxel
p5431
aV24
p5432
aV25
p5433
aV26
p5434
aV27
p5435
aV20
p5436
aV21
p5437
aV22
p5438
aV23
p5439
aVthnx
p5440
aV28
p5441
aV29
p5442
aVhandheld
p5443
aVlate
p5444
aVpci
p5445
aVpad
p5446
aVpcf
p5447
aVlookout
p5448
aVgood
p5449
aVyessir
p5450
aVnewsflash
p5451
aVrank
p5452
aVcompound
p5453
aVoxford
p5454
aVadventur
p5455
aVcrohn
p5456
aVbombard
p5457
aVfreemanwith
p5458
aVrenounc
p5459
aV2x
p5460
aVasher
p5461
aVeasili
p5462
aVtoken
p5463
aV2m
p5464
aVuniversit
p5465
aVsmallscal
p5466
aVsubsystem
p5467
aVharm
p5468
aVinterleav
p5469
aVmental
p5470
aVhard
p5471
aVidea
p5472
aVinterleaf
p5473
aVelchibey
p5474
aVfist
p5475
aVutexa
p5476
aVenergi
p5477
aVcompet
p5478
aVorient
p5479
aVemmon
p5480
aVflower
p5481
aVadmiss
p5482
aVsuprem
p5483
aVprinc
p5484
aVquinci
p5485
aVprint
p5486
aVballstrik
p5487
aVeditorinchiefcopublish
p5488
aVextraordinari
p5489
aVmmu
p5490
aVgday
p5491
aVsuspici
p5492
aVbacker
p5493
aVpleasant
p5494
aVcyborgkaurivuwacnz
p5495
aVworkstat
p5496
aVsignalcruis
p5497
aVprophet
p5498
aVfinland
p5499
aVwither
p5500
aVvgaq
p5501
aVintimid
p5502
aV7037582712
p5503
aVdont
p5504
aVexchang
p5505
aVbarbarian
p5506
aVgreylevel
p5507
aVdissatisfi
p5508
aVtvtwm
p5509
aVdone
p5510
aVstabl
p5511
aVnetter
p5512
aV40mb
p5513
aV40bit
p5514
aVreadpost
p5515
aVoscilloscop
p5516
aVconstruct
p5517
aVpaint
p5518
aV180
p5519
aV184
p5520
aVkaramankar
p5521
aVconduit
p5522
aVvasili
p5523
aVpark
p5524
aVbootp
p5525
aVpart
p5526
aVpars
p5527
aVexposur
p5528
aV128bit
p5529
aVb
p5530
aVcontrari
p5531
aVgotten
p5532
aVeveryplac
p5533
aVgmbh
p5534
aVyouth
p5535
aVgame
p5536
aVbeij
p5537
aVschwimwagen
p5538
aVbuilt
p5539
aVk2
p5540
aVk1
p5541
aVbuild
p5542
aVmose
p5543
aVbugey
p5544
aVdistribut
p5545
aVpreviou
p5546
aVprovinci
p5547
aVvni
p5548
aVmost
p5549
aVcharl
p5550
aVkamterm
p5551
aVcharg
p5552
aVuncalibr
p5553
aVkb
p5554
aVkg
p5555
aVbdc
p5556
aV8006821776
p5557
aVnubu
p5558
aVgvga
p5559
aVku
p5560
aVkt
p5561
aVweigh
p5562
aVxinit
p5563
aVsector
p5564
aVchelat
p5565
aV217
p5566
aValphanumer
p5567
aVparticularli
p5568
aV386sx
p5569
aVfine
p5570
aVfind
p5571
aVfing
p5572
aVgiant
p5573
aVtaxandspend
p5574
aVdtrrtsdtsct
p5575
aV8
p5576
aVunhappi
p5577
aVboulder
p5578
aVweve
p5579
aVprowess
p5580
aVmein
p5581
aVluke
p5582
aVbattel
p5583
aVexpress
p5584
aVhighend
p5585
aVcheaper
p5586
aVcjacksonadobecom
p5587
aVwonko
p5588
aVrestart
p5589
aVapparantli
p5590
aVcommon
p5591
aVgospel
p5592
aVpcmacamiga
p5593
aVaghdam
p5594
aVgoldsborough
p5595
aVprintout
p5596
aVcelebr
p5597
aVlion
p5598
aVkennedycanaver
p5599
aVreserv
p5600
aVservic
p5601
aVatla
p5602
aVexpert
p5603
aVsometh
p5604
aVburner
p5605
aVdebat
p5606
aVmerck
p5607
aVjoltgnuaimitedu
p5608
aVexperi
p5609
aV512k361m362m36
p5610
aValtern
p5611
aVconcentr
p5612
aVpopup
p5613
aVappreci
p5614
aVsegal
p5615
aVmailbox
p5616
aVmulticultur
p5617
aVaircraft
p5618
aVpepsi
p5619
aVclueless
p5620
aViki
p5621
aVpb100
p5622
aVpopul
p5623
aValon
p5624
aVforeign
p5625
aValot
p5626
aVscreenplay
p5627
aVsimpli
p5628
aVpoint
p5629
aVlowresolut
p5630
aVvillberg
p5631
aVmonolithccemoryedu
p5632
aVshutdown
p5633
aVsuppli
p5634
aVinstrument
p5635
aV96102
p5636
aVsecret
p5637
aVireland
p5638
aVgay
p5639
aVunnecessarili
p5640
aVgap
p5641
aVsuhonen
p5642
aVgal
p5643
aVunderstand
p5644
aVgag
p5645
aVchatter
p5646
aVcruelti
p5647
aVpolitician
p5648
aVtrinitarian
p5649
aVbill
p5650
aVholocaust
p5651
aVkodak
p5652
aV256k
p5653
aVfun
p5654
aVanonym
p5655
aVtrakker
p5656
aVeveryon
p5657
aVlarger
p5658
aVcentr
p5659
aVdavidian
p5660
aVitself
p5661
aVxtra
p5662
aVepiscop
p5663
aV0120
p5664
aVbutcher
p5665
aVincarn
p5666
aVitali
p5667
aVlenient
p5668
aVmoment
p5669
aVluxuri
p5670
aVtask
p5671
aVampl
p5672
aVpoweruppowerdown
p5673
aVentri
p5674
aVchemistri
p5675
aVsacco
p5676
aVcraven
p5677
aVnoncommun
p5678
aVy
p5679
aVspend
p5680
aVhowl
p5681
aVexplan
p5682
aVopenli
p5683
aVvanheyningen
p5684
aVpaperpaid
p5685
aVobscur
p5686
aVmacedonian
p5687
aVshape
p5688
aVeverex
p5689
aVdepriv
p5690
aVcut
p5691
aVcup
p5692
aVpersuad
p5693
aVforbid
p5694
aVrgb
p5695
aVnonhardwar
p5696
aVsnap
p5697
aVeaster
p5698
aVapp
p5699
aVhater
p5700
aVbio
p5701
aVtrueli
p5702
aVbig
p5703
aVbid
p5704
aVbia
p5705
aVjudgement
p5706
aVbiz
p5707
aVbit
p5708
aVcoverup
p5709
aVperipher
p5710
aVknock
p5711
aVusercontribut
p5712
aVsequit
p5713
aVsemd
p5714
aVibmcompat
p5715
aVflux
p5716
aVprincip
p5717
aV1412
p5718
aVbrenn
p5719
aVoften
p5720
aVlastest
p5721
aVback
p5722
aVimpeach
p5723
aVah
p5724
aVstrongest
p5725
aVphd85ukackeeleseq1
p5726
aVinsur
p5727
aVbrent
p5728
aVflamste
p5729
aVpex
p5730
aVculprit
p5731
aVconnectix
p5732
aVper
p5733
aVpem
p5734
aVmathemat
p5735
aVlarg
p5736
aVexager
p5737
aVreproduc
p5738
aVsaab
p5739
aVquaddens
p5740
aVedinboro
p5741
aVpatient
p5742
aV300
p5743
aV301
p5744
aV302
p5745
aVyearwood
p5746
aVfed
p5747
aVencyclopaed
p5748
aVmishna
p5749
aVpatienc
p5750
aVoem
p5751
aVusc
p5752
aVimpos
p5753
aVinetray
p5754
aVsnoop
p5755
aVconstraint
p5756
aVuart
p5757
aVpcbase
p5758
aVnongod
p5759
aVdisclosur
p5760
aVgraywork
p5761
aVpertin
p5762
aVillmann
p5763
aVpredat
p5764
aVzinaida
p5765
aVtiff
p5766
aVmyk80
p5767
aVsteven
p5768
aVlesson
p5769
aVdelliottdigexcom
p5770
aVnsu
p5771
aVinclus
p5772
aVontario
p5773
aVfictiti
p5774
aVseptuagint
p5775
aVtigger
p5776
aVinclud
p5777
aVrkummerphillipeduau
p5778
aVforward
p5779
aVzonkercmuedu
p5780
aVmultilevel
p5781
aVswitchboard
p5782
aVisra
p5783
aVjohnnessiemccacuk
p5784
aVpositionadjust
p5785
aVplanet
p5786
aVfpuintens
p5787
aVcurv
p5788
aVcypriot
p5789
aVmetal
p5790
aVmckinnon
p5791
aVcure
p5792
aVcview
p5793
aVprevail
p5794
aV3300sl
p5795
aV4dx33v
p5796
aVansel
p5797
aVtheyll
p5798
aVcrypt
p5799
aVsequenti
p5800
aVyigal
p5801
aVrs6000
p5802
aVxroach
p5803
aVlend
p5804
aVbenchmark
p5805
aVagronomyuiuc
p5806
aVximenez
p5807
aValwin
p5808
aVdeserv
p5809
aV2000
p5810
aV2004
p5811
aVlifeandor
p5812
aVtechnologyand
p5813
aVtube
p5814
aVjupit
p5815
aVjason
p5816
aViraqi
p5817
aVqueri
p5818
aVwordperfect
p5819
aVsudaan
p5820
aVellips
p5821
aVbait
p5822
aVvcpicompat
p5823
aVliterari
p5824
aVprivat
p5825
aVsensit
p5826
aVelsewher
p5827
aVbecau
p5828
aValto
p5829
aVbecam
p5830
aVnoop
p5831
aVfatal
p5832
aVstereoscop
p5833
aVdisclos
p5834
aVvlb
p5835
aVmous
p5836
aVbelessedbygod
p5837
aVvolum
p5838
aVuntouch
p5839
aVmizzou1missouriedu
p5840
aVjoel
p5841
aVshock
p5842
aVgeograph
p5843
aVmisspel
p5844
aVhavent
p5845
aVintegra
p5846
aVfortun
p5847
aVcrow
p5848
aVmiscegen
p5849
aVcopenhagen
p5850
aVappend
p5851
aV3x
p5852
aVbaerga
p5853
aVnestoriu
p5854
aVresembl
p5855
aVhan
p5856
aVaccess
p5857
aVimpuls
p5858
aV3d
p5859
aV449
p5860
aVsl1sl2
p5861
aVbodi
p5862
aVintercept
p5863
aVxnew
p5864
aVtremor
p5865
aVbode
p5866
aVsinc
p5867
aVremark
p5868
aV38
p5869
aVtalent
p5870
aVcern
p5871
aV32
p5872
aV31
p5873
aV30
p5874
aV37
p5875
aV36
p5876
aV35
p5877
aV34
p5878
aVresurrect
p5879
aVimplement
p5880
aVmid1960
p5881
aVoddbal
p5882
aVprogrammi
p5883
aVunquest
p5884
aVfoundat
p5885
aVscandal
p5886
aVmultitask
p5887
aVsermon
p5888
aVmobadan
p5889
aV4516644
p5890
aVseamless
p5891
aVagkneuralhampshireedu
p5892
aVpartent
p5893
aVadvoc
p5894
aVchu
p5895
aVbutler
p5896
aVdraperumccumichedu
p5897
aVtechreportslarcnasagov
p5898
aVautior
p5899
aVpfuetzner
p5900
aViie
p5901
aViig
p5902
aVtrain
p5903
aViii
p5904
aVaccount
p5905
aVocr
p5906
aVf
p5907
aVtunnel
p5908
aVuncorrobor
p5909
aVtag
p5910
aVobvious
p5911
aVcondescend
p5912
aVdidnt
p5913
aValiv
p5914
aVemploye
p5915
aVprochoic
p5916
aV750000
p5917
aVonlin
p5918
aVinfantri
p5919
aVbhutaninstmedtroniccom
p5920
aVcontempt
p5921
aVibmpc
p5922
aVgcc
p5923
aVdemocraci
p5924
aVxtwindowcanva
p5925
aVdd
p5926
aVstock
p5927
aVpikochemute
p5928
aVwoodstov
p5929
aVphilosophi
p5930
aVphysic
p5931
aVmaybeespn
p5932
aVbind
p5933
aVguru
p5934
aVcorrespond
p5935
aVlikud
p5936
aVchevrolet
p5937
aVminivac
p5938
aVmainfram
p5939
aVdx399
p5940
aVdx
p5941
aVsc428
p5942
aVcrosstalk
p5943
aVgalaxi
p5944
aVblacksybasecom
p5945
aVbunch
p5946
aVld
p5947
aVlc
p5948
aVla
p5949
aVwellmind
p5950
aVlo
p5951
aVlabor
p5952
aVwilling
p5953
aVdp
p5954
aVgreater
p5955
aVtoppl
p5956
aVdan
p5957
aVspell
p5958
aVtoshiba
p5959
aVpseudocolor
p5960
aVmention
p5961
aVgamemisconduct
p5962
aVoverkil
p5963
aVbyteord
p5964
aVday
p5965
aVopenlook
p5966
aVcontus
p5967
aVastronom
p5968
aVchri
p5969
aVfeldman
p5970
aVelan
p5971
aVtranni
p5972
aVintellig
p5973
aVillegitim
p5974
aVthirdlin
p5975
aVsexual
p5976
aVmatt
p5977
aV513
p5978
aVdefend
p5979
aVret
p5980
aVrepress
p5981
aVcwi
p5982
aVrei
p5983
aVren
p5984
aVrel
p5985
aVrem
p5986
aVstun
p5987
aVdefens
p5988
aVred
p5989
aV411
p5990
aVinsid
p5991
aVfrank
p5992
aVinvad
p5993
aVstandalon
p5994
aVnntppostinghost
p5995
aVreleas
p5996
aVpcxremot
p5997
aVbleed
p5998
aV2830
p5999
aVb752
p6000
aVmidi
p6001
aVtryth
p6002
aVnohitt
p6003
aVpresid
p6004
aVretain
p6005
aVretail
p6006
aVstuck
p6007
aVsouth
p6008
aVinfantryman
p6009
aVattent
p6010
aVhaganah
p6011
aVfranki
p6012
aVphiladelphia
p6013
aVsharewar
p6014
aVpgp
p6015
aVfacil
p6016
aVancient
p6017
aVvulgar
p6018
aVprecarterphon
p6019
aVsadli
p6020
aVbiochem
p6021
aVnelson
p6022
aVaccessbu
p6023
aVgear
p6024
aVknowleg
p6025
aVmigrain
p6026
aVnobodi
p6027
aVslack
p6028
aVmorph
p6029
aVembodi
p6030
aVballard
p6031
aVstructur
p6032
aVcharact
p6033
aVsweden
p6034
aVinstitutt
p6035
aVstojadinov
p6036
aVplaintext
p6037
aV38620mhz
p6038
aVmilion
p6039
aVmax641
p6040
aVhave
p6041
aVmoondog
p6042
aVmil
p6043
aVmio
p6044
aVgd5426
p6045
aVmix
p6046
aVbuiltin
p6047
aViivx
p6048
aVmit
p6049
aVunless
p6050
aVpreliminari
p6051
aVsfu
p6052
aVmllaiojscnasagov
p6053
aVfullcolor
p6054
aVeight
p6055
aVlogitech
p6056
aVsedan
p6057
aVgather
p6058
aVhardcod
p6059
aVdotprint
p6060
aVkeyescrow
p6061
aVprobulfapplelinkapplecom
p6062
aVoccasion
p6063
aVhardcor
p6064
aVtext
p6065
aVu129008sparc20ncuedutw
p6066
aVseq1cckeeleacuk
p6067
aVtraitor
p6068
aVempir
p6069
aVtexa
p6070
aVmurashieamailbeckmancom
p6071
aVbicycl
p6072
aVcategor
p6073
aVmadman
p6074
aVprolong
p6075
aVsatan
p6076
aVcommunist
p6077
aVinferior
p6078
aVossifi
p6079
aVdevnul
p6080
aVdualinlin
p6081
aVbeat
p6082
aVliddelow
p6083
aVabstc
p6084
aVdisagre
p6085
aVbear
p6086
aVbeal
p6087
aVbeam
p6088
aVbean
p6089
aVlightwav
p6090
aVdrawn
p6091
aVincreas
p6092
aVelit
p6093
aVorgan
p6094
aVzamboni
p6095
aVintegr
p6096
aVhandwritten
p6097
aVgibson
p6098
aVconform
p6099
aVshrikeundacza
p6100
aV135
p6101
aVamericanprotest
p6102
aVshowdown
p6103
aVwe
p6104
aVapolog
p6105
aVabfdefghiijklmmnohpp
p6106
aVreform
p6107
aVpattern
p6108
aV106112
p6109
aVprogress
p6110
aVbrune
p6111
aVrcampbelweejordyphysicsmunca
p6112
aVarmenia
p6113
aVxfilesearchpath
p6114
aVvrm
p6115
aVantineoplaston
p6116
aVequal
p6117
aVhostname10
p6118
aVinstanc
p6119
aVequat
p6120
aVswim
p6121
aVswallow
p6122
aVcomment
p6123
aVskarda
p6124
aVyuppi
p6125
aVdukebarmcdukeedu
p6126
aVguidelin
p6127
aVaccolad
p6128
aVstrokewrit
p6129
aVvend
p6130
aVarguement
p6131
aVfaculteit
p6132
aVattende
p6133
aVswimmer
p6134
aVcopier
p6135
aVdarren
p6136
aVgaze
p6137
aVelectr
p6138
aVrump
p6139
aVupcom
p6140
aVaustralasian
p6141
aVhostiam
p6142
aVal
p6143
aVassert
p6144
aVbull
p6145
aVan
p6146
aVoverwhelmingli
p6147
aVmamishev
p6148
aVmulti
p6149
aVcypher
p6150
aVimplementaion
p6151
aVplain
p6152
aVrectangular
p6153
aVbosniaherzegovina
p6154
aVnineveh
p6155
aVivica
p6156
aVscreendriv
p6157
aVdivulg
p6158
aV3864486
p6159
aVchaotic
p6160
aVav
p6161
aVcharmap
p6162
aVquicktrak
p6163
aVsubstanti
p6164
aVviewyou
p6165
aVpartner
p6166
aVinspector
p6167
aVportray
p6168
aVprogerman
p6169
aVjapanes
p6170
aVpractici
p6171
aVsmdipeavey
p6172
aVfabl
p6173
aV1meg
p6174
aVtighten
p6175
aVhostnam
p6176
aVselfish
p6177
aVion
p6178
aVcanva
p6179
aVcenter
p6180
aVneural
p6181
aVexceedw
p6182
aVweapon
p6183
aVseth
p6184
aVseti
p6185
aVantonio
p6186
aVthought
p6187
aVsun3eeamelincoat
p6188
aVchoos
p6189
aVairbreath
p6190
aVsoviet
p6191
aVgs650
p6192
aVlatest
p6193
aVunarm
p6194
aVconferenc
p6195
aVlockhe
p6196
aVclinic
p6197
aVinterim
p6198
aVsurpass
p6199
aVshuttl
p6200
aVtone
p6201
aVsystemat
p6202
aVkampf
p6203
aVonward
p6204
aVlake
p6205
aVadd
p6206
aVadb
p6207
aVadc
p6208
aVada
p6209
aVadl
p6210
aVmatch
p6211
aV286
p6212
aVroyalti
p6213
aV_other_
p6214
aVfyi
p6215
aVrealiz
p6216
aVfroever
p6217
aVgmt
p6218
aVtranspond
p6219
aVnemesi
p6220
aVinsert
p6221
aVbussard
p6222
aVlike
p6223
aVsuccess
p6224
aVstealth
p6225
aVdoctrin
p6226
aVsolomontechnetsg
p6227
aVjournalist
p6228
aVporou
p6229
aVconro
p6230
aVsoft
p6231
aVitalian
p6232
aVpropel
p6233
aVhostboomboxmicroumnedu
p6234
aVhair
p6235
aVconvey
p6236
aVconvex
p6237
aVproper
p6238
aVmihir
p6239
aVest
p6240
aVesp
p6241
aVesg
p6242
aVesa
p6243
aVhappend
p6244
aVralf
p6245
aV6300
p6246
aV525ix
p6247
aVdcd
p6248
aV8593764
p6249
aV204256
p6250
aVhost
p6251
aVdegener
p6252
aVdcx
p6253
aV486dx33
p6254
aVdct
p6255
aVxrpc
p6256
aVpanel
p6257
aVfacist
p6258
aVabout
p6259
aVactual
p6260
aVbionet
p6261
aVjustic
p6262
aVstatement
p6263
aVfals
p6264
aVdiscard
p6265
aVpl11
p6266
aVtome
p6267
aVsbir
p6268
aVamigancupportalcom
p6269
aVcompsourcesmisc
p6270
aVdesper
p6271
aVchronic
p6272
aVplayoff
p6273
aVdoesnt
p6274
aVleverag
p6275
aV1986
p6276
aVprintmonitor
p6277
aV1985
p6278
aV1982
p6279
aVancedot
p6280
aVwaco
p6281
aVpictur
p6282
aVsnmp
p6283
aV1988
p6284
aV1989
p6285
aVutopian
p6286
aVhassl
p6287
aV480
p6288
aVglobe
p6289
aVstudentsw
p6290
aVrcc
p6291
aVbuy
p6292
aVunexpect
p6293
aVbrand
p6294
aVnoem
p6295
aVbut
p6296
aV567
p6297
aVmicrocouri
p6298
aVbui
p6299
aVdx3150
p6300
aVinlin
p6301
aVrachtin
p6302
aVbug
p6303
aVwise
p6304
aV1189
p6305
aVseiz
p6306
aV5426
p6307
aVrc2
p6308
aVcapriccioso
p6309
aVtrapezoid
p6310
aVplutonium
p6311
aVaheadv5000
p6312
aVpin
p6313
aV178068
p6314
aVpia
p6315
aVhandset
p6316
aVpic
p6317
aVpig
p6318
aVcircul
p6319
aV83
p6320
aVsemiauto
p6321
aVpit
p6322
aVcampus
p6323
aVprobabl
p6324
aVautomot
p6325
aVbj200
p6326
aV48
p6327
aV49
p6328
aV46
p6329
aV47
p6330
aVguidanc
p6331
aV45
p6332
aV42
p6333
aVdetail
p6334
aVvirtual
p6335
aV41
p6336
aVpsuedocolor
p6337
aV85
p6338
aVtrickl
p6339
aVhighplac
p6340
aVlogicclarksonedu
p6341
aVastronomi
p6342
aVvcd
p6343
aVafhetzelnetcomcom
p6344
aVbasketbal
p6345
aVsunpic
p6346
aV4x
p6347
aVincompet
p6348
aVwuarchiv
p6349
aVpeopleaccord
p6350
aV4m
p6351
aVlaunchpaduncedu
p6352
aVyell
p6353
aV455khz
p6354
aVhatr
p6355
aVpoorli
p6356
aVsleep
p6357
aVnmea
p6358
aVinard
p6359
aVhate
p6360
aVbusmast
p6361
aVttyl
p6362
aVconcret
p6363
aVunder
p6364
aVregrett
p6365
aV9000730
p6366
aVeveri
p6367
aVrisk
p6368
aVbarium
p6369
aVvastli
p6370
aVrisc
p6371
aVmissionari
p6372
aVhardwar
p6373
aVquantiz
p6374
aVjack
p6375
aVdfmorganacshardingedu
p6376
aVquantit
p6377
aVnasamsfc
p6378
aVchould
p6379
aVschool
p6380
aVflashi
p6381
aVbradoptilinkcom
p6382
aVpcxtatps2
p6383
aVhuddl
p6384
aV25664
p6385
aVaiu
p6386
aVne2000
p6387
aVnewsland
p6388
aVenjoy
p6389
aVthrought
p6390
aVxbase
p6391
aVdirect
p6392
aVsnafu
p6393
aVnail
p6394
aVdowload
p6395
aVstreet
p6396
aVpn48
p6397
aVoverdr
p6398
aVblue
p6399
aV20char
p6400
aVchrist
p6401
aVworsen
p6402
aV4522547
p6403
aVintrospect
p6404
aVpoison
p6405
aVcommuniqu
p6406
aVconduct
p6407
aVsupplier
p6408
aVliberti
p6409
aV_the_lost_years_of_jesus_
p6410
aVzack
p6411
aVorthodoxi
p6412
aVobjectwindow
p6413
aVstudio
p6414
aVolwm
p6415
aVdebugg
p6416
aV4xx
p6417
aVbreadthtak
p6418
aVenrol
p6419
aVforum
p6420
aVprecid
p6421
aVanymor
p6422
aVtruecolor
p6423
aVopress
p6424
aVprecis
p6425
aVchanger
p6426
aVportabl
p6427
aVtremend
p6428
aVsignifi
p6429
aVstray
p6430
aVmaxtor
p6431
aVkaul
p6432
aVceremonypubl
p6433
aVcompgraphicsvisu
p6434
aVblockad
p6435
aVtomigcapcorg
p6436
aVdescrib
p6437
aVwould
p6438
aV1248163264128
p6439
aVoff_
p6440
aVprogay
p6441
aVadonai
p6442
aV12step
p6443
aVphone
p6444
aVvpl
p6445
aVendometriosi
p6446
aVmust
p6447
aVme
p6448
aVmd
p6449
aVmg
p6450
aVjoin
p6451
aVmc
p6452
aVmb
p6453
aVmm
p6454
aVtb
p6455
aVmo
p6456
aVlankford
p6457
aVmi
p6458
aVmk
p6459
aVx89olarte1gwwmichedu
p6460
aVmt
p6461
aV80bit
p6462
aVmp
p6463
aVms
p6464
aVmr
p6465
aV1280x1024
p6466
aVmy
p6467
aVadvocaci
p6468
aVquarrel
p6469
aVloosen
p6470
aVclutchhit
p6471
aVattract
p6472
aVend
p6473
aVconcid
p6474
aVceremoni
p6475
aVconcis
p6476
aVkeel
p6477
aVtoxic
p6478
aVgate
p6479
aVwidespread
p6480
aVktt3unixbtonacuk
p6481
aVwd90c31
p6482
aVcollaps
p6483
aVhyperson
p6484
aVmess
p6485
aVhpstcsmerosehpcom
p6486
aVmantiscouk
p6487
aVbefor
p6488
aVjudic
p6489
aVcircumscrib
p6490
aVparallel
p6491
aVb64743studentcwruedu
p6492
aVspout
p6493
aVspous
p6494
aVexclud
p6495
aVpatent
p6496
aVenviron
p6497
aVfreeshar
p6498
aVreloc
p6499
aVenter
p6500
aVomnipot
p6501
aVtheme
p6502
aVcomposit
p6503
aVeisa
p6504
aVover
p6505
aVorang
p6506
aVbecaus
p6507
aVjpeg
p6508
aVsoftwareonli
p6509
aVb63519studentcwruedu
p6510
aVlondon
p6511
aVdigest
p6512
aVpuffi
p6513
aVclh
p6514
aVdrawback
p6515
aVclx
p6516
aVpagedriven
p6517
aVcommodor
p6518
aV400
p6519
aVcomprehens
p6520
aVclv
p6521
aVlayoff
p6522
aV8175654060
p6523
aV32kb
p6524
aVrental
p6525
aVchoic
p6526
aVvictori
p6527
aVbosnia
p6528
aVodbc
p6529
aVchuck
p6530
aVundermin
p6531
aVeditedmodifi
p6532
aVmk38p73
p6533
aVeach
p6534
aVbearli
p6535
aVagress
p6536
aVprohibit
p6537
aVprocomm
p6538
aVreqir
p6539
aV8005320600
p6540
aVsaturday
p6541
aVdepress
p6542
aVnil
p6543
aVgoe
p6544
aVgod
p6545
aVlaid
p6546
aVsane
p6547
aVgot
p6548
aVgov
p6549
aVarizona
p6550
aVworthwhil
p6551
aVfree
p6552
aVfred
p6553
aVpbm
p6554
aVinoc
p6555
aVfreq
p6556
aVastroresearch
p6557
aVprecompil
p6558
aVpuzzl
p6559
aVgruschow
p6560
aVritual
p6561
aVlongterm
p6562
aVbeefedup
p6563
aVfilter
p6564
aVheck
p6565
aVprobal
p6566
aVfivehundr
p6567
aVonto
p6568
aVlvciprianiattcom
p6569
aVrang
p6570
aVnhl
p6571
aVpuck
p6572
aVcommercialpd
p6573
aVnecess
p6574
aVrestrict
p6575
aVrant
p6576
aValreadi
p6577
aVwindowmotif
p6578
aVfantast
p6579
aVprimari
p6580
aVozal
p6581
aVtop
p6582
aVsubmachin
p6583
aVfiction
p6584
aVdownsiz
p6585
aVton
p6586
aVtoo
p6587
aVtom
p6588
aVmurder
p6589
aVconsol
p6590
aVkubota
p6591
aVquattro
p6592
aVtool
p6593
aVtook
p6594
aVcompressor
p6595
aVqemm386
p6596
aVincur
p6597
aVwestern
p6598
aVconserv
p6599
aVincompatib
p6600
aVlather
p6601
aVthx
p6602
aVzero
p6603
aVflame
p6604
aVexpn
p6605
aV10th
p6606
aV1975
p6607
aVlatitud
p6608
aVrag
p6609
aVcoxial
p6610
aVran
p6611
aVram
p6612
aVtaint
p6613
aVraw
p6614
aVshell
p6615
aVecosauru
p6616
aVray
p6617
aVnonjew
p6618
aV1960
p6619
aVsnow
p6620
aVsnot
p6621
aVclient
p6622
aVnetland
p6623
aVthoma
p6624
aVthoroughli
p6625
aVextravers
p6626
aVpredominantli
p6627
aVrickel
p6628
aVplenti
p6629
aVthough
p6630
aVbsp
p6631
aVdrbombaynetlinkctscom
p6632
aVpreset
p6633
aVcoil
p6634
aV16bit
p6635
aVkelbadjar
p6636
aVcathol
p6637
aVflow
p6638
aVlyle
p6639
aVdeclar
p6640
aVfreewar
p6641
aVyank
p6642
aV52win
p6643
aVfade
p6644
aV78727
p6645
aVrandom
p6646
aVradiu
p6647
aVdupe
p6648
aVsanctuari
p6649
aVradio
p6650
aVradic
p6651
aVearth
p6652
aVbail
p6653
aVbaio
p6654
aVabsolut
p6655
aVapost
p6656
aVspite
p6657
aVconfigur
p6658
aVminnesota
p6659
aVgunsrad
p6660
aV540
p6661
aVspindoctor
p6662
aVdisgust
p6663
aVhpux
p6664
aVtammi
p6665
aVwatch
p6666
aVfluid
p6667
aV550a
p6668
aVgeek
p6669
aVcongruent
p6670
aVjcl
p6671
aVreport
p6672
aVmearli
p6673
aVdeskjet
p6674
aVspokesperson
p6675
aVwinqvtnet
p6676
aVskipjack
p6677
aVtwice
p6678
aVdgree
p6679
aVkasprzak
p6680
aVmotherboard
p6681
aVparol
p6682
aVricher
p6683
aVresist
p6684
aVkeenan
p6685
aVcorrupt
p6686
aVexpertis
p6687
aVafterward
p6688
aVsetasid
p6689
aVdatabas
p6690
aVintrench
p6691
aVdiscoveri
p6692
aVmud
p6693
aVoutstand
p6694
aVfinger
p6695
aVapproach
p6696
aVpookiecrdgecom
p6697
aV360
p6698
aV361
p6699
aVblaster
p6700
aVlobbyist
p6701
aVweak
p6702
aVcontort
p6703
aVwear
p6704
aVnews
p6705
aVtcpip
p6706
aVprotect
p6707
aVacoust
p6708
aVirregular
p6709
aVoppinion
p6710
aVfault
p6711
aVmillionalso
p6712
aVmyer
p6713
aVroyinternetbr4416aamericanedupcspoor
p6714
aVgphig
p6715
aVjupitercseutoledoedu
p6716
aVtomhmetricscom
p6717
aVrecondit
p6718
aVsullivan
p6719
aVkaren
p6720
aVdougla
p6721
aVtrust
p6722
aVtruss
p6723
aV2202
p6724
aVbeed
p6725
aV0183
p6726
aVbeen
p6727
aVbeep
p6728
aVaccumul
p6729
aV4bit
p6730
aVquickli
p6731
aVsprite
p6732
aValtoca
p6733
aVxxx
p6734
aVuncommon
p6735
aVcraft
p6736
aVcatch
p6737
aVcracker
p6738
aVnoticebl
p6739
aVdept
p6740
aVnolong
p6741
aV_no_
p6742
aVwfw
p6743
aVpointpoint
p6744
aVsvr4
p6745
aVsuggest
p6746
aVgregg
p6747
aVwound
p6748
aVcomplex
p6749
aVopenwindow
p6750
aVcomplet
p6751
aVleftist
p6752
aVxxxdate
p6753
aVsystemflinkdiscon
p6754
aVpick
p6755
aVbuyback
p6756
aVdatri
p6757
aVsuburb
p6758
aVhammercdchpcom
p6759
aVtil311
p6760
aVwelder
p6761
aVlcd
p6762
aV3min
p6763
aVeveryth
p6764
aVlaptop
p6765
aVenlighten
p6766
aVa0000affff
p6767
aV15digit
p6768
aVeli
p6769
aV5x
p6770
aVexpos
p6771
aVelm
p6772
aVbrigham
p6773
aVrecsportsidiot
p6774
aVinadmiss
p6775
aVlawrenc
p6776
aV5e
p6777
aVels
p6778
aVhorsepow
p6779
aVnuclearpow
p6780
aVgave
p6781
aVcramer
p6782
aVi860
p6783
aVsussex
p6784
aVdonat
p6785
aVmitsumi
p6786
aVrumor
p6787
aVapart
p6788
aVamok
p6789
aV59
p6790
aV58
p6791
aVgift
p6792
aVarbitrari
p6793
aV55
p6794
aVcontradict
p6795
aV57
p6796
aV56
p6797
aV51
p6798
aV50
p6799
aV53
p6800
aV52
p6801
aVserbian
p6802
aVdishonest
p6803
aVcompuadd
p6804
aVmalaysia
p6805
aVcontagiosem
p6806
aVdopenwin
p6807
aVanalysisnutritionist
p6808
aVfluxisralaskaedu
p6809
aVcooper
p6810
aVzionist
p6811
aVicf
p6812
aVice
p6813
aVkeyseach
p6814
aV6689k
p6815
aVcnd
p6816
aVnewsprint
p6817
aV421
p6818
aVconvict
p6819
aV1394
p6820
aVcord
p6821
aVwho
p6822
aVnight
p6823
aVdiscount
p6824
aVcorp
p6825
aVhst
p6826
aVeye
p6827
aVerotica
p6828
aVschulman
p6829
aVplug
p6830
aV9098614048
p6831
aVocclus
p6832
aVhafermanicaenuiowaedu
p6833
aVchoke
p6834
aVsurround
p6835
aVunfortun
p6836
aVhallamzeus02desyd
p6837
aVproduc
p6838
aVbatf
p6839
aVcivic
p6840
aVcivil
p6841
aVencod
p6842
aVppm
p6843
aV9130037golumrivcsueduau
p6844
aVussr
p6845
aVahv
p6846
aVstorag
p6847
aVgit
p6848
aVpsychot
p6849
aVfrustrat
p6850
aVhypermedia
p6851
aVjeffrey
p6852
aVvirgin
p6853
aVreli
p6854
aVfought
p6855
aVgia
p6856
aVhead
p6857
aVamateur
p6858
aVsatisfactorili
p6859
aVunconvinc
p6860
aVsubsidis
p6861
aVuuuu
p6862
aVheat
p6863
aVhear
p6864
aVpercentag
p6865
aVdevelpo
p6866
aVxdec
p6867
aVsamplevis
p6868
aVbootup
p6869
aVfilzek
p6870
aVsapouna
p6871
aVbargain
p6872
aVhicksvil
p6873
aVeponaphysicsucgi
p6874
aVcamaro
p6875
aVlatch
p6876
aVtelecomm
p6877
aVdecrypt
p6878
aVwhereabout
p6879
aVjbulfkpccom
p6880
aVhama
p6881
aVcheck
p6882
aVassembl
p6883
aVnj
p6884
aV499c
p6885
aVnn
p6886
aVno
p6887
aVpisga
p6888
aVtip
p6889
aVnf
p6890
aVjunta
p6891
aVny
p6892
aVtin
p6893
aVtie
p6894
aVparsli
p6895
aVtechi
p6896
aVtia
p6897
aVpseudonym
p6898
aVtoal
p6899
aV9600
p6900
aVcleric
p6901
aVphoenix
p6902
aVparametricvari
p6903
aVscolnick
p6904
aVhormon
p6905
aVrpiwss5lqm
p6906
aVconsid
p6907
aVforcibl
p6908
aVlonger
p6909
aVbullet
p6910
aVvietnam
p6911
aVserious
p6912
aVbackward
p6913
aVcoach
p6914
aVrom
p6915
aVron
p6916
aVrob
p6917
aVroc
p6918
aVrod
p6919
aVfocus
p6920
aVsignific
p6921
aVrot
p6922
aVrow
p6923
aV1940
p6924
aVreadabl
p6925
aVenvironment
p6926
aVvocod
p6927
aVsing
p6928
aVpersecut
p6929
aVhenderson
p6930
aVswingarm
p6931
aVsourc
p6932
aVinfanticid
p6933
aVtriangul
p6934
aVtrident
p6935
aVanyway
p6936
aVfeasibl
p6937
aVartwork
p6938
aVcook
p6939
aVsloppi
p6940
aVlevel
p6941
aVvalentin
p6942
aVbrother
p6943
aVencroach
p6944
aVquick
p6945
aVarchibishop
p6946
aVdippold
p6947
aVslower
p6948
aVsayr
p6949
aVporn
p6950
aVtrend
p6951
aVbaku
p6952
aVbj10e
p6953
aVinland
p6954
aVcrashland
p6955
aVport
p6956
aVrepli
p6957
aV64bit
p6958
aVtheist
p6959
aV524
p6960
aV525
p6961
aVprobulfinformatiktumuenchend
p6962
aVtheism
p6963
aVgoer
p6964
aVrayshad
p6965
aVmorgan
p6966
aVwater
p6967
aVq2
p6968
aVtransffer
p6969
aVshove
p6970
aVdublin
p6971
aVkrusad
p6972
aVchristchurch
p6973
aVhealthi
p6974
aVweird
p6975
aVguilti
p6976
aVhumour
p6977
aVforev
p6978
aVvisibl
p6979
aVprompt
p6980
aVwholesal
p6981
aVandi
p6982
aVprojector
p6983
aVmemori
p6984
aVek1dk2ek1x
p6985
aVpercept
p6986
aVmsg
p6987
aVmsf
p6988
aVaustralian
p6989
aVsuicid
p6990
aVtoday
p6991
aVandr
p6992
aVchapter
p6993
aVcapit
p6994
aVriot
p6995
aVafrican
p6996
aVemiss
p6997
aVmailgwncslnistgov
p6998
aVtimespeeddist
p6999
aVkerri
p7000
aVprototyp
p7001
aVventur
p7002
aVreligi
p7003
aVwestesc60xqf59rnetcomcom
p7004
aVjudg
p7005
aVinadequ
p7006
aVpurpos
p7007
aVlaughter
p7008
aVslightest
p7009
aVstream
p7010
aVselfmodifi
p7011
aVcritic
p7012
aVbeethovencscolostateedu
p7013
aVswedish
p7014
aV1
p7015
aValway
p7016
aVvital
p7017
aVanyon
p7018
aVfourth
p7019
aVfascist
p7020
aVclone
p7021
aV4th
p7022
aVascertian
p7023
aVhomestartupp
p7024
aVpractic
p7025
aVmgr
p7026
aVinform
p7027
aVpreced
p7028
aVfulltim
p7029
aVstupidli
p7030
aVacceleromet
p7031
aVsuperscript
p7032
aVrefund
p7033
aVltm1
p7034
aVduke
p7035
aVaerodynam
p7036
aVmainli
p7037
aVworship
p7038
aVgti
p7039
aVplatform
p7040
aVns1c72u68h6i
p7041
aVpriesthood
p7042
aVpk115050wvnvmswvnetedu
p7043
aVsight
p7044
aVkazaknmsuedu
p7045
aVconquer
p7046
aVahl
p7047
aVanecdot
p7048
aVwagon
p7049
aVterm
p7050
aVname
p7051
aVrealist
p7052
aVtek4010
p7053
aVbats
p7054
aVters
p7055
aVindividu
p7056
aVtorch
p7057
aV2d3d
p7058
aVw100
p7059
aVpersian
p7060
aVdistributor
p7061
aVdispos
p7062
aVhacker
p7063
aVprofit
p7064
aVoklahoma
p7065
aVonewrit
p7066
aVparallax
p7067
aVkent
p7068
aVmulitmedia
p7069
aVshe
p7070
aVtelepathi
p7071
aVaisun3aiugaedu
p7072
aVcontain
p7073
aVflyer
p7074
aVtheori
p7075
aVtuner
p7076
aVoctopu
p7077
aVsoundblast
p7078
aVprescrib
p7079
aVyup
p7080
aVrefus
p7081
aV640x480x32768
p7082
aVturn
p7083
aVplace
p7084
aVswine
p7085
aVture
p7086
aVimposs
p7087
aVammo
p7088
aV1000
p7089
aVorigin
p7090
aVdesk240
p7091
aVunrecogn
p7092
aViam
p7093
aVgiven
p7094
aVteenag
p7095
aVgif
p7096
aVhardcopi
p7097
aVchoicemak
p7098
aVaccessdata
p7099
aVanderson
p7100
aViac
p7101
aVhqsequsoraclecom
p7102
aVgeovern
p7103
aVcircl
p7104
aVwhite
p7105
aVscicrypt
p7106
aValaa
p7107
aVhub
p7108
aVseason
p7109
aVcopi
p7110
aVhuh
p7111
aValan
p7112
aVenclos
p7113
aVmilton
p7114
aVserv
p7115
aVwide
p7116
aV_____________________________________________________________
p7117
aVr
p7118
aVserb
p7119
aVposit
p7120
aVseri
p7121
aVand
p7122
aVcdtrocketswstratuscom
p7123
aVanc
p7124
aVpro
p7125
aVpri
p7126
aVani
p7127
aVsubroutin
p7128
aVmater
p7129
aVrelativli
p7130
aVwealthbuild
p7131
aVmeasur
p7132
aVmarathon
p7133
aVcharonctociticorpcom
p7134
aVtechniqu
p7135
aVmoreov
p7136
aVideal
p7137
aV6138031326
p7138
aVmysteri
p7139
aVscanlin
p7140
aVsurg
p7141
aVsure
p7142
aVvolvovitz
p7143
aVrealtim
p7144
aVprochristian
p7145
aV800x600
p7146
aValsoget
p7147
aVmicro
p7148
aVfreshman
p7149
aVlibrarian
p7150
aVicon
p7151
aVlatex
p7152
aVwscrawl
p7153
aVlater
p7154
aV8mb
p7155
aVquantiti
p7156
aVgenocid
p7157
aVsenior
p7158
aVzoom
p7159
aVrecipi
p7160
aVmarxhausen
p7161
aVcheat
p7162
aVcheap
p7163
aVunjustifi
p7164
aVtroy
p7165
aVpermiss
p7166
aVhack
p7167
aVdoublecheck
p7168
aVpavlidi
p7169
aVfavor
p7170
aVstate
p7171
aVcrime
p7172
aVgulp
p7173
aVwood
p7174
aVanalyz
p7175
aVossd
p7176
aVanalys
p7177
aVed0118pedptofordcom
p7178
aV486dx50
p7179
aVviewpoint
p7180
aVmormon
p7181
aViisi
p7182
aVlighter
p7183
aVflavour
p7184
aVssf
p7185
aVreveal
p7186
aValuminum
p7187
aVoutperform
p7188
aVelia
p7189
aVdramat
p7190
aVintrins
p7191
aV2410
p7192
aVdough
p7193
aVstrubl
p7194
aVcollegu
p7195
aVcom1
p7196
aV80column
p7197
aVmaximum
p7198
aVchevel
p7199
aV1923
p7200
aV3270
p7201
aVmtu
p7202
aVexam
p7203
aVstephanopoulo
p7204
aVdetect
p7205
aVsehari
p7206
aVreview
p7207
aVfrankligheliumgasuugarizonaedu
p7208
aVneopaint
p7209
aVcomp
p7210
aVacheiv
p7211
aVpoxi
p7212
aVcycl
p7213
aVcomm
p7214
aVunauthoris
p7215
aVcome
p7216
aV15222280
p7217
aVallsacr
p7218
aVreaction
p7219
aVregion
p7220
aVbeckman
p7221
aVquiet
p7222
aVcontract
p7223
aVretir
p7224
aVdariu
p7225
aVstateoftheart
p7226
aVntsc
p7227
aVati18800
p7228
aVjammer
p7229
aVpov
p7230
aVinspir
p7231
aVmittleman
p7232
aVperiod
p7233
aVinsist
p7234
aVduti
p7235
aV61
p7236
aVpole
p7237
aVsecondbest
p7238
aV65
p7239
aV66
p7240
aVpod
p7241
aVpoll
p7242
aVcoloni
p7243
aVturkey
p7244
aVcoupl
p7245
aVhardli
p7246
aV7fff
p7247
aVaddit
p7248
aV500
p7249
aVfollowup
p7250
aV6a
p7251
aVxgrabserverdisplay
p7252
aVindirect
p7253
aVv28
p7254
aVandrew
p7255
aVworkspac
p7256
aVhernia
p7257
aVrummelplatzunimannheimd
p7258
aVimpati
p7259
aVspirit
p7260
aVpilot
p7261
aVcase
p7262
aVmyself
p7263
aVamend
p7264
aVmount
p7265
aVcash
p7266
aVcast
p7267
aVjames_jim_fraziercupportalcom
p7268
aVmound
p7269
aVhpmpec3ccuphpcom
p7270
aVgxong
p7271
aVanytim
p7272
aVmacbas
p7273
aVleadoff
p7274
aVvesa
p7275
aVhelmet
p7276
aVacess
p7277
aVauthor
p7278
aVbowl
p7279
aVtrip
p7280
aVecclesiolog
p7281
aVdanmckinnoncanremcom
p7282
aVweek
p7283
aVscreenshot
p7284
aVstatut
p7285
aVkelvin
p7286
aVconfidenti
p7287
aVdriver
p7288
aVmeasleslik
p7289
aVcampbel
p7290
aVbeleiv
p7291
aVvowel
p7292
aVmoder
p7293
aVmvs104psuvmpsuedu
p7294
aVreadsdisplaysmanipul
p7295
aVmodex
p7296
aVjustifi
p7297
aVwithout
p7298
aVna
p7299
aVmodel
p7300
aVmodem
p7301
aVsatir
p7302
aVheavierthanair
p7303
aVviolenc
p7304
aVbockamphphalle3ainformatiktumuenchend
p7305
aVwhen
p7306
aVviolent
p7307
aVkill
p7308
aVreinnerv
p7309
aVithaca
p7310
aVblow
p7311
aVmosfet
p7312
aVstrikeout
p7313
aVhint
p7314
aVexcept
p7315
aVcomplain
p7316
aVnotori
p7317
aVvulner
p7318
aVdisrupt
p7319
aVribcsclivacuk
p7320
aV_deltree_
p7321
aVvirginia
p7322
aV199293
p7323
aVfibromyalgia
p7324
aVseventiesi
p7325
aVnt
p7326
aVnissan
p7327
aVbracelet
p7328
aVpatricu
p7329
aVrollov
p7330
aVnode
p7331
aVliturg
p7332
aVswitchset
p7333
aVnewsgroupstyp
p7334
aVserval1993apr2015140512480
p7335
aVfatwa
p7336
aVintact
p7337
aVfanat
p7338
aV2d
p7339
aVkjenksgothamcityjscnasagov
p7340
aVaust
p7341
aVeleanor
p7342
aVprovideo
p7343
aVslick
p7344
aVlegal
p7345
aVmoon
p7346
aVcomplic
p7347
aVfreed
p7348
aVimmun
p7349
aV2600
p7350
aVgarbag
p7351
aVslaughter
p7352
aVxannounceexpolcsmitedu
p7353
aV107h34
p7354
aV_
p7355
aVoo
p7356
aVon
p7357
aVjeez
p7358
aVol
p7359
aVok
p7360
aVoi
p7361
aVoh
p7362
aVjeep
p7363
aVof
p7364
aVspss
p7365
aVstane
p7366
aVstand
p7367
aVow
p7368
aVot
p7369
aVos
p7370
aVor
p7371
aVaccredit
p7372
aVtribe
p7373
aVjian
p7374
aVgari
p7375
aVdrawingarea
p7376
aV12824540
p7377
aVgarner
p7378
aVleftw
p7379
aVdispit
p7380
aVweeknight
p7381
aV20hz
p7382
aVthere
p7383
aVracism
p7384
aVyoloutkvx
p7385
aVbudg
p7386
aVhighspe
p7387
aVrulescontrol
p7388
aVstrictli
p7389
aVvalley
p7390
aVftpcicaindianaedu
p7391
aVregard
p7392
aVamongst
p7393
aV8657250
p7394
aVterrifi
p7395
aVeloqu
p7396
aVpms001pmsfordcom
p7397
aVfaster
p7398
aV1024
p7399
aVnavyrel
p7400
aVwefiiiaxionpalanpalantircom
p7401
aVgrasp
p7402
aVgrass
p7403
aVconnect
p7404
aVutzoosqmsb
p7405
aVfrighten
p7406
aVstrongli
p7407
aVbritain
p7408
aVumar
p7409
aVgoytcsclivacuk
p7410
aVgarnetmsencom
p7411
aVacer
p7412
aVhimself
p7413
aVrearrang
p7414
aVbishop
p7415
aVincorrect
p7416
aVhasnt
p7417
aVlistservmainemaineedu
p7418
aVidiot
p7419
aVpurdu
p7420
aVrosen
p7421
aVrubber
p7422
aVige
p7423
aVprotext
p7424
aV5
p7425
aVrdbm
p7426
aVrocketri
p7427
aVhatzi
p7428
aVtrash
p7429
aVneuropsycholog
p7430
aVdiscours
p7431
aVoneself
p7432
aVsymbol
p7433
aVsuperslot
p7434
aVfasten
p7435
aVstigaardmhd1moorheadmsusedu
p7436
aVcxjijaux
p7437
aV5band
p7438
aVwife
p7439
aVdirectori
p7440
aVinvest
p7441
aVrutger
p7442
aVmednewsasuvminreasuedu
p7443
aVpotenti
p7444
aVedwindlims01lercnasagov
p7445
aV640x480x256
p7446
aVall
p7447
aVdiss
p7448
aV5221904
p7449
aVlack
p7450
aVjecwatsonibmcom
p7451
aVunencod
p7452
aVala
p7453
aVuimx
p7454
aVspacecraft
p7455
aVdisc
p7456
aVabil
p7457
aVfollow
p7458
aVdisk
p7459
aVhmmm
p7460
aVnonmilitari
p7461
aVlocalhostdialixozau
p7462
aVshredder
p7463
aVinit
p7464
aVprogram
p7465
aVpainter
p7466
aVscrutini
p7467
aVneglig
p7468
aVmodemrom
p7469
aVfax
p7470
aVliter
p7471
aVsuutari
p7472
aVsong
p7473
aVfar
p7474
aVsoni
p7475
aVfaq
p7476
aVfan
p7477
aVfailur
p7478
aVticket
p7479
aVfaa
p7480
aVlist
p7481
aVbankpag
p7482
aVmatrox
p7483
aVbecasu
p7484
aVscientolog
p7485
aVtel
p7486
aVten
p7487
aVdifficulti
p7488
aVharder
p7489
aVted
p7490
aVtex
p7491
aVsophomor
p7492
aVrate
p7493
aVpressur
p7494
aV2122740646
p7495
aVwill
p7496
aVsue
p7497
aVrsadsi
p7498
aVsub
p7499
aVrsaref
p7500
aVsun
p7501
aVsum
p7502
aVbrief
p7503
aVoverload
p7504
aVversion
p7505
aVozon
p7506
aVintersect
p7507
aVdiscern
p7508
aVcircumstanci
p7509
aVthemselv
p7510
aVshouldv
p7511
aVsundayat
p7512
aVtragedi
p7513
aVbehaviour
p7514
aVpl92
p7515
aVpl91
p7516
aVthemself
p7517
aVsolari
p7518
aVberkeley
p7519
aVhightech
p7520
aVnaval
p7521
aVnhtsa
p7522
aVmagnitud
p7523
aVpposit
p7524
aVport70
p7525
aV68070
p7526
aVplonk
p7527
aVwield
p7528
aVcertainli
p7529
aVk4bnccbnewshattcom
p7530
aVautonom
p7531
aVsupport5000
p7532
aVminor
p7533
aVflat
p7534
aVisrael
p7535
aVstutter
p7536
aVhockin
p7537
aVyehuda
p7538
aVflag
p7539
aVhyperdisk
p7540
aVstick
p7541
aV20000
p7542
aVknown
p7543
aVbrownftmsuucp
p7544
aVvaluabl
p7545
aVoutlin
p7546
aVv
p7547
aVuseabl
p7548
aVlibertarian
p7549
aVcours
p7550
aVcourt
p7551
aVgoal
p7552
aVdivid
p7553
aVrather
p7554
aVnonbolt
p7555
aVdivin
p7556
aVdivis
p7557
aVshouldnt
p7558
aVokay
p7559
aVweatherbe
p7560
aValgebra
p7561
aV612
p7562
aV610
p7563
aVv09
p7564
aVreflect
p7565
aVlangley
p7566
aVcatalog
p7567
aVshort
p7568
aVnnrvm
p7569
aVcaus
p7570
aVshade
p7571
aVarmyissu
p7572
aVcopper
p7573
aVfirsthappi
p7574
aVpseudorandom
p7575
aVisnt
p7576
aVscientist
p7577
aVbytesmayb
p7578
aVislam
p7579
aV50000
p7580
aVstyle
p7581
aVblast
p7582
aVpray
p7583
aVcomputerliter
p7584
aVstephen
p7585
aVargentina
p7586
aVcool
p7587
aVsenat
p7588
aValter
p7589
aVoleo
p7590
aVibsgicom
p7591
aVreturn
p7592
aVframework
p7593
aVsomebodi
p7594
aVsanctam
p7595
aVwouldv
p7596
aVbraindead
p7597
aVtzoq
p7598
aValgerian
p7599
aVhandconvert
p7600
aVpoliceman
p7601
aVrefresh
p7602
aVdialix
p7603
aVnoelpdorg
p7604
aVsoftserv
p7605
aVcompris
p7606
aVceas
p7607
aVdisqualifi
p7608
aVweight
p7609
aVneedless
p7610
aVunilater
p7611
aVdefacto
p7612
aVexpect
p7613
aVinflict
p7614
aVindistinguish
p7615
aVcomputrac
p7616
aVps6600
p7617
aVinoutthru
p7618
aVhilt
p7619
aVnextstep
p7620
aVfootnot
p7621
aVhealth
p7622
aVhill
p7623
aVshipment
p7624
aVtactician
p7625
aVpredispos
p7626
aVfiber
p7627
aVwisconsin
p7628
aVpinstrip
p7629
aVadvanc
p7630
aVfriday
p7631
aVdiffer
p7632
aVpsize
p7633
aV4541
p7634
aVteach
p7635
aVlag
p7636
aVjew
p7637
aVthrown
p7638
aVthread
p7639
aVneurolog
p7640
aVz80base
p7641
aVperhap
p7642
aVcircuit
p7643
aVfallen
p7644
aVfeed
p7645
aVturan
p7646
aVfeel
p7647
aVfamou
p7648
aVpgppublickeysjunkboxcciastateedu
p7649
aVleast
p7650
aVpablo
p7651
aVmccandlish
p7652
aVogicse53715
p7653
aV3do
p7654
aVblueston
p7655
aVfanci
p7656
aVgpo
p7657
aVscript
p7658
aVinteract
p7659
aVtougher
p7660
aVstori
p7661
aVhangn
p7662
aVstore
p7663
aVoption
p7664
aVwellspr
p7665
aV7350
p7666
aVvowlic
p7667
aVaeronaut
p7668
aVking
p7669
aVkind
p7670
aVhoughton
p7671
aVwhenev
p7672
aVremot
p7673
aVexempt
p7674
aVxvertext
p7675
aVnguen
p7676
aV_persude_
p7677
aVdanc
p7678
aVatmospher
p7679
aVigor
p7680
aVxtest
p7681
aVdedic
p7682
aVwhistleblow
p7683
aVwilson
p7684
aVreplyto
p7685
aVsherri
p7686
aVviolat
p7687
aVbackfir
p7688
aVhopelessli
p7689
aVgrenad
p7690
aVsupercomput
p7691
aVdonor
p7692
aVicsuciedu
p7693
aVreach
p7694
aVreact
p7695
aV75
p7696
aV72
p7697
aV71
p7698
aV70
p7699
aVamaz
p7700
aVx11r3
p7701
aVx11r5
p7702
aVx11r4
p7703
aVdavidianbabbl
p7704
aVwherebi
p7705
aVrosenkranzenetdeccom
p7706
aVnotch
p7707
aVcdg
p7708
aVridicul
p7709
aVbarter
p7710
aVcdc
p7711
aVcrowcsrvuidahoedu
p7712
aVfond
p7713
aVhaferman
p7714
aVcryptorel
p7715
aVfont
p7716
aVket01
p7717
aVpenalti
p7718
aVooaood
p7719
aV_user_
p7720
aVmailbas
p7721
aVelyclcamacuk
p7722
aV520
p7723
aVssdcssdcsterlingcom
p7724
aV7000year
p7725
aVhip
p7726
aVhit
p7727
aVprocommfw
p7728
aVhiv
p7729
aVengsdsuedu
p7730
aVfinanc
p7731
aVmclaughlin
p7732
aVmfm
p7733
aVcote
p7734
aVsizabl
p7735
aVhim
p7736
aVtypetyp
p7737
aVeugen
p7738
aVstatist
p7739
aVmedicinea
p7740
aVorign
p7741
aVwrote
p7742
aVforego
p7743
aVcustommad
p7744
aVthoreddson
p7745
aVworkshift
p7746
aVfg1
p7747
aVara
p7748
aVdumb
p7749
aVare
p7750
aVdefici
p7751
aVarm
p7752
aVingl
p7753
aVdefin
p7754
aVlearnt
p7755
aViccm
p7756
aVfreshmen
p7757
aVmiamisburg
p7758
aVjasmin
p7759
aVlatin
p7760
aVbibl
p7761
aVgenet
p7762
aVsold
p7763
aVsole
p7764
aVmintakasdsuedu
p7765
aVvbrun200dll
p7766
aVsolv
p7767
aVf2c
p7768
aVsatisfi
p7769
aVc
p7770
aVoversea
p7771
aVbandit
p7772
aVroman
p7773
aVentertain
p7774
aVcontext
p7775
aVmotorcycl
p7776
aVdistress
p7777
aVcryptosystem
p7778
aVtheolog
p7779
aVderian
p7780
aVoverbor
p7781
aVtga
p7782
aVrave
p7783
aVmistak
p7784
aVperog
p7785
aVautopost
p7786
aVsimpler
p7787
aVpr
p7788
aVps
p7789
aVcircumstanti
p7790
aVduo
p7791
aVarmori
p7792
aVoverlook
p7793
aVdue
p7794
aVpb
p7795
aVwhom
p7796
aVnaiman
p7797
aVwhoi
p7798
aVpd
p7799
aVturnon
p7800
aVwhoe
p7801
aVpn
p7802
aVpo
p7803
aVhaldr
p7804
aVianfrandoms
p7805
aValgeria
p7806
aVbuck
p7807
aV21228
p7808
aVuninform
p7809
aVslideshow
p7810
aVdemand
p7811
aVstolen
p7812
aVski
p7813
aV2623a
p7814
aVbatch
p7815
aVabov
p7816
aV2100
p7817
aVculpa
p7818
aVrip
p7819
aVmach32
p7820
aVinterviewsstanfordedu
p7821
aVdemot
p7822
aVrig
p7823
aVrid
p7824
aVillinoi
p7825
aVcholer
p7826
aVgunshmmm
p7827
aVminim
p7828
aVwierd
p7829
aV9
p7830
aVkuehmann
p7831
aVhigher
p7832
aV892
p7833
aVwherea
p7834
aVexpressli
p7835
aVerikbidtunitno
p7836
aVscratchscecarletonca
p7837
aVlower
p7838
aVdiscourag
p7839
aVlannertcliorzuniduesseldorfd
p7840
aVcheek
p7841
aV_________________________________________________________
p7842
aVcheer
p7843
aVgunfir
p7844
aVphurchas
p7845
aVmacintosh
p7846
aVanybodi
p7847
aVpropos
p7848
aVendeavour
p7849
aVv6t
p7850
aVturkic
p7851
aVcollabor
p7852
aVgehret
p7853
aVturkiy
p7854
aVwinhelp
p7855
aVtablet
p7856
aVtheoret
p7857
aVcontractor
p7858
aVcomplaint
p7859
aVvendor
p7860
aVobsolet
p7861
aV676
p7862
aVconscript
p7863
aVmoodi
p7864
aVbrit
p7865
aVsvga
p7866
aVcompsecuritymisc
p7867
aV9bit
p7868
aVconfront
p7869
aVxyzzygnuaimitedu
p7870
aVgarrott
p7871
aVcollect
p7872
aVdistrust
p7873
aVadmittedli
p7874
aVpropagandist
p7875
aVyavorski
p7876
aVunderstood
p7877
aVsurpris
p7878
aVmousecom
p7879
aVaffili
p7880
aVseller
p7881
aVwaveform
p7882
aVanna
p7883
aV912976
p7884
aVburzynski
p7885
aVlose
p7886
aVwingcommand
p7887
aVkoontz
p7888
aV32gfkkhcmuvmcsvcmichedu
p7889
aVordeal
p7890
aVkruegergasuugarizonaedu
p7891
aVmilitia
p7892
aVgamma
p7893
aVee02engrlatechedu
p7894
aVmiracl
p7895
aVconquest
p7896
aVplotdoc
p7897
aVholster
p7898
aVartifici
p7899
aVlapidot
p7900
aVeducationallyenrich
p7901
aVquestion
p7902
aVfast
p7903
aVarithmet
p7904
aV38616mhz
p7905
aVfiles
p7906
aV16mb
p7907
aVabsequip
p7908
aVrun18zip
p7909
aVheartach
p7910
aVcloth
p7911
aVcrank
p7912
aVwnt
p7913
aVdelta
p7914
aVupright
p7915
aVconsist
p7916
aVcaller
p7917
aVfullscal
p7918
aVprep
p7919
aVsvenv
p7920
aVredress
p7921
aVnonusa
p7922
aVathena
p7923
aVfreak
p7924
aVralli
p7925
aVgunpoint
p7926
aVbroll
p7927
aVxstuff
p7928
aVgraham
p7929
aVstephenorchiducscedu
p7930
aVdefragg
p7931
aVhmmmmmmmmmmmmmmmmmmmmmmmmmmmmmmmmmmmmmmmmmmmmmmmm
p7932
aVgre
p7933
aVgrb
p7934
aVnice
p7935
aVvgasvga
p7936
aV_only_
p7937
aVmissil
p7938
aVpennant
p7939
aVmeaning
p7940
aVinflamm
p7941
aVdiffent
p7942
aVoccuredserum
p7943
aVvice
p7944
aVbulletin
p7945
aVmd5a
p7946
aVnasa
p7947
aVkarma
p7948
aVtextmath
p7949
aVbuffalo
p7950
aVscroll
p7951
aVpissedoff
p7952
aVnasm
p7953
aVpervers
p7954
aVunclassifi
p7955
aVminer
p7956
aV71p
p7957
aVsteve
p7958
aV013
p7959
aVedt
p7960
aVedu
p7961
aVtinpot
p7962
aVtheorist
p7963
aVsimon
p7964
aVturbocharg
p7965
aVclipart
p7966
aVitll
p7967
aVshirak
p7968
aVoutgo
p7969
aVbreach
p7970
aVdishonestcorrupt
p7971
aV30052
p7972
aVgino
p7973
aV712
p7974
aVthomasmvac23udeledu
p7975
aVdaystar
p7976
aVelectron
p7977
aVtopmagnusacsohiostateedu
p7978
aVheavyduti
p7979
aVspoof
p7980
aVrelev
p7981
aVrpk105
p7982
aVmousesyscom
p7983
aVdealt
p7984
aVscrabbl
p7985
aVsunos412
p7986
aVpleas
p7987
aVsomeday
p7988
aVsmaller
p7989
aVinreplyto
p7990
aVheadmount
p7991
aVbattl
p7992
aVlaodicea
p7993
aVcfb
p7994
aVciphertechnolog
p7995
aVeller
p7996
aVhelicopt
p7997
aVnetwid
p7998
aVfolk
p7999
aVcompat
p8000
aVcompaq
p8001
aVcompar
p8002
aVscheifler
p8003
aV19th
p8004
aVcompac
p8005
aVmidway1993apr6060213211
p8006
aVchose
p8007
aVprosecut
p8008
aVemm386
p8009
aVcal
p8010
aVwinmark
p8011
aVfilmqual
p8012
aVucssun1sdsuedu
p8013
aVtnycixcompulinkcouk
p8014
aVsurvivor
p8015
aVantiguncontrol
p8016
aVtypic
p8017
aVapr
p8018
aVappli
p8019
aVapproxim
p8020
aVvolt
p8021
aVapi
p8022
aVmotor
p8023
aVuse
p8024
aVfee
p8025
aVfrom
p8026
aVusa
p8027
aVusl
p8028
aVgerm
p8029
aVfew
p8030
aVcovington
p8031
aVinet
p8032
aVcipriani
p8033
aVsort
p8034
aVparliament
p8035
aVwargam
p8036
aVimpress
p8037
aVsore
p8038
aVcolumbu
p8039
aV1993apr2411415619354jarviscsritorontoedu
p8040
aVwomen
p8041
aVannoy
p8042
aVname_find
p8043
aVspi
p8044
aVstroke
p8045
aV8bit16bit24bit
p8046
aVsandberg
p8047
aVproof
p8048
aVtap
p8049
aVtax
p8050
aVtad
p8051
aVunopen
p8052
aVproprietari
p8053
aVscratchley
p8054
aVserial
p8055
aVtimkimbacattcitrieduau
p8056
aVrape
p8057
aVsit
p8058
aVsix
p8059
aVoccur
p8060
aVsic
p8061
aVbrian
p8062
aVtkelderebce
p8063
aVsig
p8064
aVinstead
p8065
aVvpic
p8066
aV212m
p8067
aVsin
p8068
aVinsurrect
p8069
aVtseng
p8070
aVmsdo
p8071
aVattend
p8072
aVhazard
p8073
aVmen
p8074
aVethnic
p8075
aV3702
p8076
aVethnik
p8077
aVvillag
p8078
aVhonestli
p8079
aVlight
p8080
aVinteret
p8081
aVwwiv
p8082
aVwwii
p8083
aVwillmersdorf
p8084
aVmcgill
p8085
aVpekkataipalehutfi
p8086
aVtheft
p8087
aVtyrann
p8088
aV133
p8089
aV131
p8090
aVtyrant
p8091
aVearlier
p8092
aVsuperior
p8093
aVzterm
p8094
aVnewsgroup
p8095
aVvogllibrari
p8096
aVossheedu
p8097
aVmicrooft
p8098
aVfreeman
p8099
aVcrash
p8100
aVorthodox
p8101
aV13h
p8102
aVautomat
p8103
aVsuborbit
p8104
aVrepublican
p8105
aVflee
p8106
aVsuccessor
p8107
aVedit
p8108
aVnfl
p8109
aV260046
p8110
aVwa4fib
p8111
aVtist
p8112
aVtrap
p8113
aV3240
p8114
aVtray
p8115
aVwhoughtodianacairduedu
p8116
aV88
p8117
aVgreyscal
p8118
aVfirepower
p8119
aV82
p8120
aVour
p8121
aV80
p8122
aVproclaim
p8123
aV86
p8124
aV87
p8125
aVout
p8126
aVinexperienc
p8127
aVperforma
p8128
aVsentiment
p8129
aVenemi
p8130
aVbombay
p8131
aVcategori
p8132
aVvcr
p8133
aVimpart
p8134
aVadpro
p8135
aV8k
p8136
aV8m
p8137
aVwheelbas
p8138
aVwetwar
p8139
aVyork
p8140
aVusual
p8141
aVriver
p8142
aVwaterloo
p8143
aVg
p8144
aVorganis
p8145
aVfijmacsutwentenl
p8146
aVhalfbak
p8147
aVorganiz
p8148
aVfootag
p8149
aVraymakerbcmtmcedu
p8150
aVsciamanda
p8151
aVecho
p8152
aVgalaxy00
p8153
aVinformationi
p8154
aVprioriti
p8155
aVkiller
p8156
aVunknown
p8157
aVcapac
p8158
aVtheir
p8159
aV1500
p8160
aVstephan
p8161
aVtheiv
p8162
aVdrool
p8163
aVexsmok
p8164
aVmattingli
p8165
aVshelf
p8166
aVtransistor
p8167
aVmid1993
p8168
aVinstitution
p8169
aVkbssun1tamuedu
p8170
aVenoughy
p8171
aVcowork
p8172
aVholland
p8173
aVexamplesdemosproject
p8174
aV150k
p8175
aV65k
p8176
aVsiemen
p8177
aVtommi
p8178
aVclip
p8179
aVexplicit
p8180
aVcohen
p8181
aVdecisio
p8182
aVcoher
p8183
aVlilley
p8184
aVcraftclarksonedu
p8185
aVintermiss
p8186
aVafraid
p8187
aVncsu
p8188
aVrout
p8189
aVpraxi
p8190
aVncsl
p8191
aV8157273415
p8192
aVwhich
p8193
aVdyumaplecircaufledu
p8194
aV33913901394
p8195
aVcombin
p8196
aVdivers
p8197
aV_i_
p8198
aV25000
p8199
aVcombat
p8200
aVscreenprint
p8201
aVcentri
p8202
aVwhi
p8203
aVmvac23thomasudeledu
p8204
aVhighschool
p8205
aVescrow
p8206
aVextermin
p8207
aVclass
p8208
aV08810
p8209
aVpipe
p8210
aVdeni
p8211
aVdetermin
p8212
aVxavier
p8213
aVinexpens
p8214
aVfeal
p8215
aVdorothi
p8216
aVstove
p8217
aVenvisag
p8218
aVlivedin
p8219
aVutter
p8220
aVfear
p8221
aVfeat
p8222
aVoverflow
p8223
aVishav
p8224
aVha
p8225
aVlocat
p8226
aV6000
p8227
aVanticip
p8228
aVhg
p8229
aVhochman
p8230
aVmicron
p8231
aVcombo
p8232
aVmicroc
p8233
aVinhabit
p8234
aVlocal
p8235
aVcube
p8236
aVcontribut
p8237
aV10058
p8238
aVburglari
p8239
aV999
p8240
aVhandgun
p8241
aVwallpap
p8242
aVimsl
p8243
aVscispac
p8244
aVwellmean
p8245
aVporneia
p8246
aVqa
p8247
aVwhether
p8248
aVahdshak
p8249
aVpartit
p8250
aVview
p8251
aVcredibl
p8252
aVknowledg
p8253
aVwierdo
p8254
aVdistract
p8255
aVviolet
p8256
aVunixxmotif
p8257
aVcloser
p8258
aVxray
p8259
aVgenius
p8260
aVviper
p8261
aVchemic
p8262
aVbought
p8263
aVaddin
p8264
aVelimin
p8265
aVjoy
p8266
aVprintscr
p8267
aVjohnstoncyberiawinnet
p8268
aVacceller
p8269
aVjob
p8270
aVentir
p8271
aVjoe
p8272
aVjog
p8273
aVhomebrew
p8274
aVexar
p8275
aVencryp
p8276
aVbiberdorf
p8277
aVencryt
p8278
aVbarrack
p8279
aVmicrogenesi
p8280
aVnx03mikukyedu
p8281
aVapril
p8282
aVdiehard
p8283
aVastrocalc
p8284
aVatleast
p8285
aVcommitte
p8286
aVpassag
p8287
aVrtrace
p8288
aVcoopt
p8289
aVrpw
p8290
aVwall
p8291
aVarriv
p8292
aVwalk
p8293
aV______________________________________________________________________________
p8294
aVrpc
p8295
aVrpi
p8296
aVrespect
p8297
aVdiskwrit
p8298
aVwithdrawl
p8299
aVdecent
p8300
aVghazali
p8301
aVbbc
p8302
aVcompos
p8303
aVamiga
p8304
aVcompon
p8305
aVbesid
p8306
aVfiftycalib
p8307
aVmike
p8308
aVliverpool
p8309
aVpresenc
p8310
aVyeild
p8311
aVhmm
p8312
aVsaner
p8313
aVhmo
p8314
aVcoloradoedu
p8315
aVfactfind
p8316
aVpresent
p8317
aVcrappi
p8318
aVquietwrit
p8319
aVnoninterlac
p8320
aV_________________________________________________________________________
p8321
aVcursor
p8322
aVprocessor6000
p8323
aV1024x768x64k
p8324
aVantigun
p8325
aVgunawanenuxhbeasasuedu
p8326
aVobserv
p8327
aVbolero
p8328
aVlayer
p8329
aVmutant
p8330
aVmotif
p8331
aVpcxview
p8332
aVmotiv
p8333
aVavi
p8334
aVdual
p8335
aVsophisticatedsp
p8336
aVfrancoi
p8337
aVcross
p8338
aVmember
p8339
aV14020313
p8340
aVperhaph
p8341
aVlargest
p8342
aVinch
p8343
aVdifficult
p8344
aVslave
p8345
aVlobbi
p8346
aVstudent
p8347
aVdataglov
p8348
aVjrmgnvifasufledu
p8349
aVoverwork
p8350
aVscissor
p8351
aVagassizcasundnodakedu
p8352
aVenglish
p8353
aVhamilton
p8354
aVhrsessenti
p8355
aVleverri
p8356
aVgsx140
p8357
aVcristi
p8358
aVrocket
p8359
aVobtain
p8360
aVtcp
p8361
aVtcl
p8362
aVxsendeventtar
p8363
aVheavili
p8364
aVbrunoli
p8365
aVsimultan
p8366
aVpanther
p8367
aVbell
p8368
aVsmith
p8369
aVfarid
p8370
aVhall
p8371
aVncdp14691000330002451
p8372
aVstowel
p8373
aVother
p8374
aVthrir
p8375
aVsmart
p8376
aVw4mb
p8377
aVbranch
p8378
aVmyth
p8379
aVmsbsqcom
p8380
aVtc1
p8381
aVknow
p8382
aVmohawkcsutexasedu
p8383
aVpress
p8384
aVredesign
p8385
aVknox
p8386
aVfrighteningli
p8387
aVincred
p8388
aVmiami
p8389
aVproterm
p8390
aVexceed
p8391
aVdrop
p8392
aV115
p8393
aV114
p8394
aV117
p8395
aVgrowth
p8396
aVexport
p8397
aV110
p8398
aV113
p8399
aV112
p8400
aV119
p8401
aV118
p8402
aVlead
p8403
aVleak
p8404
aVimagewrit
p8405
aVkratz
p8406
aVanectdot
p8407
aVleas
p8408
aVleav
p8409
aVsettl
p8410
aVsmyth
p8411
aVleader
p8412
aVloral
p8413
aVsiggraphorg
p8414
aVinvestig
p8415
aVobey
p8416
aVenum
p8417
aVmitr
p8418
aVmattoccom
p8419
aVtanab
p8420
aVopirg
p8421
aVndi
p8422
aVsumex
p8423
aVcolumn
p8424
aVswear
p8425
aVhpmvd069nsrhpcom
p8426
aVdisabl
p8427
aVown
p8428
aVowe
p8429
aVlibtiff
p8430
aVcostantli
p8431
aVwarranti
p8432
aVmediaev
p8433
aVweather
p8434
aVbrush
p8435
aVbuick
p8436
aVautomag
p8437
aVtektron
p8438
aVtransfer
p8439
aVcomputervis
p8440
aV_your_
p8441
aVvax
p8442
aVappl
p8443
aVed
p8444
aVvar
p8445
aVcliff
p8446
aVvat
p8447
aV1024x768x256
p8448
aVcontradictori
p8449
aVbosnian
p8450
aVnwreader
p8451
aVscreen_numb
p8452
aVow3
p8453
aVunix00
p8454
aV640kb
p8455
aVmade
p8456
aVponderhtanabe734110579
p8457
aVinjur
p8458
aVricketi
p8459
aVtroubl
p8460
aVrecord
p8461
aVbelow
p8462
aV25mhz
p8463
aVownus
p8464
aVfaggot
p8465
aVarno
p8466
aVex
p8467
aVyear
p8468
aViifx
p8469
aVmeaningless
p8470
aValesi
p8471
aV8bit
p8472
aVgizmo
p8473
aVdiplomat
p8474
aVboot
p8475
aVbook
p8476
aVarama
p8477
aVsick
p8478
aVscif
p8479
aVb640
p8480
aVjunk
p8481
aVshowm
p8482
aVmanrat
p8483
aVjune
p8484
aVrichardson
p8485
aVar007
p8486
aVwilliambeeubcca
p8487
aVhumbl
p8488
aVdhor
p8489
aVexperienc
p8490
aVscientif
p8491
aVreliabl
p8492
aVemerg
p8493
aV6132831095
p8494
aVnhlc
p8495
atp8496
Rp8497
.