c__builtin__
set
p0
((lp1
Vasw410
p2
aVcircuitri
p3
aVpardon
p4
aVrulescontrol
p5
aVfoul
p6
aVfour
p7
aVsecondli
p8
aVprotest
p9
aVunemploy
p10
aVcrosstalk
p11
aVwhose
p12
aVaccus
p13
aVaccur
p14
aVsorri
p15
aVdownshift
p16
aVaux
p17
aVdigit
p18
aVkudo
p19
aVinternet
p20
aVvoic
p21
aVhazi
p22
aVgovern
p23
aVaffect
p24
aVlefthand
p25
aVvast
p26
aVhci
p27
aVprize
p28
aVstepanakert
p29
aVxyz
p30
aVdecima
p31
aVfactori
p32
aVsolid
p33
aVvector
p34
aVtragedi
p35
aVwindowsnt
p36
aVdvx
p37
aVwandersman
p38
aV2623a
p39
aVmiller
p40
aVbudget
p41
aVsecond
p42
aVhelluva
p43
aV278
p44
aVseth
p45
aVeven
p46
aVneg
p47
aVdecstat
p48
aVasid
p49
aVnec
p50
aV46
p51
aVusenet
p52
aVnew
p53
aVnet
p54
aVever
p55
aVpreemptiv
p56
aVxr500ii
p57
aV5000200
p58
aVmeg
p59
aVch41prismgatechedu
p60
aVmea
p61
aVabov
p62
aVherc
p63
aVmel
p64
aVnever
p65
aVbusmast
p66
aVhere
p67
aVmet
p68
aVplaintext
p69
aVchina
p70
aVcult
p71
aV100
p72
aV101
p73
aVinterpret
p74
aV105
p75
aVchaotic
p76
aV2100
p77
aVnetowrk
p78
aVxkernel
p79
aVmilitari
p80
aVk
p81
aVjame
p82
aVharass
p83
aVgillogli
p84
aVdrl
p85
aVpermit
p86
aVzombi
p87
aVjami
p88
aVgolden
p89
aVvolunt
p90
aVkayaakin
p91
aVbayonet
p92
aVreagan
p93
aVdefaultscreen
p94
aVbrought
p95
aVunix
p96
aVpound
p97
aVmoral
p98
aVsmartdrv
p99
aVuniv
p100
aV___
p101
aVunit
p102
aVspoke
p103
aVaerodynamicist
p104
aVreadi
p105
aVtelecomm
p106
aVconcret
p107
aVcall
p108
aVoctopu
p109
aVpassport
p110
aVarmi
p111
aVstrike
p112
aVtype
p113
aVtell
p114
aVandysailstanfordedu
p115
aVpaperwork
p116
aVrelay
p117
aVgeorgian
p118
aVrelat
p119
aVnotic
p120
aVhurt
p121
aVwarn
p122
aVexce
p123
aVholi
p124
aV91
p125
aV90
p126
aVhold
p127
aV95
p128
aV96
p129
aVaccid
p130
aVroom
p131
aVsetup
p132
aVstinsonbibdunledu
p133
aVroof
p134
aVworth
p135
aVakin
p136
aVrework
p137
aVroot
p138
aVserazumauucp
p139
aVtechonolog
p140
aVwang
p141
aVgive
p142
aVstudenttcumnedu
p143
aVhousehold
p144
aVsmtp
p145
aVpublicdomain
p146
aVcaution
p147
aVrefus
p148
aVwant
p149
aVartilleri
p150
aVhog
p151
aVshippinginsur
p152
aVquot
p153
aVpolic
p154
aVtravel
p155
aVfaulti
p156
aVclassifi
p157
aVhow
p158
aVhot
p159
aVscrambl
p160
aVanswer
p161
aVturk
p162
aVcolonis
p163
aVwinsock
p164
aV128k
p165
aVpolit
p166
aVseahuntimatcom
p167
aVilleduc
p168
aVsubstanc
p169
aVwrong
p170
aVsarfati
p171
aVeprom
p172
aVbeauti
p173
aVchump
p174
aVsubstant
p175
aVunselfish
p176
aVprodig
p177
aVvplot
p178
aVtetri
p179
aVguerilla
p180
aVattempt
p181
aVthird
p182
aVwarfar
p183
aVwangrrpiedu
p184
aVmaintain
p185
aVaustrailian
p186
aVethernet
p187
aVwing
p188
aVcardhumcsdundeeacuk
p189
aVorigin
p190
aVstratigi
p191
aVghastli
p192
aVtelecom
p193
aVxlib
p194
aVmurray
p195
aVprivileg
p196
aVappar
p197
aVpretti
p198
aVvari
p199
aVstreamlin
p200
aVfit
p201
aVfractal
p202
aVfix
p203
aVdiscredit
p204
aVcrew
p205
aVbetter
p206
aVspoken
p207
aVdecod
p208
aVhidden
p209
aVchould
p210
aVwinbench
p211
aVeasier
p212
aVanim
p213
aVtherapi
p214
aVvicepresid
p215
aVpromin
p216
aVrectangl
p217
aV366383
p218
aVunthink
p219
aVpromis
p220
aVviciou
p221
aVinterrupt
p222
aVresourc
p223
aVyouknowwho
p224
aVsilver
p225
aVladi
p226
aVrepaint
p227
aVarrog
p228
aVfnord
p229
aVmicrosci
p230
aVhizbollah
p231
aVaccommod
p232
aVsuperfast
p233
aVdebug
p234
aVwent
p235
aVside
p236
aVcryptophon
p237
aVmean
p238
aVwhim
p239
aVlaboratori
p240
aVenorm
p241
aVgpf
p242
aVstronger
p243
aVwednesday
p244
aVoppos
p245
aVcalmli
p246
aVtaught
p247
aV397
p248
aVhprndrosehpcom
p249
aVforgot
p250
aVextract
p251
aV24x
p252
aVshame
p253
aV50mhz
p254
aVhomicid
p255
aVcrucial
p256
aVdss
p257
aVdsp
p258
aVmason
p259
aVcontent
p260
aVre
p261
aVbranch
p262
aVadapt
p263
aVrc
p264
aVdsg
p265
aVrn
p266
aVsize
p267
aVlinear
p268
aVprivatelydevelop
p269
aVmetronom
p270
aVsituat
p271
aVomiss
p272
aVgreasi
p273
aV244
p274
aVbestow
p275
aVelement
p276
aVexpends
p277
aVbeatti
p278
aVatf
p279
aVallerg
p280
aVconvent
p281
aVr3
p282
aVfetal
p283
aV12000
p284
aV293
p285
aVsilicon
p286
aVloui
p287
aVatt
p288
aV100000
p289
aVisa
p290
aVconfus
p291
aVfredom
p292
aVshopper
p293
aVgrade
p294
aVaccessdata
p295
aVwast
p296
aVthereof
p297
aVeachoth
p298
aVhook
p299
aVbengurion
p300
aVscanmat
p301
aVagre
p302
aV170
p303
aVstereovideo
p304
aVunexpectedli
p305
aV1281742521
p306
aVhistorian
p307
aVsometim
p308
aVmaster
p309
aVsimilarli
p310
aVdraft
p311
aVgilbert
p312
aVrecent
p313
aVlisten
p314
aVlower
p315
aVidacom
p316
aVsomewhat
p317
aVhadnt
p318
aVtechnic
p319
aVsilli
p320
aVcypru
p321
aVkeyword
p322
aVioannu
p323
aVoutlaw
p324
aVshower
p325
aVmatter
p326
aVahmet
p327
aV204
p328
aVcodepackag
p329
aV486dx266mhz
p330
aVnapalm
p331
aVwirethank
p332
aVboston
p333
aVmodern
p334
aVmind
p335
aVmine
p336
aVseen
p337
aVseem
p338
aVincompat
p339
aVseek
p340
aVdozen
p341
aVee11engrlatechedu
p342
aVthat
p343
aVvga
p344
aV__ian
p345
aVchest
p346
aVamberssdcsdharriscom
p347
aVseason
p348
aVcaddi
p349
aVsourcesit
p350
aVpandorasdsuedu
p351
aVnorri
p352
aVrussel
p353
aVobject
p354
aVmarin
p355
aVswiss
p356
aVregular
p357
aVspecifi
p358
aVletter
p359
aVprematur
p360
aVtradit
p361
aVsinger
p362
aVdon
p363
aVtect
p364
aVdoc
p365
aVprofessor
p366
aVcamp
p367
aVm
p368
aVdog
p369
aVdod
p370
aVhospit
p371
aVtech
p372
aVarlo
p373
aVrouhi
p374
aVpropos
p375
aVdov
p376
aVcame
p377
aVmarvel
p378
aVbomb
p379
aVreactor
p380
aVarmament
p381
aVspeedup
p382
aVdicken
p383
aVplanetari
p384
aVpc1oandrewcmuedu
p385
aVaccelar
p386
aVtypefac
p387
aVdespit
p388
aVnortheast
p389
aVlayout
p390
aVacquir
p391
aVdespis
p392
aV1541
p393
aVmenu
p394
aVexplain
p395
aVsupersport
p396
aVrestaur
p397
aVsugar
p398
aVbush
p399
aVbusi
p400
aVrick
p401
aVrich
p402
aVcda
p403
aVplate
p404
aVhelppenetfi
p405
aVstop
p406
aV0649
p407
aVncarucar
p408
aVstablereli
p409
aVsaturn
p410
aVpolygon_reduct
p411
aVbat
p412
aVbar
p413
aVpiggi
p414
aVxm121
p415
aVdisco
p416
aVindigen
p417
aVbad
p418
aVtroop
p419
aVstll
p420
aVban
p421
aVbaptiz
p422
aVshuld
p423
aVmicroscopi
p424
aVrespond
p425
aVsoontob
p426
aVfair
p427
aVwidget
p428
aV5104896165
p429
aVresult
p430
aVrespons
p431
aVfail
p432
aVhammer
p433
aVbest
p434
aVsubject
p435
aVpete
p436
aV00
p437
aVsaid
p438
aVsorta
p439
aVirq
p440
aVsail
p441
aVftpcontribr5hpsrv
p442
aVinfatu
p443
aVmem
p444
aVfigur
p445
aVscore
p446
aVadvisedli
p447
aVunto
p448
aVscorn
p449
aVattribut
p450
aVwage
p451
aVhenrik
p452
aVextend
p453
aVsmacenyxcsduedu
p454
aVextens
p455
aVtripled
p456
aVtmail
p457
aVdrew
p458
aVextent
p459
aVfeloni
p460
aVadvertis
p461
aVunpatent
p462
aVoscilloscop
p463
aVastroocistempleedu
p464
aVplanner
p465
aV8133840584
p466
aVroyc
p467
aVunx
p468
aVrethought
p469
aVagainst
p470
aVtyranni
p471
aVlogia
p472
aVlogic
p473
aVcountri
p474
aVadaptec
p475
aVrehash
p476
aV2nd
p477
aVcanyon
p478
aVheadquart
p479
aVquinn
p480
aV252
p481
aVdiff
p482
aV250
p483
aVassum
p484
aVsummar
p485
aVjog
p486
aVinfluenti
p487
aVsubsidi
p488
aVliabil
p489
aVdecxtrap
p490
aVmaintech
p491
aVthree
p492
aVspecul
p493
aVmuch
p494
aV104
p495
aVinterest
p496
aVbasic
p497
aVidol
p498
aVthrew
p499
aVlybian
p500
aVlife
p501
aVregul
p502
aVkt32
p503
aVsuppress
p504
aVyeahsureth
p505
aVemmis
p506
aVsynagogu
p507
aVmultithread
p508
aVdave
p509
aVefficaci
p510
aVdualpag
p511
aVcdrom
p512
aVsad
p513
aVspin
p514
aVbookstor
p515
aVmohammad
p516
aVugli
p517
aVximag
p518
aVtank
p519
aVtang
p520
aVbreifli
p521
aVneal
p522
aVcommerci
p523
aVasign
p524
aVemploy
p525
aVnear
p526
aVmarriag
p527
aVzoompan
p528
aVjerald
p529
aVdesta
p530
aV074
p531
aVminerva
p532
aVip
p533
aVis
p534
aVir
p535
aVit
p536
aVdisprov
p537
aViv
p538
aVii
p539
aVplayer
p540
aVelicit
p541
aVembasi
p542
aVim
p543
aVio
p544
aVjesu
p545
aVia
p546
aVvendor
p547
aVic
p548
aVie
p549
aVid
p550
aVdisappear
p551
aVif
p552
aVhong
p553
aVloach
p554
aVcredit
p555
aVreceiv
p556
aVnazi
p557
aVmake
p558
aVvaxvm
p559
aV6220
p560
aVthingi
p561
aVsplit
p562
aVazerbaijani
p563
aVjartsu
p564
aVeuropean
p565
aVipxnetx
p566
aVtooltalklik
p567
aVupdown
p568
aVwelker
p569
aVkit
p570
aVfairli
p571
aVrefin
p572
aVa2i
p573
aVfbibatf
p574
aVovers
p575
aVtune
p576
aVkid
p577
aVacsuiucedu
p578
aVqualif
p579
aVrayshad
p580
aVsmoker
p581
aVphilosphi
p582
aVstuden
p583
aVacademia
p584
aVsubpoena
p585
aVstimulu
p586
aVdamnabl
p587
aVprogramm
p588
aV800
p589
aV_did_
p590
aVveteran
p591
aVlegisl
p592
aVleft
p593
aVidentifi
p594
aVjust
p595
aVyea
p596
aVokidata
p597
aV115r
p598
aVhuman
p599
aVairbag
p600
aVyet
p601
aVlanguag
p602
aVprevious
p603
aVnswc
p604
aVpi1arcumnedu
p605
aVsvga
p606
aVhal
p607
aVham
p608
aVeasi
p609
aVputimag
p610
aVhad
p611
aVsatellit
p612
aV129957234
p613
aVhay
p614
aVjefferson
p615
aVendus
p616
aVsave
p617
aVhat
p618
aVhav
p619
aVdeterg
p620
aVapplic
p621
aVccalmrpubacegrxvgr209tarz
p622
aValsoinvolv
p623
aV301
p624
aVmideast
p625
aVmakario
p626
aVbirth
p627
aVelabor
p628
aVshadow
p629
aVilliter
p630
aVtruetyp
p631
aVspecif
p632
aViclud
p633
aVmanual
p634
aV3031
p635
aVremind
p636
aVquarterdeck
p637
aVbobbi
p638
aVunderli
p639
aVshredderteleramapghpau
p640
aVattorney
p641
aVright
p642
aVold
p643
aVole
p644
aVdeal
p645
aVpg1281
p646
aVstaff
p647
aVdisord
p648
aVsomehow
p649
aVdead
p650
aVlockstep
p651
aVrevel
p652
aVintern
p653
aVprinter
p654
aVinterf
p655
aVelderli
p656
aVtransmiss
p657
aVraytrac
p658
aVtotal
p659
aVfor
p660
aVbottom
p661
aVinhuman
p662
aVcompletli
p663
aVdcswitsendtnetcom
p664
aV66mhz
p665
aVquicklink
p666
aVtrack
p667
aVwellsfcau
p668
aVx113d
p669
aVcondit
p670
aVprice
p671
aVslavic
p672
aVsensibl
p673
aVbold
p674
aVrep
p675
aVusedheard
p676
aVinsecur
p677
aVburn
p678
aVegregi
p679
aVrightrot
p680
aVcolleg
p681
aVunreason
p682
aVcruis
p683
aVsuper
p684
aV_the_lost_years_of_jesus_
p685
aVconceal
p686
aVslightli
p687
aVbeta
p688
aVo
p689
aVsimul
p690
aVafternoon
p691
aVcommit
p692
aVmarshal
p693
aVnixon
p694
aVcodecraft
p695
aVtelephon
p696
aV22k
p697
aVmbi
p698
aVuxdlivacuk
p699
aVson
p700
aVdown
p701
aVstripdown
p702
aVwrap
p703
aVsox
p704
aVlyme
p705
aVmicrowav
p706
aVsecessionist
p707
aVsuffici
p708
aVxnewsread
p709
aVsupport
p710
aVhappi
p711
aVavail
p712
aVjoseph
p713
aVeditor
p714
aVjane
p715
aVoverhead
p716
aVconstantli
p717
aVanalysi
p718
aVcoronahscuscedu
p719
aVsecondhand
p720
aVform
p721
aVoffer
p722
aVforc
p723
aVrecommend
p724
aVforg
p725
aVsurveil
p726
aVford
p727
aVmultiprocessor
p728
aVbach
p729
aVoverburden
p730
aVpathet
p731
aVsafeguard
p732
aV221
p733
aVfort
p734
aVgaza
p735
aVmisinform
p736
aVmyopic
p737
aVwhove
p738
aV24si
p739
aVuntil
p740
aVwscrawl
p741
aVxnewspost
p742
aVpalm
p743
aVunivesa
p744
aVdissemin
p745
aVtemper
p746
aV150
p747
aVlater
p748
aVshin
p749
aVflyback
p750
aVtoss
p751
aVmodel1
p752
aVsidestep
p753
aVproven
p754
aVsale
p755
aVdiagnost
p756
aVexist
p757
aV65535
p758
aVship
p759
aVdealer
p760
aVshit
p761
aV200mb
p762
aVexcel
p763
aV8900cl
p764
aVrole
p765
aVcompsyssgi
p766
aVedb9140tamsuntamuedu
p767
aVxgrabsc
p768
aVknuckl
p769
aVpresum
p770
aVcg6
p771
aVsmell
p772
aVroll
p773
aV2500
p774
aVlegitim
p775
aVintend
p776
aVdevot
p777
aVfelt
p778
aVnotwithstand
p779
aVintens
p780
aVintent
p781
aVxthe
p782
aVweekend
p783
aVfreecel
p784
aVmykotronx
p785
aV15n
p786
aVbillion
p787
aV99
p788
aVfemal
p789
aVfurthermor
p790
aVpreambl
p791
aVottawa
p792
aVcarriag
p793
aVwarm
p794
aVignor
p795
aValmanac
p796
aVtime
p797
aVdaili
p798
aVbefriend
p799
aVchain
p800
aVskip
p801
aVapto
p802
aVinvent
p803
aVmild
p804
aVskate
p805
aVskin
p806
aVmill
p807
aVhierarch
p808
aVdecid
p809
aVbiblic
p810
aVdepend
p811
aVreligion
p812
aVsovereignti
p813
aVwinqvtnet
p814
aVfather
p815
aV0
p816
aV400x400x8
p817
aVmagstrip
p818
aVdaryl
p819
aVpersonwho
p820
aVlaurm00tohidmiusherbca
p821
aVshoot
p822
aVproblemsetc
p823
aVyeast
p824
aVscoreboard
p825
aVos2
p826
aV_defined_
p827
aVgoodfornoth
p828
aVma
p829
aVexact
p830
aVexerpt
p831
aVazerbadjan
p832
aVghostscript
p833
aVundeni
p834
aVdid
p835
aVdie
p836
aVrestor
p837
aVdemocrat
p838
aVmagnet
p839
aVtranmit
p840
aVdiy
p841
aVteam
p842
aVcooki
p843
aVbehs
p844
aVresettl
p845
aVdip
p846
aVround
p847
aVshoe
p848
aVprevent
p849
aVlankford
p850
aVsigh
p851
aVcompens
p852
aVboca
p853
aVsign
p854
aV____
p855
aVneglect
p856
aVcgm
p857
aV230
p858
aVx89olarte1gwwmichedu
p859
aVffritzehpwbe007wadhpcom
p860
aVabdullah
p861
aVfavour
p862
aVmelt
p863
aVheret
p864
aVcurrent
p865
aVcga
p866
aVsuspect
p867
aVsomalia
p868
aVturgur
p869
aVogp0180
p870
aVpegasus130393124328fp1dialin7uoregonedu
p871
aVcadcor
p872
aVslot
p873
aVderiv
p874
aV8510
p875
aVharriss
p876
aVonli
p877
aVfrench
p878
aVaddress
p879
aValong
p880
aVrs232
p881
aVwait
p882
aVbox
p883
aVboy
p884
aVfootpeg
p885
aV7191991
p886
aVinvit
p887
aVbrilliant
p888
aVshift
p889
aVworldwid
p890
aVdixon
p891
aVbow
p892
aVet4000
p893
aVthroughput
p894
aVadvocaci
p895
aVextrem
p896
aVbob
p897
aV20mb
p898
aVboe
p899
aVcommonli
p900
aVepistl
p901
aVsrsdmwtdmid
p902
aVlove
p903
aVmodul
p904
aVprefer
p905
aVfakeri
p906
aVfake
p907
aVinstal
p908
aVipx
p909
aV117r
p910
aVnewslett
p911
aVwealth
p912
aVsake
p913
aVunivers
p914
aVvisit
p915
aVby
p916
aVeverybodi
p917
aVscope
p918
aVangri
p919
aVyoghurt
p920
aVserdar
p921
aVhockey
p922
aVbennett
p923
aVxview
p924
aV4000seri
p925
aVmathewmantiscouk
p926
aVpeopl
p927
aVenhanc
p928
aVvisual
p929
aVheartless
p930
aVrutgersremusrutgersedukaldi
p931
aVunselfishli
p932
aVeffort
p933
aVimpair
p934
aVreadconvertcropwhatnot
p935
aVxsetwmnormalhint
p936
aVcitri
p937
aVmelodrama
p938
aVuniqu
p939
aVfli
p940
aVdescriptor
p941
aVeberhart
p942
aVwhatev
p943
aVmateri
p944
aVcisc
p945
aV_any_
p946
aVclaim
p947
aVfavourit
p948
aVkenneth
p949
aVpredict
p950
aVreynold
p951
aVrobichaulambdamsfcnasagov
p952
aVfuck
p953
aVagent
p954
aVscimednutrit
p955
aVcrazi
p956
aVirwinn
p957
aVbackplan
p958
aVcouncil
p959
aVagenc
p960
aVtoler
p961
aVstole
p962
aVuptothemo
p963
aV1024x72816
p964
aVtube
p965
aVs3
p966
aVultrix
p967
aVs1
p968
aVget
p969
aVfpu
p970
aVtill
p971
aVsunday
p972
aVsword
p973
aVroubenmathumbcedu
p974
aVmalloc3
p975
aVnyc
p976
aVlaureti
p977
aVeffectsorigin
p978
aVguynn
p979
aVmap
p980
aV144
p981
aVmar
p982
aV140
p983
aVmay
p984
aVmax
p985
aVnermalsantarosaedu
p986
aVspot
p987
aVusabl
p988
aVintrus
p989
aVmac
p990
aVmad
p991
aVmag
p992
aVdate
p993
aVsuch
p994
aVsuck
p995
aVsecondari
p996
aVdata
p997
aVgrow
p998
aVman
p999
aVtific
p1000
aVsy
p1001
aVhayesstwrisc1unisaacza
p1002
aVjohnson
p1003
aVconscious
p1004
aV6th
p1005
aVwheelchair
p1006
aVstdin
p1007
aVsw
p1008
aVsu
p1009
aVst
p1010
aVq
p1011
aVswitch
p1012
aVjail
p1013
aVblock
p1014
aVyassin
p1015
aVyoshiro
p1016
aVtall
p1017
aVuntest
p1018
aVtali
p1019
aVordinarili
p1020
aVtalk
p1021
aVee02engrlatechedu
p1022
aVmousesi
p1023
aVeast
p1024
aVgradual
p1025
aVkong
p1026
aVgraduat
p1027
aVoccasion
p1028
aVfarul
p1029
aVpitch
p1030
aVspinoff
p1031
aVequip
p1032
aVentitl
p1033
aVfarnsworthhirsch
p1034
aVpointer
p1035
aVentiti
p1036
aVpixmap
p1037
aVtexan
p1038
aVgroup
p1039
aVmonitor
p1040
aVpolici
p1041
aVjim
p1042
aVtexa
p1043
aVinstantli
p1044
aVmonopol
p1045
aV9088341254
p1046
aVnsa
p1047
aVmail
p1048
aVthant
p1049
aVmain
p1050
aVtorx
p1051
aVmisconcept
p1052
aVperus
p1053
aVlaserjet
p1054
aVcivilian
p1055
aVfinanci
p1056
aVautomobil
p1057
aVsooner
p1058
aVnation
p1059
aVoctupi
p1060
aVsw6sw5
p1061
aVgate
p1062
aVakron
p1063
aVapplelink
p1064
aVnegoti
p1065
aVpossess
p1066
aVtandi
p1067
aVhealeth
p1068
aVnil
p1069
aV135
p1070
aVrevers
p1071
aVcrypto
p1072
aVsepar
p1073
aVwin31
p1074
aVmassachusett
p1075
aVrock
p1076
aVx10
p1077
aVx11
p1078
aVconfid
p1079
aV820
p1080
aVcompil
p1081
aV25kbyte
p1082
aVchristian
p1083
aVcontinu
p1084
aVbreakthrough
p1085
aVbitgraypixel
p1086
aVappsoft
p1087
aVcanada
p1088
aV795
p1089
aVannounc
p1090
aV3rd
p1091
aVestabish
p1092
aVbaggag
p1093
aVstupid
p1094
aVdutch
p1095
aVdjgpp
p1096
aVthinkth
p1097
aVsensor
p1098
aVcorrect
p1099
aVextrasharp
p1100
aVdiseas
p1101
aVmonster
p1102
aVmillion
p1103
aVseventh
p1104
aVquick386
p1105
aV1135
p1106
aVallstar
p1107
aVcalifornia
p1108
aVgx
p1109
aVmimi
p1110
aVinstitut
p1111
aVbyte
p1112
aVkeith
p1113
aV525550
p1114
aVpuni
p1115
aVcrazierand
p1116
aVthing
p1117
aVthine
p1118
aVhusband
p1119
aVministri
p1120
aVuglvuvicca
p1121
aVjoesbarccvtedu
p1122
aVprincipl
p1123
aVnicknam
p1124
aVthink
p1125
aVfrequent
p1126
aVfirst
p1127
aVoper
p1128
aVcarri
p1129
aVonc
p1130
aVone
p1131
aVlong
p1132
aVvote
p1133
aVopen
p1134
aVopel
p1135
aVlaw
p1136
aVworkaround
p1137
aVpman
p1138
aVbite
p1139
aVambul
p1140
aVciti
p1141
aV2
p1142
aVfmj
p1143
aVaverag
p1144
aVescort
p1145
aVauthorartist
p1146
aVproposit
p1147
aVmelbourn
p1148
aVcite
p1149
aVmeme
p1150
aVhillari
p1151
aVsemd
p1152
aVundoubtedli
p1153
aVbalakisi
p1154
aVallegedli
p1155
aVfloppi
p1156
aV11
p1157
aV10
p1158
aV13
p1159
aV12
p1160
aV15
p1161
aV14
p1162
aV17
p1163
aV16
p1164
aV19
p1165
aV18
p1166
aVexclusionari
p1167
aVwere
p1168
aV6176253972
p1169
aVscien
p1170
aVrussia
p1171
aVsanguinecholericmelencholicphlegmat
p1172
aVconspiraci
p1173
aVmellish
p1174
aVsam
p1175
aVdometucbehsanucedu
p1176
aVargument
p1177
aVsae
p1178
aVperciev
p1179
aValleg
p1180
aVsay
p1181
aVproperli
p1182
aVallen
p1183
aVturner
p1184
aVsaw
p1185
aVappolog
p1186
aVcoach
p1187
aVsquar
p1188
aVadvic
p1189
aVnotr
p1190
aV640x400
p1191
aVdiscordian
p1192
aVbezier
p1193
aVnote
p1194
aVdenomin
p1195
aVtake
p1196
aVadvis
p1197
aVinterior
p1198
aVdestroy
p1199
aVheadmount
p1200
aVnoth
p1201
aVchannel
p1202
aV200
p1203
aV203
p1204
aV202
p1205
aV205
p1206
aVincorpor
p1207
aVtrace
p1208
aVnormal
p1209
aVbuffer
p1210
aVfriedman
p1211
aVknew
p1212
aVcompress
p1213
aVpaid
p1214
aVassault
p1215
aVabus
p1216
aVpair
p1217
aVbeth
p1218
aVpager
p1219
aVphig
p1220
aVnamesphon
p1221
aVarchi
p1222
aValtsecur
p1223
aVphil
p1224
aVdrive
p1225
aVwhich
p1226
aVsigma
p1227
aVmsf
p1228
aVmultilevel
p1229
aVshop
p1230
aVtelefind
p1231
aVcobra
p1232
aVshot
p1233
aVnewer
p1234
aVlocaltalkcompat
p1235
aVshow
p1236
aVswitchboard
p1237
aVserialis
p1238
aVrussian
p1239
aVbright
p1240
aVshod
p1241
aVcambodian
p1242
aVemot
p1243
aVsnider
p1244
aVstudentinternetbr4416aamericanedu
p1245
aVenthusiast
p1246
aVactix
p1247
aVslow
p1248
aVistead
p1249
aVnewssoftwar
p1250
aVactiv
p1251
aVenough
p1252
aVblack
p1253
aVsiggraph
p1254
aV1024x768
p1255
aVrevisionist
p1256
aVoffici
p1257
aV200000
p1258
aVvariou
p1259
aVdistinctli
p1260
aVirq2
p1261
aVirq3
p1262
aVlitigi
p1263
aVpegasu
p1264
aVirq4
p1265
aVzeo
p1266
aV2mb
p1267
aVoutlet
p1268
aVimport
p1269
aVrequir
p1270
aVgel
p1271
aVprime
p1272
aVprima
p1273
aVskull
p1274
aVxgod
p1275
aVartist
p1276
aVadmini
p1277
aVheadphon
p1278
aVmultidisplay
p1279
aVborrow
p1280
aVpriest
p1281
aVroger
p1282
aV8918637
p1283
aVmediat
p1284
aV386486
p1285
aVwhere
p1286
aVvision
p1287
aVsummari
p1288
aVkernel
p1289
aVespn
p1290
aVkeyboard
p1291
aVpicassoocistempleedu
p1292
aVseat
p1293
aVsean
p1294
aVkermit
p1295
aVseal
p1296
aVtrackfrict
p1297
aVcalendar
p1298
aVcarpalinfo
p1299
aVtranslat
p1300
aVwonder
p1301
aVdormitori
p1302
aVtelevis
p1303
aVinnov
p1304
aVubiquit
p1305
aVhpcc01recmotorcycl
p1306
aVpump
p1307
aVrigidli
p1308
aVantiviru
p1309
aVnntp
p1310
aVacross
p1311
aVjumper
p1312
aVfarzin
p1313
aVspars
p1314
aVaugust
p1315
aVparent
p1316
aVquadra
p1317
aVmarvin
p1318
aVscreen
p1319
aVjq
p1320
aVam
p1321
aVclayton
p1322
aVsparc
p1323
aVsteroid
p1324
aVlopez
p1325
aVquack
p1326
aVsketchi
p1327
aVz
p1328
aViri
p1329
aVtrader
p1330
aVmailtonew
p1331
aVs
p1332
aVjo
p1333
aVimprov
p1334
aVamong
p1335
aVacceler
p1336
aVcwindowssystemvgalogorl
p1337
aVhicnet
p1338
aV70km
p1339
aVcancel
p1340
aVc1381
p1341
aVinan
p1342
aVmarc
p1343
aVstretch
p1344
aVwest
p1345
aVmari
p1346
aVmark
p1347
aVdiscipl
p1348
aVworkshop
p1349
aVbarri
p1350
aVpoolobsess
p1351
aValittl
p1352
aVvers
p1353
aVbockamphphalle2ginformatiktumuenchend
p1354
aVthousand
p1355
aVresolut
p1356
aVsquash
p1357
aVbmp
p1358
aVvue
p1359
aVwake
p1360
aVbmw
p1361
aVasala
p1362
aVrepres
p1363
aVformer
p1364
aVthose
p1365
aVsound
p1366
aVhdt
p1367
aVscath
p1368
aVlifeischeap
p1369
aVimperi
p1370
aVhdf
p1371
aVinvok
p1372
aVtoner
p1373
aVcoca
p1374
aVmono
p1375
aVscriptur
p1376
aVcurricula
p1377
aVmargin
p1378
aVive
p1379
aVkoon
p1380
aVn0nzo
p1381
aVadvantag
p1382
aVconvini
p1383
aVdeityetern
p1384
aVcanon
p1385
aVconvinc
p1386
aVdestin
p1387
aVxstuff
p1388
aVonthefli
p1389
aVwarehous
p1390
aVscanningedit
p1391
aVoutrag
p1392
aVtelescop
p1393
aVascii
p1394
aVeveryday
p1395
aVpap
p1396
aVfastcach
p1397
aVpat
p1398
aVdoctor
p1399
aVpay
p1400
aVgoldsborough
p1401
aVaudienc
p1402
aVsame
p1403
aVbinari
p1404
aVdifferend
p1405
aVspeech
p1406
aVotto
p1407
aVslavon
p1408
aVdayna
p1409
aVintergalact
p1410
aVpal
p1411
aVpan
p1412
aVexhaust
p1413
aVoil
p1414
aVbrinton
p1415
aVemough
p1416
aVassist
p1417
aVansel
p1418
aVcapabl
p1419
aVdriven
p1420
aVmani
p1421
aVextern
p1422
aVappropri
p1423
aVmacro
p1424
aVparodi
p1425
aVraymak
p1426
aVveal
p1427
aVeller
p1428
aVroughli
p1429
aVsummer
p1430
aVfranklin
p1431
aVfmsrl71pqep5inn88
p1432
aVexecut
p1433
aVmoney
p1434
aVformlul
p1435
aVrest
p1436
aVsumgait
p1437
aVmultiplex
p1438
aVaspect
p1439
aVpassphras
p1440
aVconcentr
p1441
aVindulg
p1442
aVasthma
p1443
aVfaxmodem
p1444
aVlittl
p1445
aVcolor
p1446
aVpile
p1447
aV4
p1448
aVexercis
p1449
aVoverthrow
p1450
aVstopwatch
p1451
aVpill
p1452
aVrs6000
p1453
aVgrip
p1454
aVaround
p1455
aVoop
p1456
aVdeepak
p1457
aVregim
p1458
aVtemperatur
p1459
aVtraffic
p1460
aVbaltimor
p1461
aVmom
p1462
aVmol
p1463
aVworld
p1464
aV28800baud
p1465
aVr4
p1466
aVlouzi
p1467
aV60
p1468
aVexpositori
p1469
aVintel
p1470
aVdeaththreat
p1471
aVinteg
p1472
aVserver
p1473
aVcontridict
p1474
aV2600
p1475
aVeither
p1476
aVclay
p1477
aVint86
p1478
aV64
p1479
aVr5
p1480
aVmanag
p1481
aV3000
p1482
aVdebut
p1483
aVparticipa
p1484
aVcabl
p1485
aV48633
p1486
aVtitan
p1487
aVlebanon
p1488
aVmuscl
p1489
aVchuck
p1490
aVcopierprint
p1491
aVhandshak
p1492
aVdetroit
p1493
aVcprigcapcorg
p1494
aVracial
p1495
aVasterixinescnpt
p1496
aVconstitut
p1497
aViscan
p1498
aVwinfax
p1499
aVconfirm
p1500
aVnoon
p1501
aVdefinit
p1502
aVvirginia
p1503
aV_many_
p1504
aVexit
p1505
aVlunar
p1506
aVamino
p1507
aVnotabl
p1508
aVknife
p1509
aVrefer
p1510
aVhpux901
p1511
aVwestinghous
p1512
aVpower
p1513
aVinternship
p1514
aVration
p1515
aVsprung
p1516
aVbroken
p1517
aVleadership
p1518
aVcostbenefit
p1519
aVcornerston
p1520
aVacc
p1521
aVstone
p1522
aVisland
p1523
aVmeaning
p1524
aVacm
p1525
aVfallaci
p1526
aVga
p1527
aV204000
p1528
aVneighbor
p1529
aVact
p1530
aVindustri
p1531
aVluck
p1532
aVallianc
p1533
aVroad
p1534
aVeffici
p1535
aVsl1sl2
p1536
aVkiria
p1537
aVsurviv
p1538
aVdram
p1539
aVstrip
p1540
aVwade
p1541
aVhelser
p1542
aV4fge
p1543
aVher
p1544
aVxliter
p1545
aVglean
p1546
aVtotalitarian
p1547
aVhey
p1548
aVcompliant
p1549
aVmidwayecnuoknoredu
p1550
aVfranchis
p1551
aVresum
p1552
aVheh
p1553
aVdaytim
p1554
aVconclud
p1555
aVbundl
p1556
aVwiderang
p1557
aVamplifi
p1558
aVsunris
p1559
aVbaylor
p1560
aVgori
p1561
aV__the
p1562
aVbuggi
p1563
aVwith
p1564
aVconclus
p1565
aVpull
p1566
aVrush
p1567
aVassi
p1568
aVpossibl
p1569
aVzeineldin
p1570
aVagrev
p1571
aVunusu
p1572
aVmonopoli
p1573
aVembed
p1574
aVsharif
p1575
aVaa
p1576
aVgone
p1577
aVac
p1578
aVab
p1579
aVad
p1580
aVcreat
p1581
aVah
p1582
aVrecmodelsrocket
p1583
aV131988
p1584
aVmarchapril
p1585
aVcasualti
p1586
aVan
p1587
aVas
p1588
aVat
p1589
aVfile
p1590
aVopco
p1591
aVfilm
p1592
aVfill
p1593
aVselfish
p1594
aVuucp
p1595
aVpersonnel
p1596
aVsingleaxi
p1597
aVdrafte
p1598
aVfield
p1599
aVincandesc
p1600
aVastronaut
p1601
aVspatial
p1602
aVarchitectur
p1603
aVgenuin
p1604
aVfirmwar
p1605
aVcongress
p1606
aVcondens
p1607
aVsequenc
p1608
aVvelaacsoaklandedu
p1609
aV1993apr1921104428763guinnessidbsuedu
p1610
aVansi
p1611
aV486
p1612
aVconcav
p1613
aVgibbon
p1614
aVucrengr
p1615
aVudac
p1616
aVxapplresdir
p1617
aVdescript
p1618
aVztimer
p1619
aVmass
p1620
aVadam
p1621
aVdyer
p1622
aVescap
p1623
aVcpu
p1624
aVrepresent
p1625
aVsco
p1626
aVforget
p1627
aVfounder
p1628
aVmaximum
p1629
aVillustr
p1630
aVbidzo
p1631
aVdollar
p1632
aVdatri
p1633
aVdegan
p1634
aVsuno
p1635
aVzinc
p1636
aVreson
p1637
aVpartial
p1638
aVallergi
p1639
aVchildren
p1640
aVedg
p1641
aVnors
p1642
aVencyrpt
p1643
aVtv
p1644
aVlaid
p1645
aVto
p1646
aVtail
p1647
aVdaniel
p1648
aVcrimson
p1649
aVkaskebce
p1650
aVkeysearch
p1651
aVintroduc
p1652
aVentrop
p1653
aVsun3
p1654
aVspreadintent
p1655
aVpowerbook
p1656
aVsun4
p1657
aVutil
p1658
aVwiretap
p1659
aVemrick
p1660
aVbottleneck
p1661
aVunclassifi
p1662
aVstrang
p1663
aVunalt
p1664
aVvidiot
p1665
aVparticular
p1666
aVwsm
p1667
aVthermographi
p1668
aVamend
p1669
aVsane
p1670
aVwsu
p1671
aVqemm386max
p1672
aVsmall
p1673
aV20th
p1674
aVtboot
p1675
aVandor
p1676
aVritter
p1677
aVsync
p1678
aVpast
p1679
aVzero
p1680
aVtaloscsbuffaloedu
p1681
aVnonciph
p1682
aVpass
p1683
aVfurther
p1684
aVribbon
p1685
aVexcit
p1686
aVdial
p1687
aVabc
p1688
aVbenowitz
p1689
aVrichard
p1690
aVclock
p1691
aVskeptic
p1692
aVgk
p1693
aVsection
p1694
aVabl
p1695
aVstacker
p1696
aVdelet
p1697
aVbacklight
p1698
aVbodeeeualbertaca
p1699
aVxoa
p1700
aVhurdl
p1701
aVmethod
p1702
aVmovement
p1703
aVfull
p1704
aVchristi
p1705
aVvariat
p1706
aVsalyut
p1707
aVsophist
p1708
aVnonam
p1709
aV19m
p1710
aVgiacalo
p1711
aVimmort
p1712
aVinher
p1713
aVfred
p1714
aVlegend
p1715
aVsolips
p1716
aVsearch
p1717
aVfwi
p1718
aVturkish
p1719
aVbrutal
p1720
aVprior
p1721
aVsocial
p1722
aVaction
p1723
aVintroductori
p1724
aVnarrow
p1725
aV9mm
p1726
aVweirder
p1727
aVvia
p1728
aVdepart
p1729
aVdeclin
p1730
aVprimit
p1731
aVbacklit
p1732
aVafrica
p1733
aVdecenso
p1734
aVaotc
p1735
aVgosh
p1736
aVestablish
p1737
aVcareer
p1738
aVselect
p1739
aV_includes_
p1740
aVsanjay
p1741
aVwirefram
p1742
aVvlsi
p1743
aVpulldown
p1744
aVdistinct
p1745
aVliber
p1746
aVetc
p1747
aVregist
p1748
aVtwo
p1749
aVmorn
p1750
aV6
p1751
aVcodifi
p1752
aVnonvolatil
p1753
aVmore
p1754
aVthwe
p1755
aVshutdowncrash
p1756
aVdiamond
p1757
aVdesir
p1758
aVisasnasda
p1759
aVwelfar
p1760
aVagnostic
p1761
aVhundr
p1762
aVscss3clmsuedu
p1763
aVscsi2
p1764
aVleonard
p1765
aVnomad
p1766
aVworri
p1767
aVaris
p1768
aVmagnific
p1769
aVgit
p1770
aVcompani
p1771
aV22600
p1772
aVnineteen
p1773
aVcach
p1774
aVtown
p1775
aVdictat
p1776
aVnone
p1777
aVendpoint
p1778
aVexpostfacto
p1779
aVhour
p1780
aVhous
p1781
aVder
p1782
aVxargv
p1783
aVmerkl
p1784
aVnoni
p1785
aV68hc11
p1786
aVremain
p1787
aVparagraph
p1788
aVdel
p1789
aVquickdraw
p1790
aVden
p1791
aVlearn
p1792
aVimpris
p1793
aVdec
p1794
aVsucka
p1795
aVscam
p1796
aVwormtm
p1797
aVscan
p1798
aVwarlik
p1799
aVchalleng
p1800
aVshare
p1801
aVaccept
p1802
aVcompart
p1803
aVchessmast
p1804
aVexplor
p1805
aVbogg
p1806
aVati
p1807
aVoneeigth
p1808
aVcondemn
p1809
aVvisuallib
p1810
aVhuge
p1811
aVpostoffice1pscedu
p1812
aVsecur
p1813
aVlocalbu
p1814
aVcomfort
p1815
aVpatton
p1816
aVfame
p1817
aVheck
p1818
aVxsoviet
p1819
aVvoltag
p1820
aVstir
p1821
aVunabl
p1822
aVupto
p1823
aVperrin
p1824
aVwiley
p1825
aVbrett
p1826
aVplane
p1827
aVblood
p1828
aVdevelop
p1829
aVassoci
p1830
aVcircumst
p1831
aVminervacisyaleedu
p1832
aVbladestackurctuenl
p1833
aVcombin
p1834
aVdragon
p1835
aVmislead
p1836
aVimageri
p1837
aValpo
p1838
aVmicrotek
p1839
aVkennehralogiccampclarksonedu
p1840
aVinfant
p1841
aVmexican
p1842
aVrotat
p1843
aVradios
p1844
aVpant
p1845
aVfraser
p1846
aVazerbaijan
p1847
aVsetback
p1848
aVeconom
p1849
aVradar
p1850
aVpaper
p1851
aVthrough
p1852
aVsnakecsuidahoedu
p1853
aVsuffer
p1854
aV24
p1855
aV25
p1856
aV26
p1857
aV27
p1858
aV20
p1859
aV21
p1860
aV22
p1861
aV23
p1862
aVgerald
p1863
aV28
p1864
aVfilip
p1865
aVlate
p1866
aVhafermanicaenuiowaedu
p1867
aVpci
p1868
aVbypass
p1869
aVpad
p1870
aVpcf
p1871
aVst002560brownvmbrownedu
p1872
aVgood
p1873
aVsrgp
p1874
aVgadget
p1875
aVyessir
p1876
aVzhen
p1877
aVrank
p1878
aVcompound
p1879
aVcomplain
p1880
aVbombard
p1881
aVdocument
p1882
aVwash
p1883
aVrenounc
p1884
aV2x
p1885
aVinstruct
p1886
aVauthent
p1887
aVasher
p1888
aVeasili
p1889
aVtoken
p1890
aVgenom
p1891
aVfound
p1892
aVgenoa
p1893
aVdenni
p1894
aVsubsystem
p1895
aVharm
p1896
aVinclin
p1897
aVengland
p1898
aVhard
p1899
aVidea
p1900
aVprocedur
p1901
aVrealli
p1902
aVinterleaf
p1903
aVelchibey
p1904
aVutexa
p1905
aVinreplyto
p1906
aVhart
p1907
aVscribe
p1908
aVorient
p1909
aVemmon
p1910
aVmassiv
p1911
aVadmiss
p1912
aVfinney
p1913
aVprinc
p1914
aV33710
p1915
aVquinci
p1916
aVprint
p1917
aVreich
p1918
aVeditorinchiefcopublish
p1919
aVextraordinari
p1920
aVqualifi
p1921
aVbelief
p1922
aVrumor
p1923
aVmmu
p1924
aVgday
p1925
aVctrlaltdel
p1926
aVsiegel
p1927
aVpleasant
p1928
aVbeliev
p1929
aVacorn
p1930
aVworkstat
p1931
aVdirector
p1932
aVsignalcruis
p1933
aVprophet
p1934
aVfinland
p1935
aVstruggl
p1936
aVwither
p1937
aVw
p1938
aVrever
p1939
aVintimid
p1940
aV7037582712
p1941
aVdont
p1942
aVexchang
p1943
aVnumber
p1944
aVevolut
p1945
aVgreylevel
p1946
aVpop
p1947
aVtvtwm
p1948
aVdone
p1949
aVindistinguish
p1950
aVnetter
p1951
aV40mb
p1952
aV40bit
p1953
aVguess
p1954
aVguest
p1955
aVdownsiz
p1956
aVconstruct
p1957
aVpaint
p1958
aV180
p1959
aVunrecogniz
p1960
aV16mhz
p1961
aVsaint
p1962
aVilleg
p1963
aVkaramankar
p1964
aVconduit
p1965
aVdepressingli
p1966
aVvasili
p1967
aV200mhz
p1968
aVpark
p1969
aVpart
p1970
aVschultzvnetibmcom
p1971
aVbank
p1972
aVword
p1973
aVconsult
p1974
aVmoder
p1975
aVgrace
p1976
aVreinstal
p1977
aVexposur
p1978
aV128bit
p1979
aVb
p1980
aVcontrari
p1981
aViranian
p1982
aVgotten
p1983
aVstigaardmhd1moorheadmsusedu
p1984
aVeveryplac
p1985
aVgetaway
p1986
aVyouth
p1987
aVgame
p1988
aVgeniu
p1989
aVarrang
p1990
aVbeij
p1991
aVcomput
p1992
aV45000
p1993
aVbeforehand
p1994
aVpackag
p1995
aVsupportbb
p1996
aVrequisit
p1997
aVsell
p1998
aVschwimwagen
p1999
aVbuilt
p2000
aVequival
p2001
aVself
p2002
aValso
p2003
aVk1
p2004
aVam2oandrewcmuedu
p2005
aVbuild
p2006
aVdehydr
p2007
aV2d
p2008
aVuplink
p2009
aVbugey
p2010
aVplay
p2011
aVsheepmind
p2012
aVdistribut
p2013
aVfirsthand
p2014
aVdisassoci
p2015
aVvni
p2016
aVdisplayoutput
p2017
aVmost
p2018
aVcharl
p2019
aVpsuedostat
p2020
aVpantilt
p2021
aVkamterm
p2022
aVbaerga
p2023
aVsomemani
p2024
aVcharg
p2025
aVtpg
p2026
aVkb
p2027
aVreward
p2028
aVkg
p2029
aV8006821776
p2030
aVevacu
p2031
aVcover
p2032
aVgvga
p2033
aVku
p2034
aVkt
p2035
aVweigh
p2036
aVbarrel
p2037
aVxinit
p2038
aVmicrosoft
p2039
aVsector
p2040
aVreincarn
p2041
aVgolf
p2042
aVgold
p2043
aVconserv
p2044
aVsnailmail
p2045
aVhappili
p2046
aVparticularli
p2047
aV386sx
p2048
aV768x1024
p2049
aVreput
p2050
aV500000000
p2051
aVfind
p2052
aVfing
p2053
aVabund
p2054
aVkadi
p2055
aVgiant
p2056
aVmusic
p2057
aVwriter
p2058
aVsolut
p2059
aVpeculiar
p2060
aVcitoh
p2061
aVtaxandspend
p2062
aVfactor
p2063
aVdtrrtsdtsct
p2064
aV8
p2065
aVunhappi
p2066
aVcsrcncslnistgov
p2067
aVweve
p2068
aVprowess
p2069
aVpavarotti
p2070
aVmein
p2071
aVluke
p2072
aVsecular
p2073
aVexpress
p2074
aVhighend
p2075
aVnubu
p2076
aVcheaper
p2077
aVmainten
p2078
aVcjacksonadobecom
p2079
aVcasino
p2080
aV60hz
p2081
aVrestart
p2082
aVamhux3amherstedu
p2083
aVavocet
p2084
aVcrt
p2085
aVacur
p2086
aVlatex
p2087
aVacut
p2088
aVsingapor
p2089
aVcommon
p2090
aVsrg3sirgrvgracecrinz
p2091
aVgospel
p2092
aVnowher
p2093
aVpcmacamiga
p2094
aVaghdam
p2095
aVset
p2096
aVoverwhelm
p2097
aV311
p2098
aVprintout
p2099
aVstartup
p2100
aVcelebr
p2101
aVsee
p2102
aVsed
p2103
aVtranspar
p2104
aVreserv
p2105
aVanalog
p2106
aVproject
p2107
aVmario
p2108
aVexpert
p2109
aVxlite
p2110
aVsometh
p2111
aVpickup
p2112
aVguilt
p2113
aVexperi
p2114
aValtern
p2115
aVsignatur
p2116
aVimagemagick
p2117
aVappreci
p2118
aVsegal
p2119
aVpirat
p2120
aVaircraft
p2121
aVstrikeout
p2122
aVpepsi
p2123
aVdividend
p2124
aViki
p2125
aVpagan
p2126
aVpb100
p2127
aVpopul
p2128
aVlast
p2129
aVnontechn
p2130
aVbonnieicsuciedu
p2131
aValon
p2132
aVpdr
p2133
aVforeign
p2134
aVenrout
p2135
aVmcdiarmid
p2136
aValot
p2137
aVedinboro
p2138
aVwhole
p2139
aVload
p2140
aVsimpli
p2141
aVxnew
p2142
aVpoint
p2143
aVschedul
p2144
aVspecialpurpos
p2145
aVsuppli
p2146
aVdesktop
p2147
aVprovoc
p2148
aVworthless
p2149
aVdevil
p2150
aVinstrument
p2151
aVdevic
p2152
aVcalculu
p2153
aV96102
p2154
aVsecret
p2155
aVireland
p2156
aVhomosexu
p2157
aVdevis
p2158
aVfirm
p2159
aVwish
p2160
aVchampion
p2161
aVgay
p2162
aVfire
p2163
aVinfect
p2164
aVnra
p2165
aVhewlettpackard
p2166
aVunnecessarili
p2167
aVgap
p2168
aVfund
p2169
aVracer
p2170
aVgal
p2171
aVunderstand
p2172
aVracew
p2173
aVgag
p2174
aVtalent
p2175
aVeduc
p2176
aVcruelti
p2177
aV386sx16
p2178
aVmlb
p2179
aVpolitician
p2180
aVtrinitarian
p2181
aVstraight
p2182
aVbill
p2183
aVhistor
p2184
aVdurat
p2185
aVcern
p2186
aV256k
p2187
aVerror
p2188
aVfun
p2189
aVrecognit
p2190
aVanonym
p2191
aVbreadtub
p2192
aVeveryon
p2193
aVreal
p2194
aVlarger
p2195
aVtechnolog
p2196
aVdavidian
p2197
aVxian
p2198
aVitself
p2199
aVxtra
p2200
aVroutin
p2201
aV24bit
p2202
aVu_c
p2203
aVirrelev
p2204
aVdx266
p2205
aVshorten
p2206
aVbutcher
p2207
aVshorter
p2208
aVfunni
p2209
aVitali
p2210
aVbethesda
p2211
aV2030
p2212
aVlenient
p2213
aVarchiv
p2214
aVsnail
p2215
aVinetg
p2216
aValert
p2217
aV5200
p2218
aVmoment
p2219
aVmicrostrip
p2220
aVchang
p2221
aVrabin
p2222
aVpostag
p2223
aVampl
p2224
aVentri
p2225
aVchemistri
p2226
aVcraven
p2227
aVmid1960
p2228
aVperson
p2229
aVexpens
p2230
aVy
p2231
aVacadem
p2232
aVspend
p2233
aVhowl
p2234
aVmon
p2235
aVexplan
p2236
aVopenli
p2237
aVvanheyningen
p2238
aVmmle
p2239
aVxserver
p2240
aVproisrael
p2241
aVobscur
p2242
aVmacedonian
p2243
aVshape
p2244
aVpozitsiya
p2245
aVsimd
p2246
aVnofre
p2247
aVsimm
p2248
aVdepriv
p2249
aVmandat
p2250
aVcut
p2251
aVfx80
p2252
aVunsecur
p2253
aVcup
p2254
aVpersuad
p2255
aVforbid
p2256
aVrgb
p2257
aVnonhardwar
p2258
aVwin
p2259
aVsnap
p2260
aVinput
p2261
aVunlik
p2262
aVeaster
p2263
aVapproxim
p2264
aVhater
p2265
aVbio
p2266
aVsubroutin
p2267
aVaustralia
p2268
aVinconsequenti
p2269
aVformat
p2270
aVbig
p2271
aVbid
p2272
aVbureaucrat
p2273
aV589tax
p2274
aVbia
p2275
aVtransmit
p2276
aVbiz
p2277
aVlouisvil
p2278
aVbit
p2279
aVformal
p2280
aVknock
p2281
aVd
p2282
aVusercontribut
p2283
aVsequit
p2284
aVpuck
p2285
aVda
p2286
aVexsmok
p2287
aVibmcompat
p2288
aVfouryearold
p2289
aVapi
p2290
aVpatrick
p2291
aVivan
p2292
aV1412
p2293
aVbrenn
p2294
aVoften
p2295
aVgist
p2296
aVcrippl
p2297
aVimpeach
p2298
aVstrongest
p2299
aVsampl
p2300
aVsight
p2301
aVphd85ukackeeleseq1
p2302
aVinsur
p2303
aVbattalion
p2304
aVsheesh
p2305
aVbrent
p2306
aVflamste
p2307
aVculprit
p2308
aVclosest
p2309
aVconnectix
p2310
aVper
p2311
aVcast
p2312
aVpem
p2313
aVmathemat
p2314
aVlarg
p2315
aVrecognis
p2316
aVnewcomb
p2317
aVsaab
p2318
aVnoncommerci
p2319
aVmachin
p2320
aVbe
p2321
aVpatient
p2322
aVbb
p2323
aVbc
p2324
aV300
p2325
aVbm
p2326
aV302
p2327
aVcascad
p2328
aVencyclopaed
p2329
aVbu
p2330
aVpatienc
p2331
aVoem
p2332
aVfrom
p2333
aVmajor
p2334
aVdrbombaynetlinkctscom
p2335
aVimpos
p2336
aVinetray
p2337
aVjuvenil
p2338
aVusa
p2339
aVconstraint
p2340
aVuart
p2341
aVrollov
p2342
aVpcbase
p2343
aVmobadan
p2344
aVhatcher
p2345
aVtruck
p2346
aVdisclosur
p2347
aVgraywork
p2348
aV32bit
p2349
aVscrutini
p2350
aVillmann
p2351
aVrepair
p2352
aVclinton
p2353
aVcolorado
p2354
aVprimarili
p2355
aVirrit
p2356
aVtiff
p2357
aVinto
p2358
aVseamless
p2359
aVsavag
p2360
aVmyk80
p2361
aVsteven
p2362
aVcontributor
p2363
aVlesson
p2364
aVdelliottdigexcom
p2365
aVfreemanwith
p2366
aVnsu
p2367
aVoccupi
p2368
aVinclus
p2369
aVontario
p2370
aVfictiti
p2371
aVseptuagint
p2372
aVsubmit
p2373
aVcustom
p2374
aVinclud
p2375
aVforward
p2376
aVzonkercmuedu
p2377
aVencipher
p2378
aVjewish
p2379
aVposter
p2380
aVlint
p2381
aVpastor
p2382
aVlevequ
p2383
aVdecomposit
p2384
aVlink
p2385
aVsda
p2386
aVatom
p2387
aVline
p2388
aVisra
p2389
aVcia
p2390
aVjohnnessiemccacuk
p2391
aVselfprotect
p2392
aVctsrt
p2393
aVup
p2394
aVus
p2395
aVjoslin
p2396
aVplanet
p2397
aVvgasvga
p2398
aVfpuintens
p2399
aVnonescrow
p2400
aVuk
p2401
aValarm
p2402
aVinsignia
p2403
aVsort
p2404
aVnvm
p2405
aVcypriot
p2406
aVinkjet
p2407
aVmetal
p2408
aVdesqviewx
p2409
aVmckinnon
p2410
aVchar
p2411
aVcure
p2412
aVcview
p2413
aVdoe
p2414
aV4dx33v
p2415
aVcoder
p2416
aVparadox
p2417
aVroesvaxoxfordacuk
p2418
aVcrypt
p2419
aVsequenti
p2420
aVscrape
p2421
aVyigal
p2422
aVpfuetzner
p2423
aVbracket
p2424
aVtuff
p2425
aVretract
p2426
aVloasilcitilillefr
p2427
aVlistserv
p2428
aVrevision
p2429
aVxroach
p2430
aV700000
p2431
aVlend
p2432
aVimpress
p2433
aVaust
p2434
aVximenez
p2435
aVdeserv
p2436
aVago
p2437
aVnight
p2438
aVlane
p2439
aVland
p2440
aVfighter
p2441
aVapostol
p2442
aValgorithm
p2443
aVpolyray
p2444
aVinaccuraci
p2445
aVage
p2446
aVaga
p2447
aVdiscrimin
p2448
aV2000
p2449
aVtrain
p2450
aVdot
p2451
aV2004
p2452
aVwalker
p2453
aVfresh
p2454
aVlifeandor
p2455
aVhello
p2456
aVcode
p2457
aVjason
p2458
aVscratch
p2459
aVantisemit
p2460
aVwordperfect
p2461
aVpeaceabl
p2462
aVsudaan
p2463
aVslick
p2464
aVpctcp
p2465
aVbait
p2466
aVvcpicompat
p2467
aVquarantin
p2468
aVprivat
p2469
aVprocur
p2470
aVcougarecnuoknoredu
p2471
aVsensit
p2472
aVcantuac533emcv7
p2473
aVelsewher
p2474
aVyoung
p2475
aVsend
p2476
aVspectromet
p2477
aVvisavi
p2478
aVsens
p2479
aVfatal
p2480
aVinadmiss
p2481
aV8900
p2482
aVblackmag
p2483
aVramdriv
p2484
aV8xx
p2485
aVstereoscop
p2486
aVtulsa
p2487
aVdisclos
p2488
aVvlb
p2489
aVi486
p2490
aVxtbase
p2491
aVmous
p2492
aVp9000resdat
p2493
aVvolum
p2494
aVdisast
p2495
aVuntouch
p2496
aVisaiah
p2497
aVwipe
p2498
aVgurion
p2499
aVnoncolour
p2500
aVtri
p2501
aVmagic
p2502
aVmizzou1missouriedu
p2503
aVshock
p2504
aVgeograph
p2505
aVkansa
p2506
aVrace
p2507
aVmisspel
p2508
aVhavent
p2509
aVrack
p2510
aVintegra
p2511
aVchicogo
p2512
aVvehicl
p2513
aVimpli
p2514
aV592
p2515
aVcupc51cv1mll
p2516
aVnatur
p2517
aVvideo
p2518
aVhc11
p2519
aVbopper2phxmcdmotcom
p2520
aVnineveh
p2521
aVcopenhagen
p2522
aVodd
p2523
aVchildcar
p2524
aV3x
p2525
aVmacus
p2526
aVnestoriu
p2527
aVmultimedia
p2528
aVwinchest
p2529
aVstillyou
p2530
aVaccess
p2531
aVindian
p2532
aVwalterraincom
p2533
aVumbdrv
p2534
aV3d
p2535
aVlutheran
p2536
aVled
p2537
aVghicacyclop
p2538
aVleg
p2539
aVpunch
p2540
aVlen
p2541
aVbodi
p2542
aVintercept
p2543
aVlet
p2544
aVeuro
p2545
aVtremor
p2546
aVbode
p2547
aVsinc
p2548
aVgreat
p2549
aV38
p2550
aVmailinglist
p2551
aV170134
p2552
aV33
p2553
aV32
p2554
aV31
p2555
aV30
p2556
aV37
p2557
aV36
p2558
aV35
p2559
aV34
p2560
aVresurrect
p2561
aVwindowsprintcaptur
p2562
aVsurvey
p2563
aVftpccalmrogiedu
p2564
aVopinion
p2565
aVimplement
p2566
aVmaker
p2567
aVoddbal
p2568
aVcalibr
p2569
aVunquest
p2570
aVrsinternicnet
p2571
aVfoundat
p2572
aVsgi
p2573
aVgordon
p2574
aVscandal
p2575
aVmultitask
p2576
aVsermon
p2577
aVcommun
p2578
aV4516644
p2579
aVupgrad
p2580
aVflat
p2581
aVnext
p2582
aVsoftengcsuwmedu
p2583
aVdoubt
p2584
aVbutler
p2585
aVautior
p2586
aVpencil
p2587
aV1canuck
p2588
aVsrc
p2589
aVbabi
p2590
aVsg7
p2591
aVchariti
p2592
aViie
p2593
aViig
p2594
aVol
p2595
aVpes3cunixfcccolumbiaedu
p2596
aVcentral
p2597
aVvelapold
p2598
aVfan
p2599
aVreproduct
p2600
aVaccount
p2601
aVocr
p2602
aVf
p2603
aVtunnel
p2604
aVoh
p2605
aVunopen
p2606
aVobvious
p2607
aVthin
p2608
aVcondescend
p2609
aVdidnt
p2610
aValiv
p2611
aVemploye
p2612
aVedgetacalcul
p2613
aVprochoic
p2614
aVprocess
p2615
aVlock
p2616
aVpreformat
p2617
aVrode
p2618
aVsulfit
p2619
aVhigh
p2620
aVparaphras
p2621
aVslip
p2622
aVonlin
p2623
aVcrimin
p2624
aVtrumpet
p2625
aVcontempt
p2626
aVcsdvax1993apr150018133907
p2627
aVibmpc
p2628
aVgcc
p2629
aVbhutaninstmedtroniccom
p2630
aVreuter
p2631
aVsuburb
p2632
aVdemocraci
p2633
aVxtwindowcanva
p2634
aVstock
p2635
aVinhal
p2636
aVwaitlist
p2637
aVwatch
p2638
aVawait
p2639
aVpikochemute
p2640
aVhorrer
p2641
aVphilosophi
p2642
aVphysic
p2643
aVeasilycompromis
p2644
aValloc
p2645
aVessenti
p2646
aVseriou
p2647
aVguru
p2648
aVcorrespond
p2649
aVwintrumpet
p2650
aVissu
p2651
aV0625
p2652
aVlikud
p2653
aVallot
p2654
aVallow
p2655
aVbauder
p2656
aVmainfram
p2657
aVadjust
p2658
aVdx
p2659
aVmovi
p2660
aVanon
p2661
aVmove
p2662
aVgalaxi
p2663
aVnonturbo
p2664
aVblacksybasecom
p2665
aVgeorg
p2666
aVbunch
p2667
aVperfect
p2668
aVld
p2669
aVlc
p2670
aV640x480
p2671
aVchosen
p2672
aVhobbi
p2673
aVfaxcomm
p2674
aVlabor
p2675
aVwilling
p2676
aVdp
p2677
aVverison
p2678
aVdecad
p2679
aVtherefor
p2680
aVgreater
p2681
aVtoppl
p2682
aVdan
p2683
aVoveral
p2684
aVpseudocolor
p2685
aVmention
p2686
aVgamemisconduct
p2687
aVtehlerian
p2688
aVtrade
p2689
aVday
p2690
aVanyth
p2691
aVcontus
p2692
aVastronom
p2693
aVchri
p2694
aVtruth
p2695
aVshouldercal
p2696
aVfeldman
p2697
aVstarnet
p2698
aVsocieti
p2699
aVelan
p2700
aVtranni
p2701
aVintellig
p2702
aVbooki
p2703
aVthirdlin
p2704
aVpatch
p2705
aVsexual
p2706
aVwander
p2707
aVmight
p2708
aVvariabl
p2709
aVskipjack
p2710
aVmatt
p2711
aVdopler
p2712
aV65k
p2713
aVspectrum
p2714
aVdefend
p2715
aVret
p2716
aVrepress
p2717
aVcwi
p2718
aVfmsrl71pqf9oinn88
p2719
aVren
p2720
aVrel
p2721
aVdefens
p2722
aVred
p2723
aV411
p2724
aVshut
p2725
aVperish
p2726
aVinsid
p2727
aVfrank
p2728
aVpl810
p2729
aVinvad
p2730
aVstandalon
p2731
aVnntppostinghost
p2732
aVreleas
p2733
aVpcxremot
p2734
aVrutherford
p2735
aVbleed
p2736
aVliant
p2737
aVb752
p2738
aVeverex
p2739
aVmidi
p2740
aVcould
p2741
aVopengl
p2742
aVdavid
p2743
aVenforc
p2744
aVoutsid
p2745
aVpresid
p2746
aVretain
p2747
aVincrimin
p2748
aVretail
p2749
aVscare
p2750
aVsouth
p2751
aVendors
p2752
aVinfantryman
p2753
aVattent
p2754
aVblown
p2755
aVhex
p2756
aVfranki
p2757
aVscene
p2758
aVphiladelphia
p2759
aVcyberspac
p2760
aVepiskopo
p2761
aVsharewar
p2762
aVpgp
p2763
aVowner
p2764
aVfacil
p2765
aVhawk
p2766
aVdoublepark
p2767
aVlicens
p2768
aVvulgar
p2769
aVsystem
p2770
aVprecarterphon
p2771
aVbackdoor
p2772
aVpascal
p2773
aVwaterg
p2774
aVracist
p2775
aVnorton
p2776
aVaccessbu
p2777
aVlow
p2778
aVback
p2779
aVgear
p2780
aVadaptor
p2781
aVgotcha
p2782
aVfose
p2783
aVmigrain
p2784
aVrenderman
p2785
aVsubmiss
p2786
aV250denningcsgeorgetownedu
p2787
aVnobodi
p2788
aVmcovingtaiugaedu
p2789
aVsteel
p2790
aVslack
p2791
aVmorph
p2792
aVembodi
p2793
aVballard
p2794
aVbother
p2795
aVstructur
p2796
aVcharact
p2797
aVsweden
p2798
aVpsalm
p2799
aVbind
p2800
aVstricter
p2801
aVpsycholog
p2802
aVmisunderstand
p2803
aVimho
p2804
aVterribl
p2805
aVamphotericin
p2806
aVpartnership
p2807
aVclearli
p2808
aVrobot
p2809
aVmax641
p2810
aVhave
p2811
aVwwiv
p2812
aVaudaci
p2813
aVmil
p2814
aVmio
p2815
aVsdio
p2816
aV4000
p2817
aVchief
p2818
aVt2000
p2819
aVgd5426
p2820
aVmix
p2821
aVstragegi
p2822
aViivx
p2823
aVmit
p2824
aVcourtesi
p2825
aVunless
p2826
aVmcgill
p2827
aVpreliminari
p2828
aVsfu
p2829
aVdoug
p2830
aVfullcolor
p2831
aV01
p2832
aVeight
p2833
aVsedan
p2834
aVcomparison
p2835
aVsegment
p2836
aVfaci
p2837
aVgather
p2838
aVhardcod
p2839
aVpreselect
p2840
aVface
p2841
aVkeyescrow
p2842
aVprobulfapplelinkapplecom
p2843
aVinstit
p2844
aVhardcor
p2845
aV38620mhz
p2846
aVfact
p2847
aVxop
p2848
aV4mg
p2849
aVswastica
p2850
aVdbm
p2851
aVtext
p2852
aVbring
p2853
aVseq1cckeeleacuk
p2854
aVempir
p2855
aVtrivial
p2856
aVcryptograph
p2857
aVthigh
p2858
aVredirect
p2859
aVseizur
p2860
aVbicycl
p2861
aVnois
p2862
aVjay
p2863
aVcategor
p2864
aVmadman
p2865
aVshould
p2866
aVprolong
p2867
aVsatan
p2868
aV1024x768x16
p2869
aVgouroud
p2870
aVcommunist
p2871
aVtude
p2872
aVhope
p2873
aVweitek
p2874
aVdevnul
p2875
aVmtu
p2876
aVdualinlin
p2877
aVbeat
p2878
aVliddelow
p2879
aVbackground
p2880
aVbear
p2881
aVautom
p2882
aVbeal
p2883
aVbeam
p2884
aVbean
p2885
aVincreas
p2886
aV30bo
p2887
aVorgan
p2888
aVh
p2889
aVreid
p2890
aVzamboni
p2891
aVevolutionari
p2892
aVintegr
p2893
aVcyberman
p2894
aVohio
p2895
aVgibson
p2896
aVnist
p2897
aVconform
p2898
aVbtw
p2899
aVshrikeundacza
p2900
aVstepwis
p2901
aVframe
p2902
aVpinout
p2903
aVpacket
p2904
aVbrintonicdteradynecom
p2905
aVtemporarili
p2906
aVabfdefghiijklmmnohpp
p2907
aVparticl
p2908
aV1376613011
p2909
aVwire
p2910
aVsimtel20
p2911
aVreform
p2912
aVnuclear
p2913
aVnationwid
p2914
aV106112
p2915
aVblaster
p2916
aVprogress
p2917
aVyoull
p2918
aVemail
p2919
aVbrune
p2920
aVplcc
p2921
aVsuperior
p2922
aVaaplayex
p2923
aVrcampbelweejordyphysicsmunca
p2924
aVdislik
p2925
aVarmenia
p2926
aVxfilesearchpath
p2927
aVdisput
p2928
aVundoubt
p2929
aVradiuswar
p2930
aVdrum
p2931
aVgoldin
p2932
aVantineoplaston
p2933
aVequal
p2934
aVdrug
p2935
aVsidiropoulo
p2936
aVwellmind
p2937
aVhostname10
p2938
aVinstanc
p2939
aVequat
p2940
aVlo
p2941
aVswim
p2942
aVswallow
p2943
aVautofil
p2944
aVcomment
p2945
aVci
p2946
aVch
p2947
aVco
p2948
aV386
p2949
aVyuppi
p2950
aVcl
p2951
aVcc
p2952
aVguidelin
p2953
aVmalcolm
p2954
aVrevamp
p2955
aVcd
p2956
aVvend
p2957
aVucc
p2958
aVarguement
p2959
aVcs
p2960
aV2800
p2961
aVremorseless
p2962
aVcv
p2963
aV600
p2964
aVattende
p2965
aVswimmer
p2966
aVquotat
p2967
aVcopier
p2968
aVtriniti
p2969
aVinsuffici
p2970
aVrhode
p2971
aVgaze
p2972
aVelectr
p2973
aVtrajectori
p2974
aVimmedi
p2975
aVderian
p2976
aVmanretard
p2977
aV57x
p2978
aVupcom
p2979
aVadob
p2980
aVaustralasian
p2981
aVal
p2982
aVdeliber
p2983
aVaccident
p2984
aVtogeth
p2985
aVbull
p2986
aVatlanta
p2987
aVvort
p2988
aVc7
p2989
aVbanish
p2990
aVmamishev
p2991
aVlaser
p2992
aVirregular
p2993
aVimplementaion
p2994
aVplain
p2995
aVrectangular
p2996
aVbosniaherzegovina
p2997
aVrbi
p2998
aVultra
p2999
aVhowev
p3000
aVscreendriv
p3001
aVvb
p3002
aVdivulg
p3003
aVrealis
p3004
aVaw
p3005
aVviru
p3006
aVvm
p3007
aVcharmap
p3008
aVquicktrak
p3009
aVvs
p3010
aVsubstanti
p3011
aVviewyou
p3012
aVincom
p3013
aVinspector
p3014
aVsurprisingli
p3015
aVterrorist
p3016
aVprogerman
p3017
aVjapanes
p3018
aVschismat
p3019
aVlocaltalk
p3020
aVpractici
p3021
aVsatisfi
p3022
aVmatthew
p3023
aVnada
p3024
aV1meg
p3025
aVdisc
p3026
aVcompetit
p3027
aVspell
p3028
aVcolumbia
p3029
aVpeic
p3030
aVagain
p3031
aVexpans
p3032
aVdrink
p3033
aVupon
p3034
aVkopek
p3035
aVeurocrypt
p3036
aV0k
p3037
aVcanva
p3038
aVexpand
p3039
aVdat
p3040
aVoff
p3041
aVcenter
p3042
aVtimerdriven
p3043
aVrecondit
p3044
aVcolour
p3045
aVaboudamceeclarksonedu
p3046
aVseti
p3047
aVantonio
p3048
aVthought
p3049
aVsun3eeamelincoat
p3050
aVexampl
p3051
aVcommand
p3052
aV350
p3053
aVaudio
p3054
aVsoviet
p3055
aVgs650
p3056
aVlatest
p3057
aVnewest
p3058
aVless
p3059
aVcompel
p3060
aVconferenc
p3061
aVclinic
p3062
aVsurpass
p3063
aVshuttl
p3064
aVtone
p3065
aVpaul
p3066
aVsystemat
p3067
aVdemograph
p3068
aVclipper
p3069
aVweb
p3070
aVrepublican
p3071
aVkampf
p3072
aVwed
p3073
aVwimpi
p3074
aVarrest
p3075
aVadd
p3076
aVadb
p3077
aVadc
p3078
aVada
p3079
aVcompet
p3080
aVadl
p3081
aVmatch
p3082
aV286
p3083
aVvulner
p3084
aVatrophi
p3085
aVchancellor
p3086
aVfyi
p3087
aVpiec
p3088
aVpreponder
p3089
aVrealiz
p3090
aVfive
p3091
aVdesk
p3092
aVgmt
p3093
aVtranspond
p3094
aVinsert
p3095
aVbussard
p3096
aVresid
p3097
aVlike
p3098
aVsuccess
p3099
aVcorpor
p3100
aVdoctrin
p3101
aVsolomontechnetsg
p3102
aVjournalist
p3103
aVporou
p3104
aVconro
p3105
aVsoft
p3106
aVxtdisplaycanva
p3107
aVitalian
p3108
aVpoor
p3109
aVpropel
p3110
aVcaptur
p3111
aVagassizcasundnodakedu
p3112
aVhair
p3113
aVdougla
p3114
aVconvey
p3115
aVconvex
p3116
aVproper
p3117
aVguarante
p3118
aVmihir
p3119
aVballot
p3120
aVtransport
p3121
aVguid
p3122
aVfeder
p3123
aV256
p3124
aVavoid
p3125
aVterri
p3126
aVdoen
p3127
aVkxp1124
p3128
aVdisciplin
p3129
aVesa
p3130
aV255
p3131
aVhorsepow
p3132
aV525ix
p3133
aVmnemon
p3134
aVdigestif
p3135
aV204256
p3136
aVhost
p3137
aVdcx
p3138
aV486dx33
p3139
aVdct
p3140
aVxrpc
p3141
aVpanel
p3142
aVplastic
p3143
aVsister
p3144
aVactual
p3145
aVinterven
p3146
aVharvard
p3147
aVjustic
p3148
aVofftheshelf
p3149
aVdocumentari
p3150
aVstatement
p3151
aVfals
p3152
aVdiscard
p3153
aVpl11
p3154
aVtome
p3155
aVamigancupportalcom
p3156
aVtheyr
p3157
aVcompsourcesmisc
p3158
aVdesper
p3159
aVtheyv
p3160
aVxmailer
p3161
aVchronic
p3162
aVguard
p3163
aVdoesnt
p3164
aVsparcstat
p3165
aVtheyd
p3166
aVmere
p3167
aVuninvolv
p3168
aV1986
p3169
aVsander
p3170
aVprocessor
p3171
aV1982
p3172
aVancedot
p3173
aVwaco
p3174
aVpictur
p3175
aVassumpt
p3176
aVsnmp
p3177
aVdispit
p3178
aV1989
p3179
aVutopian
p3180
aVbiggest
p3181
aV480
p3182
aVbd
p3183
aVappleshar
p3184
aVstudentsw
p3185
aVrcc
p3186
aVdeliveri
p3187
aVauitobnc
p3188
aVunexpect
p3189
aVinnoc
p3190
aVbrand
p3191
aVbut
p3192
aVmicrocouri
p3193
aVbui
p3194
aVrachtin
p3195
aVbug
p3196
aVga5000
p3197
aVcount
p3198
aVwise
p3199
aV1189
p3200
aVseiz
p3201
aV5426
p3202
aVrc2
p3203
aVvolvo
p3204
aVcapriccioso
p3205
aVtini
p3206
aVtrapezoid
p3207
aVproblem
p3208
aVplutonium
p3209
aVnetbio
p3210
aVirish
p3211
aVmultiauthor
p3212
aVpin
p3213
aV25k
p3214
aV178068
p3215
aVpia
p3216
aVhandset
p3217
aVpic
p3218
aVcastleman
p3219
aVpig
p3220
aVimc10mednavymil
p3221
aVcircul
p3222
aVine
p3223
aVsemiauto
p3224
aVpit
p3225
aVcodebas
p3226
aVinc
p3227
aVautomot
p3228
aVbj200
p3229
aV48
p3230
aV49
p3231
aVrelatif
p3232
aV47
p3233
aVguidanc
p3234
aV45
p3235
aV42
p3236
aVdetail
p3237
aVvirtual
p3238
aV41
p3239
aVpsuedocolor
p3240
aVvarieti
p3241
aVu
p3242
aV85
p3243
aVfirstorg
p3244
aVtrickl
p3245
aVlogicclarksonedu
p3246
aVselim
p3247
aVmonday
p3248
aVaerospac
p3249
aVmcarthyit
p3250
aVtelnet
p3251
aVv17v29v27ter
p3252
aVspreadsheet
p3253
aVrepeal
p3254
aVafhetzelnetcomcom
p3255
aV4x
p3256
aVwuarchiv
p3257
aVrule
p3258
aVpeopleaccord
p3259
aV4m
p3260
aV3193
p3261
aVsyllabi
p3262
aVlaunchpaduncedu
p3263
aVyell
p3264
aV455khz
p3265
aVdivers
p3266
aVulrichgalkitoppointd
p3267
aVapproxmi
p3268
aVpoorli
p3269
aVsleep
p3270
aVnmea
p3271
aViocard
p3272
aVwinjet
p3273
aVhate
p3274
aVonur
p3275
aVsecretli
p3276
aVttyl
p3277
aVwhack
p3278
aVbike
p3279
aVcertain
p3280
aVunder
p3281
aVregal
p3282
aV9000730
p3283
aVspec
p3284
aVsnoop
p3285
aVeveri
p3286
aVrisk
p3287
aVimpart
p3288
aVrisc
p3289
aVmissionari
p3290
aVhardwar
p3291
aVjack
p3292
aVdfmorganacshardingedu
p3293
aVquantit
p3294
aVnasamsfc
p3295
aVchapel
p3296
aVcmo
p3297
aVschool
p3298
aVhisher
p3299
aVflashi
p3300
aVpcxtatps2
p3301
aVcmd
p3302
aVhuddl
p3303
aVhonor
p3304
aVenquir
p3305
aVmath
p3306
aVnewsland
p3307
aVreinvent
p3308
aVservic
p3309
aVsalubri
p3310
aVenjoy
p3311
aVpaperback
p3312
aVthrought
p3313
aVxbase
p3314
aVdirect
p3315
aVnail
p3316
aVhighpow
p3317
aVhors
p3318
aVstreet
p3319
aVpn48
p3320
aVspect
p3321
aVoverdr
p3322
aVblue
p3323
aV20char
p3324
aVchrist
p3325
aVbiolog
p3326
aVdcd8
p3327
aVintrospect
p3328
aVcalcul
p3329
aVpoison
p3330
aVcommuniqu
p3331
aVconduct
p3332
aVsupplier
p3333
aVneat
p3334
aVtopolog
p3335
aVliberti
p3336
aVtold
p3337
aVcrunch
p3338
aVzack
p3339
aVobjectwindow
p3340
aV2m
p3341
aVstudio
p3342
aVpleasur
p3343
aVdaughter
p3344
aVforum
p3345
aVanymor
p3346
aVtruecolor
p3347
aVprecis
p3348
aVsmoke
p3349
aVembarras
p3350
aV8plane
p3351
aVbunker
p3352
aVstudi
p3353
aVpcat
p3354
aVchanger
p3355
aVportabl
p3356
aVstray
p3357
aVmaxtor
p3358
aVnewspap
p3359
aVinfield
p3360
aVspigot
p3361
aVceremonypubl
p3362
aVbro
p3363
aVcompgraphicsvisu
p3364
aVattitud
p3365
aVmathsoft
p3366
aV1024x758
p3367
aVtomigcapcorg
p3368
aVhighli
p3369
aVplot
p3370
aVdescrib
p3371
aVwould
p3372
aVpalestinian
p3373
aV16384processor
p3374
aV1248163264128
p3375
aVoff_
p3376
aVinsult
p3377
aVindiana
p3378
aV2830
p3379
aVmimevers
p3380
aVbr1
p3381
aVtoolkit
p3382
aVmathew
p3383
aVphone
p3384
aVmather
p3385
aVnowif
p3386
aVvpl
p3387
aVendometriosi
p3388
aVmust
p3389
aVme
p3390
aV1990
p3391
aV1993
p3392
aV1992
p3393
aVjoin
p3394
aVerr
p3395
aVmb
p3396
aV1999
p3397
aVmo
p3398
aVwork
p3399
aVcant
p3400
aVtecum
p3401
aVmt
p3402
aVwors
p3403
aV80bit
p3404
aVmp
p3405
aVms
p3406
aVerc
p3407
aV1280x1024
p3408
aVmy
p3409
aVraod
p3410
aVloosen
p3411
aV554
p3412
aVin
p3413
aV550
p3414
aVindic
p3415
aVsemipract
p3416
aVcoalit
p3417
aVwoman
p3418
aVbasebal
p3419
aVtitledrag
p3420
aVattract
p3421
aVend
p3422
aVfstgds15tugrazacat
p3423
aVconcid
p3424
aVordinari
p3425
aVpreregist
p3426
aVceremoni
p3427
aVconcis
p3428
aVshred
p3429
aVsever
p3430
aVtoxic
p3431
aVverifi
p3432
aV4cylind
p3433
aVktt3unixbtonacuk
p3434
aVcollaps
p3435
aVu28037uicvmuicedu
p3436
aVlan
p3437
aVrecogn
p3438
aVlai
p3439
aVsimplemayb
p3440
aVmess
p3441
aVchines
p3442
aVafter
p3443
aVmantiscouk
p3444
aVlab
p3445
aVbefor
p3446
aVlay
p3447
aVxwindow
p3448
aVshortsight
p3449
aV286i
p3450
aVcircumscrib
p3451
aVparallel
p3452
aVdemonstr
p3453
aVmemori
p3454
aVshaki
p3455
aVjwhcitiumichedu
p3456
aVspous
p3457
aVgreet
p3458
aVexclud
p3459
aVgreek
p3460
aVenviron
p3461
aVfreeshar
p3462
aVreloc
p3463
aVenter
p3464
aV48bit
p3465
aVgreec
p3466
aVmokhtarian
p3467
aVorder
p3468
aVomnipot
p3469
aVcomposit
p3470
aVeisa
p3471
aVsoftwar
p3472
aVconsent
p3473
aVover
p3474
aVorang
p3475
aVbecaus
p3476
aVjpeg
p3477
aVsoftwareonli
p3478
aVb63519studentcwruedu
p3479
aVlondon
p3480
aVdigest
p3481
aVpuffi
p3482
aVraymakerbcmtmcedu
p3483
aVdenver
p3484
aVoffic
p3485
aVclx
p3486
aVcommodor
p3487
aV400
p3488
aVcomprehens
p3489
aVbelittl
p3490
aVclv
p3491
aV6172532781
p3492
aVshear
p3493
aVthen
p3494
aVthem
p3495
aVsciamanda
p3496
aVthee
p3497
aVsafe
p3498
aVlayoff
p3499
aV8175654060
p3500
aVbreak
p3501
aVband
p3502
aVthey
p3503
aV32kb
p3504
aVenamor
p3505
aVchoic
p3506
aVvictori
p3507
aVbosnia
p3508
aVodbc
p3509
aVl
p3510
aVundermin
p3511
aVnaysay
p3512
aVxdpyinfo
p3513
aVeach
p3514
aV926540837
p3515
aVbearli
p3516
aVagress
p3517
aVprohibit
p3518
aVsystemcommand
p3519
aVreqir
p3520
aVcolleagu
p3521
aVleftist
p3522
aV_know_
p3523
aVdepress
p3524
aV366th
p3525
aVnetwork
p3526
aVbankpag
p3527
aVgoe
p3528
aVgod
p3529
aVwgt
p3530
aVpalac
p3531
aVtulkarm
p3532
aVgot
p3533
aVware
p3534
aVgov
p3535
aVforth
p3536
aVarizona
p3537
aVworthwhil
p3538
aVfree
p3539
aVstandard
p3540
aVnth
p3541
aVrevernmsuedu
p3542
aVevil
p3543
aVinoc
p3544
aVfreq
p3545
aVastroresearch
p3546
aVprecompil
p3547
aVpuzzl
p3548
aVgoldmin
p3549
aVangl
p3550
aVritual
p3551
aVlongterm
p3552
aVbeefedup
p3553
aVsidebysid
p3554
aVfilter
p3555
aVhammercdchpcom
p3556
aVfivehundr
p3557
aVonto
p3558
aVedward
p3559
aVrang
p3560
aVrender
p3561
aVnhl
p3562
aVindepend
p3563
aVcommercialpd
p3564
aVnecess
p3565
aVrestrict
p3566
aVrant
p3567
aValreadi
p3568
aVmessag
p3569
aVchopper
p3570
aVfrighteningli
p3571
aVfantast
p3572
aVprimari
p3573
aVozal
p3574
aVnomin
p3575
aVattach
p3576
aVtop
p3577
aVattack
p3578
aVfiction
p3579
aVtimothi
p3580
aVton
p3581
aVtoo
p3582
aVtom
p3583
aVjohn
p3584
aVautoanswerautodi
p3585
aVmurder
p3586
aVconsol
p3587
aVnetwar
p3588
aVgrandchildren
p3589
aVquattro
p3590
aVtool
p3591
aVtook
p3592
aVcompressor
p3593
aVqemm386
p3594
aVincur
p3595
aVwestern
p3596
aVtermin
p3597
aVincompatib
p3598
aVtotten
p3599
aVlather
p3600
aVtoronto
p3601
aVcitibank
p3602
aVprovid
p3603
aVthx
p3604
aVexcommun
p3605
aVmerci
p3606
aVflame
p3607
aVexpn
p3608
aViron
p3609
aVdesign
p3610
aVminut
p3611
aV10th
p3612
aVprovis
p3613
aVlatitud
p3614
aVcontenti
p3615
aVcoxial
p3616
aVran
p3617
aVram
p3618
aVtaint
p3619
aVraw
p3620
aVinterfac
p3621
aVray
p3622
aVreali
p3623
aVponder
p3624
aVstrength
p3625
aVsnow
p3626
aVsnot
p3627
aVknowleg
p3628
aVclient
p3629
aVmmilitzoskidmoreedu
p3630
aVnetland
p3631
aVshelf
p3632
aVthoma
p3633
aVthoroughli
p3634
aVextravers
p3635
aVpredominantli
p3636
aVcurv
p3637
aVgermani
p3638
aVplenti
p3639
aVthough
p3640
aVbruce
p3641
aVwhat
p3642
aVfigmonetcomcom
p3643
aVsatisfaxt
p3644
aVpreset
p3645
aVaccesss
p3646
aVphase
p3647
aVcoil
p3648
aV16bit
p3649
aVeveryth
p3650
aVrosenkranz
p3651
aVhaapanen
p3652
aVexcus
p3653
aVkelbadjar
p3654
aVaccord
p3655
aVrusch
p3656
aVcathol
p3657
aVflow
p3658
aVbesieg
p3659
aVdeclar
p3660
aVpixrect
p3661
aVoppress
p3662
aVyank
p3663
aV52win
p3664
aVfade
p3665
aV78727
p3666
aVopposit
p3667
aVrandom
p3668
aVradiu
p3669
aVdupe
p3670
aVsanctuari
p3671
aVradio
p3672
aVradic
p3673
aVearth
p3674
aVbail
p3675
aVd0
p3676
aVbaio
p3677
aVinvolv
p3678
aVabsolut
p3679
aVapost
p3680
aVrexlex
p3681
aVrundown
p3682
aVconfigur
p3683
aVinstitution
p3684
aVturboborland
p3685
aV600000
p3686
aVsyquest
p3687
aVcoreleft
p3688
aVhpux
p3689
aVdo
p3690
aVtammi
p3691
aVdi
p3692
aVdg
p3693
aVde
p3694
aVdb
p3695
aVfluid
p3696
aV550a
p3697
aVgeek
p3698
aVcryptographi
p3699
aVreport
p3700
aVonboard
p3701
aVdr
p3702
aVscoriat
p3703
aVdevguid
p3704
aVemg
p3705
aVfurst
p3706
aVmearli
p3707
aVdiabet
p3708
aVdeskjet
p3709
aVbem
p3710
aVpublic
p3711
aV414
p3712
aVtwice
p3713
aVdgree
p3714
aVhumanist
p3715
aV413
p3716
aVsteal
p3717
aVreread
p3718
aVsethnorth13acpubdukeedu
p3719
aVmotherboard
p3720
aVassualt
p3721
aVcica
p3722
aVparol
p3723
aVbeg
p3724
aVresist
p3725
aVw1
p3726
aVcorrupt
p3727
aViran
p3728
aVexpertis
p3729
aVawar
p3730
aVdatabas
p3731
aVaway
p3732
aVbitnet
p3733
aVdiscoveri
p3734
aVmud
p3735
aVfinger
p3736
aVatroc
p3737
aVbitspixel
p3738
aV92
p3739
aVapproach
p3740
aV360
p3741
aV361
p3742
aVwe
p3743
aVwa
p3744
aVkimbal
p3745
aVlobbyist
p3746
aVweak
p3747
aVcontort
p3748
aVwh
p3749
aVwear
p3750
aVwp
p3751
aVnews
p3752
aVdosbas
p3753
aVtcpip
p3754
aVcop
p3755
aVprotect
p3756
aVframebuff
p3757
aVcow
p3758
aVnfid
p3759
aVoppinion
p3760
aVfault
p3761
aVill
p3762
aVmyer
p3763
aVfafter
p3764
aVsteer
p3765
aVjupitercseutoledoedu
p3766
aVbrad
p3767
aVtomhmetricscom
p3768
aVski
p3769
aVcom
p3770
aVcon
p3771
aVtough
p3772
aVheali
p3773
aVtoni
p3774
aVcharacter
p3775
aVexcess
p3776
aVrsaref
p3777
aVshaftdriven
p3778
aVkaren
p3779
aVwider
p3780
aVparadis
p3781
aVtrust
p3782
aVspeak
p3783
aV2202
p3784
aVstrong
p3785
aV0183
p3786
aVfortran
p3787
aVhightech
p3788
aVinfinit
p3789
aVbeen
p3790
aVbeep
p3791
aVaccumul
p3792
aVvalu
p3793
aVsubscrib
p3794
aVquickli
p3795
aVbaud
p3796
aVsprite
p3797
aValtoca
p3798
aVxxx
p3799
aVuncommon
p3800
aVcraft
p3801
aVtaxat
p3802
aVcatch
p3803
aVsabotag
p3804
aV1378113
p3805
aVphysician
p3806
aVgnp
p3807
aVident
p3808
aVaix
p3809
aVgnu
p3810
aVlauncher
p3811
aVgopath
p3812
aVproperti
p3813
aVair
p3814
aVaim
p3815
aVdept
p3816
aVnolong
p3817
aVaid
p3818
aVvagu
p3819
aVsucces
p3820
aVdizzi
p3821
aVfourteenth
p3822
aVegan
p3823
aVharddriv
p3824
aVaspi4do
p3825
aVbrake
p3826
aVhebrew
p3827
aVv326
p3828
aVperform
p3829
aVsuggest
p3830
aVgregg
p3831
aVwound
p3832
aVdean
p3833
aVcomplex
p3834
aV1800mullerloriafr
p3835
aVopenwindow
p3836
aVcomplet
p3837
aVnih
p3838
aVxxxdate
p3839
aVraid
p3840
aVevid
p3841
aVsaddam
p3842
aVsystemflinkdiscon
p3843
aVpick
p3844
aVhang
p3845
aVbuyback
p3846
aVhand
p3847
aVnorwegian
p3848
aVrais
p3849
aVma_ind25blurtoswegoedu
p3850
aVtil311
p3851
aVsamsonkihno
p3852
aVoverthrew
p3853
aVkept
p3854
aVundesir
p3855
aVscenario
p3856
aV1978
p3857
aV1600
p3858
aVthu
p3859
aVdriv
p3860
aV1972
p3861
aV1971
p3862
aV1970
p3863
aVsdpa
p3864
aVcontact
p3865
aVcaringforwristsp
p3866
aVthi
p3867
aVthe
p3868
aVcampu
p3869
aVepa
p3870
aVhprpcdrosehpcom
p3871
aVstringent
p3872
aVindigo
p3873
aVdissid
p3874
aVvlbide
p3875
aVphoto
p3876
aVlaptop
p3877
aVfireston
p3878
aV7145868811
p3879
aVvictim
p3880
aVaccuraci
p3881
aVdotprint
p3882
aVa0000affff
p3883
aVjose
p3884
aVlossani
p3885
aVeli
p3886
aVexpos
p3887
aVelm
p3888
aVjosh
p3889
aVbuiltin
p3890
aVquaddens
p3891
aVboard
p3892
aV5e
p3893
aVels
p3894
aVrighteous
p3895
aVgave
p3896
aVquicktim
p3897
aVmayb
p3898
aVrng
p3899
aVdonat
p3900
aVarab
p3901
aVfusion
p3902
aVleagu
p3903
aVmitsumi
p3904
aVretreat
p3905
aVapart
p3906
aVamok
p3907
aVherebi
p3908
aV59
p3909
aVsubmachin
p3910
aVarbitrari
p3911
aV55
p3912
aVcontradict
p3913
aV57
p3914
aV56
p3915
aV51
p3916
aV50
p3917
aV53
p3918
aV52
p3919
aVserbian
p3920
aVpl7
p3921
aVpl6
p3922
aVpl5
p3923
aVpl2
p3924
aVmurashieamailbeckmancom
p3925
aVdishonest
p3926
aVjefferi
p3927
aVpl9
p3928
aVpl8
p3929
aVborn
p3930
aVcontagiosem
p3931
aVjfelderlercnasagov
p3932
aVflatten
p3933
aVigc
p3934
aVorchid
p3935
aVfluxisralaskaedu
p3936
aVascona
p3937
aVcooper
p3938
aVtestinstrumentsmeterpowersupplyoscilloscopestorag
p3939
aVzionist
p3940
aVicf
p3941
aVice
p3942
aVkeyseach
p3943
aV6689k
p3944
aVovercom
p3945
aV421
p3946
aVconvict
p3947
aV1394
p3948
aVrockefel
p3949
aVplu
p3950
aVwho
p3951
aVtour
p3952
aV530
p3953
aVconfer
p3954
aVmarri
p3955
aVdiscount
p3956
aVviewer
p3957
aVcorp
p3958
aVrepositori
p3959
aVeye
p3960
aVpost
p3961
aVschulman
p3962
aVplug
p3963
aV9098614048
p3964
aV_____
p3965
aVchronolog
p3966
aVliteratur
p3967
aVunfortun
p3968
aVtrophi
p3969
aVproduc
p3970
aVobp
p3971
aVbatf
p3972
aVcivic
p3973
aVcivil
p3974
aVcuriou
p3975
aVbounc
p3976
aVfloat
p3977
aVencod
p3978
aVbound
p3979
aVppm
p3980
aVlewi
p3981
aVussr
p3982
aVahv
p3983
aVopportun
p3984
aVapertur
p3985
aVstorag
p3986
aVaccordingli
p3987
aVmonochrom
p3988
aVguthri
p3989
aVfrustrat
p3990
aVfight
p3991
aVvirgin
p3992
aVanderson
p3993
aVfought
p3994
aVway
p3995
aVwav
p3996
aVwar
p3997
aVhr16
p3998
aVhead
p3999
aVamateur
p4000
aVsatisfactorili
p4001
aV49931
p4002
aVunconvinc
p4003
aVsubsidis
p4004
aVapparantli
p4005
aVheat
p4006
aVhear
p4007
aVpercentag
p4008
aV4086885409
p4009
aVcompuadd
p4010
aVtrue
p4011
aVreset
p4012
aVthrow
p4013
aVmalaysia
p4014
aVinquir
p4015
aVla
p4016
aVsapouna
p4017
aVbargain
p4018
aVhicksvil
p4019
aVinaccur
p4020
aVhsinchu
p4021
aVlatch
p4022
aV486dx266
p4023
aVemit
p4024
aVturbo
p4025
aVtesla
p4026
aVrequest
p4027
aVabstract
p4028
aVdecrypt
p4029
aVpostscript
p4030
aVjbulfkpccom
p4031
aVgretzki
p4032
aVhama
p4033
aVdoor
p4034
aVcheck
p4035
aVassembl
p4036
aVpipe
p4037
aVnj
p4038
aVencrypt
p4039
aV499c
p4040
aVnn
p4041
aVno
p4042
aVpisga
p4043
aVstake
p4044
aVwhen
p4045
aVprofess
p4046
aVjunta
p4047
aVny
p4048
aVtin
p4049
aVjone
p4050
aVtest
p4051
aVtie
p4052
aVholocaust
p4053
aVparsli
p4054
aVtechi
p4055
aVpseudonym
p4056
aVtoal
p4057
aV9600
p4058
aVcleric
p4059
aVearthjupit
p4060
aVphoenix
p4061
aVrpiwss5lqm
p4062
aVscsi1
p4063
aVconsid
p4064
aVmsmail
p4065
aVhumor
p4066
aVgobbl
p4067
aVoutdat
p4068
aVlonger
p4069
aVbullet
p4070
aVvietnam
p4071
aVserious
p4072
aVconcept
p4073
aVrom
p4074
aVrob
p4075
aVroc
p4076
aVrod
p4077
aVfocus
p4078
aVsignific
p4079
aVlebanes
p4080
aVbergmann
p4081
aVrow
p4082
aVmiddl
p4083
aVquilti
p4084
aVgraph
p4085
aV1940
p4086
aVflash
p4087
aVreadabl
p4088
aVhp2xx
p4089
aVenvironment
p4090
aVsupposedli
p4091
aVterror
p4092
aVdartmouth
p4093
aVsing
p4094
aVpersecut
p4095
aVmallen
p4096
aVlotsa
p4097
aVsourc
p4098
aVinfanticid
p4099
aVtriangul
p4100
aVtrident
p4101
aVsoftwarehardwar
p4102
aVfeasibl
p4103
aVxsizehint
p4104
aVwibbl
p4105
aVcook
p4106
aVcompuserv
p4107
aVsloppi
p4108
aVheshcuphpcom
p4109
aV68hc16
p4110
aVadministr
p4111
aVlevel
p4112
aVvalentin
p4113
aVgui
p4114
aVreconcil
p4115
aVgun
p4116
aVnontradit
p4117
aVp
p4118
aVencroach
p4119
aVquick
p4120
aVguy
p4121
aVarchibishop
p4122
aVdippold
p4123
aVphotograph
p4124
aVupper
p4125
aVhte
p4126
aVbrave
p4127
aVslower
p4128
aVsayr
p4129
aVporn
p4130
aVtrend
p4131
aVbravo
p4132
aVbaku
p4133
aVbj10e
p4134
aVrlogin
p4135
aVinland
p4136
aVcost
p4137
aVutter
p4138
aVport
p4139
aVcolormap
p4140
aVappear
p4141
aVara
p4142
aVrepli
p4143
aV64bit
p4144
aVtheist
p4145
aVuniform
p4146
aV524
p4147
aVprobulfinformatiktumuenchend
p4148
aVtheism
p4149
aVgoer
p4150
aVappeal
p4151
aV1012
p4152
aVpostcript
p4153
aVgawd
p4154
aVmorgan
p4155
aVcsutexasedu
p4156
aVgener
p4157
aVmuslim
p4158
aVunauthor
p4159
aVfootbal
p4160
aVwater
p4161
aVq2
p4162
aVreportcheck
p4163
aVdmodem
p4164
aVnother
p4165
aVtekterm
p4166
aVtransffer
p4167
aVmale
p4168
aVtire
p4169
aVtablish
p4170
aVplotter
p4171
aVdublin
p4172
aVcheapnasti
p4173
aVtrial
p4174
aVsonofab
p4175
aV7423
p4176
aVhealthi
p4177
aVtriad
p4178
aVweird
p4179
aVguilti
p4180
aVpromot
p4181
aVphyserverphymtuedu
p4182
aVregardless
p4183
aVos
p4184
aVextra
p4185
aVbullock
p4186
aVunsympathet
p4187
aVvisibl
p4188
aVprompt
p4189
aVfbi
p4190
aVmobil
p4191
aVfirearm
p4192
aVmarket
p4193
aVandi
p4194
aVprojector
p4195
aVprove
p4196
aVek1dk2ek1x
p4197
aVlive
p4198
aVcreolnetcomcom
p4199
aVmsg
p4200
aVsuppos
p4201
aVaustralian
p4202
aVmagitron
p4203
aVsuicid
p4204
aVtoday
p4205
aVandr
p4206
aVchapter
p4207
aVcapit
p4208
aVriot
p4209
aVafrican
p4210
aVclub
p4211
aVpresbyterian
p4212
aVtimespeeddist
p4213
aVkerri
p4214
aVprototyp
p4215
aVadipos
p4216
aVcompgraph
p4217
aVpeacemak
p4218
aVreligi
p4219
aVgraphic
p4220
aVibm
p4221
aVcar
p4222
aVprepar
p4223
aVcap
p4224
aVjudg
p4225
aVfocu
p4226
aVgraphit
p4227
aVcan
p4228
aVcam
p4229
aVsocreligion
p4230
aVcab
p4231
aVpurpos
p4232
aVlaughter
p4233
aVslightest
p4234
aVcad
p4235
aVheart
p4236
aVstream
p4237
aVchip
p4238
aVexplos
p4239
aVtopic
p4240
aVheard
p4241
aVcritic
p4242
aVabort
p4243
aVdxf
p4244
aVcardio
p4245
aVcardin
p4246
aVoccup
p4247
aVswedish
p4248
aVmultipl
p4249
aVbankrupt
p4250
aVicesurfac
p4251
aVeconomi
p4252
aV1
p4253
aValway
p4254
aVvital
p4255
aVanyon
p4256
aVfourth
p4257
aV_dsr
p4258
aVproduct
p4259
aVfascist
p4260
aVdisagre
p4261
aVclone
p4262
aVsouthern
p4263
aVdx2
p4264
aV4th
p4265
aVpasseng
p4266
aVascertian
p4267
aVrepeat
p4268
aVregularli
p4269
aVpractic
p4270
aV3min
p4271
aVfavorit
p4272
aVinform
p4273
aVpreced
p4274
aVfulltim
p4275
aVstupidli
p4276
aVirrat
p4277
aVrefund
p4278
aVltm1
p4279
aVduke
p4280
aVapprov
p4281
aVdivin
p4282
aVbrain
p4283
aVstill
p4284
aVmainli
p4285
aVworship
p4286
aVdynam
p4287
aVgti
p4288
aV486sx25
p4289
aVplatform
p4290
aVwindow
p4291
aVwinnipeg
p4292
aV2400
p4293
aVmediocr
p4294
aVpriesthood
p4295
aVnon
p4296
aVrecal
p4297
aVwealthi
p4298
aVprofession
p4299
aVsharewarefreewar
p4300
aVkazaknmsuedu
p4301
aVstabl
p4302
aVconquer
p4303
aV1950
p4304
aVhalf
p4305
aVnot
p4306
aVanecdot
p4307
aVnow
p4308
aVprovision
p4309
aVhall
p4310
aVnor
p4311
aVintroduct
p4312
aVwont
p4313
aValansari
p4314
aVterm
p4315
aVname
p4316
aVsimpl
p4317
aV68000
p4318
aVcda90038ucf1vmbitnet
p4319
aVpropuls
p4320
aVmagazin
p4321
aVwong
p4322
aVdenmark
p4323
aVters
p4324
aVpbmplu
p4325
aVem
p4326
aVdomain
p4327
aVen
p4328
aVeh
p4329
aVej
p4330
aVreplac
p4331
aVeg
p4332
aVtorch
p4333
aVea
p4334
aVyeah
p4335
aVec
p4336
aVw100
p4337
aVcontrib
p4338
aVpersian
p4339
aVsignificantli
p4340
aVyear
p4341
aVdistributor
p4342
aV14203
p4343
aVhappen
p4344
aVdispos
p4345
aVep
p4346
aVes
p4347
aVer
p4348
aVhacker
p4349
aVshown
p4350
aVaccomplish
p4351
aV4jet
p4352
aVspace
p4353
aVoklahoma
p4354
aVonewrit
p4355
aVstuff
p4356
aVparallax
p4357
aVkent
p4358
aVmulitmedia
p4359
aVshe
p4360
aVtelepathi
p4361
aV1995
p4362
aVkph2qonyxcsvirginiaedu
p4363
aVcarv
p4364
aVargu
p4365
aVflyer
p4366
aVtheori
p4367
aVtuner
p4368
aV5pm10pm
p4369
aVcard
p4370
aVcare
p4371
aVsoundblast
p4372
aVprescrib
p4373
aVyup
p4374
aVinstrutech
p4375
aVbritish
p4376
aVhonest
p4377
aVturn
p4378
aVplace
p4379
aVdewi
p4380
aVunwis
p4381
aVnonprofit
p4382
aV512
p4383
aVammo
p4384
aV1000
p4385
aVblind
p4386
aVdirectli
p4387
aVyourself
p4388
aVxy
p4389
aVring
p4390
aVdrove
p4391
aVxv
p4392
aVtomorrow
p4393
aVxt
p4394
aVunrecogn
p4395
aViam
p4396
aVcorinthian
p4397
aVgiven
p4398
aVsheet
p4399
aVsilent
p4400
aVteenag
p4401
aVgif
p4402
aVcaught
p4403
aVchoicemak
p4404
aVcallous
p4405
aVreli
p4406
aViac
p4407
aVhqsequsoraclecom
p4408
aVstatewid
p4409
aVgeovern
p4410
aVtragic
p4411
aVproterm
p4412
aVcircl
p4413
aVx11xutilh
p4414
aVwhite
p4415
aVvintag
p4416
aVscicrypt
p4417
aVfriend
p4418
aVpkunzip
p4419
aValaa
p4420
aVarith
p4421
aVgia
p4422
aVhub
p4423
aVespeci
p4424
aVpittsburgh
p4425
aVn020batamvm1tamuedu
p4426
aVcopi
p4427
aVhuh
p4428
aValan
p4429
aVenclos
p4430
aVmostli
p4431
aVthan
p4432
aVserv
p4433
aVwide
p4434
aV_____________________________________________________________
p4435
aVinferior
p4436
aVr
p4437
aVposit
p4438
aVworcest
p4439
aVseri
p4440
aVand
p4441
aVmultiscreen
p4442
aVangel
p4443
aVbemisunderstood
p4444
aVcraig
p4445
aVpro
p4446
aVanywher
p4447
aVant
p4448
aVslam
p4449
aVwealthbuild
p4450
aVmeasur
p4451
aVanger
p4452
aVazeri
p4453
aVcharonctociticorpcom
p4454
aVengin
p4455
aVtechniqu
p4456
aVlongword
p4457
aVmoreov
p4458
aVunixxmotif
p4459
aVideal
p4460
aV6138031326
p4461
aVmysteri
p4462
aVwcl
p4463
aVxtermin
p4464
aVbegin
p4465
aVsure
p4466
aVimportantli
p4467
aVvolvovitz
p4468
aVprochristian
p4469
aV800x600
p4470
aVmicro
p4471
aVfreshman
p4472
aVamerica
p4473
aVega
p4474
aVicon
p4475
aV2238
p4476
aVrcs8pocwruedu
p4477
aVrescu
p4478
aVleninstalin
p4479
aVadopt
p4480
aVquantiti
p4481
aVxgetwindowproperti
p4482
aVgenocid
p4483
aVpattern
p4484
aVsenior
p4485
aVrecipi
p4486
aVmarxhausen
p4487
aVgerman
p4488
aVyalcin
p4489
aVcheap
p4490
aVconcurr
p4491
aVzwart
p4492
aVpermiss
p4493
aVhack
p4494
aVcapston
p4495
aVdoublecheck
p4496
aVground
p4497
aVaint
p4498
aVpavlidi
p4499
aVumbdr522zip
p4500
aVratio
p4501
aVfavor
p4502
aVstate
p4503
aVcrime
p4504
aVgulp
p4505
aVwood
p4506
aVgateway
p4507
aVoutyear
p4508
aVstain
p4509
aVossd
p4510
aVanalys
p4511
aVwaddl
p4512
aV486dx50
p4513
aVviewpoint
p4514
aVprojectmanag
p4515
aVcannon
p4516
aVmormon
p4517
aVdkbtrace
p4518
aVpscribe
p4519
aVloath
p4520
aVcannot
p4521
aVlighter
p4522
aVmillionalso
p4523
aVxcursor
p4524
aVssf
p4525
aVtruli
p4526
aVreveal
p4527
aValuminum
p4528
aVcdtechnolog
p4529
aVoutperform
p4530
aVintermitt
p4531
aVintrins
p4532
aV2410
p4533
aVscott
p4534
aVamanda
p4535
aVstrubl
p4536
aVburst
p4537
aVcom1
p4538
aVhoek
p4539
aVchevel
p4540
aV1923
p4541
aVbeginnerinfo
p4542
aVsport
p4543
aVconcern
p4544
aVstephanopoulo
p4545
aVdetect
p4546
aVsehari
p4547
aVreview
p4548
aVfrankligheliumgasuugarizonaedu
p4549
aV3
p4550
aVbetween
p4551
aVindexstrchr
p4552
aVparamet
p4553
aVjoystick
p4554
aVcomp
p4555
aVacheiv
p4556
aVblame
p4557
aVcycl
p4558
aVcomm
p4559
aVarmenian
p4560
aVunauthoris
p4561
aVfaxansw
p4562
aVvram
p4563
aVcome
p4564
aV15222280
p4565
aVcompatibilti
p4566
aVreaction
p4567
aVjavier
p4568
aVazt
p4569
aVregion
p4570
aVdifferet
p4571
aVcontract
p4572
aVretir
p4573
aVclever
p4574
aVdariu
p4575
aVtutori
p4576
aVqassam
p4577
aVaura
p4578
aVexb0405csdvaxcsdunsweduau
p4579
aVntsc
p4580
aVjammer
p4581
aVpov
p4582
aVoverview
p4583
aVinspir
p4584
aVperiod
p4585
aVinsist
p4586
aVduti
p4587
aV61
p4588
aVexploit
p4589
aVfeatur
p4590
aVsecondbest
p4591
aVwdctl
p4592
aVflop1r5f7linnj71
p4593
aVpod
p4594
aVpoll
p4595
aVdamag
p4596
aVturkey
p4597
aVclarif
p4598
aVcoupl
p4599
aVhardli
p4600
aVinvers
p4601
aVvehicul
p4602
aVpcatwich
p4603
aV17000k
p4604
aVaddit
p4605
aV500
p4606
aVfollowup
p4607
aV6a
p4608
aVxgrabserverdisplay
p4609
aVfoggi
p4610
aVmasonri
p4611
aVandrew
p4612
aVtwincom
p4613
aVworkspac
p4614
aVaviat
p4615
aV1mb
p4616
aVspirit
p4617
aVstimpycssitdumichedu
p4618
aVpilot
p4619
aVcase
p4620
aVmyself
p4621
aVmerril
p4622
aVheikki
p4623
aVthese
p4624
aVpram
p4625
aVmount
p4626
aVcash
p4627
aVscud
p4628
aVjames_jim_fraziercupportalcom
p4629
aVhpmpec3ccuphpcom
p4630
aVlookout
p4631
aVanytim
p4632
aVmacbas
p4633
aVsoil
p4634
aVmetric
p4635
aVhenc
p4636
aVuncov
p4637
aVleadoff
p4638
aVvesa
p4639
aVhelmet
p4640
aVinquiri
p4641
aVmedin
p4642
aVauthor
p4643
aVmedia
p4644
aVmedic
p4645
aVbowl
p4646
aVjusgement
p4647
aVdanmckinnoncanremcom
p4648
aV800x60016
p4649
aVmac23
p4650
aVweek
p4651
aVionoscmil
p4652
aVfinish
p4653
aVscreenshot
p4654
aVstatut
p4655
aVkelvin
p4656
aVconfidenti
p4657
aVdriver
p4658
aVsomeon
p4659
aVmeasleslik
p4660
aVcampbel
p4661
aVmoreless
p4662
aVbeleiv
p4663
aVtheater
p4664
aVmvs104psuvmpsuedu
p4665
aVmodex
p4666
aVjustifi
p4667
aVvnew
p4668
aVwithout
p4669
aVna
p4670
aVvomit
p4671
aVmodel
p4672
aVmodem
p4673
aVnf
p4674
aVviolenc
p4675
aVtip
p4676
aVharddisk
p4677
aVbitmap
p4678
aVviolent
p4679
aVkill
p4680
aVreinnerv
p4681
aVtouch
p4682
aVspeed
p4683
aVfullil
p4684
aVblow
p4685
aVmosfet
p4686
aVdeath
p4687
aVeurop
p4688
aVhint
p4689
aVdistort
p4690
aVexcept
p4691
aVcrohn
p4692
aVamigado
p4693
aVnotori
p4694
aVstruck
p4695
aVdisrupt
p4696
aVca
p4697
aVmomentum
p4698
aVvgalib
p4699
aVearli
p4700
aVfrown
p4701
aVhypothesi
p4702
aVonscreen
p4703
aVread
p4704
aVomnisci
p4705
aVelmerfuddcsberkeleyedu
p4706
aVame
p4707
aVamd
p4708
aV199293
p4709
aV579712
p4710
aVdxterm
p4711
aVnt
p4712
aVnissan
p4713
aVunlimit
p4714
aVpropoganda
p4715
aVbenefit
p4716
aVt
p4717
aVpatricu
p4718
aVoutput
p4719
aVrealiti
p4720
aVatla
p4721
aVaccessdigexnet
p4722
aVswitchset
p4723
aVverbal
p4724
aVrocketpropel
p4725
aVserval1993apr2015140512480
p4726
aVfatwa
p4727
aVpl85
p4728
aVbillson
p4729
aVpl88
p4730
aVpl89
p4731
aVintact
p4732
aVfanat
p4733
aV1858
p4734
aVfreez
p4735
aVkjenksgothamcityjscnasagov
p4736
aVdiskwrit
p4737
aVeleanor
p4738
aVprovideo
p4739
aVachiev
p4740
aVlegal
p4741
aVmoon
p4742
aVsoftserv
p4743
aVfreed
p4744
aVimmun
p4745
aVepson
p4746
aVp9000
p4747
aVgarbag
p4748
aVslaughter
p4749
aVlcd
p4750
aVxannounceexpolcsmitedu
p4751
aVsadder
p4752
aV107h34
p4753
aV_
p4754
aVon
p4755
aVjeez
p4756
aVpatent
p4757
aVok
p4758
aVgreatli
p4759
aVtestimoni
p4760
aVjeep
p4761
aVof
p4762
aVlastrang
p4763
aVspss
p4764
aVdegre
p4765
aVstane
p4766
aVstand
p4767
aVow
p4768
aVassassin
p4769
aVbackup
p4770
aVor
p4771
aVaccredit
p4772
aVtribe
p4773
aVjian
p4774
aVgari
p4775
aVanomali
p4776
aVyoud
p4777
aVdrawingarea
p4778
aVunregist
p4779
aVdarren
p4780
aVyouv
p4781
aVnurs
p4782
aVairlin
p4783
aVyour
p4784
aVcompon
p4785
aVlog
p4786
aVkmart
p4787
aVarea
p4788
aVthere
p4789
aVracism
p4790
aVstart
p4791
aVfascin
p4792
aVstarv
p4793
aVbudg
p4794
aVhighspe
p4795
aVlot
p4796
aVstarr
p4797
aVvgalogovga
p4798
aVstrictli
p4799
aVvalley
p4800
aVmonoton
p4801
aVftpcicaindianaedu
p4802
aVseagat
p4803
aVregard
p4804
aVkc2wz
p4805
aVterrifi
p4806
aVpms001pmsfordcom
p4807
aVfaster
p4808
aV1024
p4809
aVhire
p4810
aVfraud
p4811
aVhpcc01recsportbasebal
p4812
aVstanford
p4813
aVk_p
p4814
aVnavyrel
p4815
aVwefiiiaxionpalanpalantircom
p4816
aVgrasp
p4817
aVgibberish
p4818
aVgrass
p4819
aVwsai3duracuk
p4820
aVconnect
p4821
aVmutil
p4822
aVinflict
p4823
aVutzoosqmsb
p4824
aVfrighten
p4825
aVsunroof
p4826
aV1200
p4827
aVstrongli
p4828
aVbritain
p4829
aVumar
p4830
aVhuizenga
p4831
aVgarnetmsencom
p4832
aVacer
p4833
aVhimself
p4834
aVrearrang
p4835
aVbishop
p4836
aVhasnt
p4837
aVlistservmainemaineedu
p4838
aVantenna
p4839
aVidiot
p4840
aVpurdu
p4841
aVpisssssssss
p4842
aVrosen
p4843
aVevent
p4844
aVige
p4845
aVprotext
p4846
aV5
p4847
aVrocketri
p4848
aVyou
p4849
aVtrash
p4850
aVsurest
p4851
aVpolar
p4852
aVdiscours
p4853
aVscreensdisplay
p4854
aVrenccwfccutexasedu
p4855
aVftp
p4856
aVsymbol
p4857
aV120v
p4858
aV120r
p4859
aVsuperslot
p4860
aV320200256
p4861
aVpeac
p4862
aVpool
p4863
aVreduc
p4864
aVassert
p4865
aV50012
p4866
aVcorel
p4867
aVdirectori
p4868
aVinvest
p4869
aVrutger
p4870
aVmednewsasuvminreasuedu
p4871
aVinevit
p4872
aVmaldanado
p4873
aVpotenti
p4874
aVedwindlims01lercnasagov
p4875
aVfaculteit
p4876
aVv130
p4877
aV640x480x256
p4878
aVall
p4879
aV5221904
p4880
aVlack
p4881
aVjecwatsonibmcom
p4882
aVunencod
p4883
aVmonth
p4884
aVspacecraft
p4885
aVcorrel
p4886
aVabil
p4887
aVfollow
p4888
aVdisk
p4889
aVduli
p4890
aVhmmm
p4891
aVnonmilitari
p4892
aVlocalhostdialixozau
p4893
aVshredder
p4894
aVoverwhelmingli
p4895
aVprophisi
p4896
aVarticl
p4897
aVinit
p4898
aVprogram
p4899
aVcomerci
p4900
aVhealth
p4901
aVrenegad
p4902
aVneglig
p4903
aVw_id
p4904
aVfax
p4905
aVliter
p4906
aVsuutari
p4907
aVsong
p4908
aVfar
p4909
aVsoni
p4910
aVhorror
p4911
aVfaq
p4912
aVmechan
p4913
aV640x480x167mil
p4914
aVfailur
p4915
aVveri
p4916
aVcandida
p4917
aVticket
p4918
aVfaa
p4919
aVheaven
p4920
aVlist
p4921
aV61x6752
p4922
aVmd
p4923
aVemul
p4924
aVmatrox
p4925
aVscientolog
p4926
aVdimens
p4927
aVpredispos
p4928
aVten
p4929
aVdifficulti
p4930
aVanonim
p4931
aVted
p4932
aVmg
p4933
aVtex
p4934
aVsophomor
p4935
aVrate
p4936
aVpressur
p4937
aV2122740646
p4938
aVhamper
p4939
aVwill
p4940
aVsue
p4941
aVrsadsi
p4942
aVstalin
p4943
aVyee
p4944
aVsun
p4945
aVsum
p4946
aVgchinssfengsuncom
p4947
aVbrief
p4948
aVoverload
p4949
aVsbrogiitymnetcom
p4950
aVversion
p4951
aVozon
p4952
aVintersect
p4953
aVdevelpo
p4954
aVessenc
p4955
aVcircumstanci
p4956
aVthemselv
p4957
aVsundayat
p4958
aVmisread
p4959
aVbehaviour
p4960
aVpl92
p4961
aVpl91
p4962
aVbacker
p4963
aVsolari
p4964
aVberkeley
p4965
aVver
p4966
aViraq
p4967
aVmodifi
p4968
aVarena
p4969
aVtraumat
p4970
aVahead
p4971
aVvegetarian
p4972
aVnhtsa
p4973
aVtelecast
p4974
aVsoldier
p4975
aVamount
p4976
aVheroin
p4977
aVarent
p4978
aVgodless
p4979
aVmedicin
p4980
aVpposit
p4981
aVthatcher
p4982
aVput
p4983
aV68070
p4984
aVpurchas
p4985
aVfamili
p4986
aVvd
p4987
aVresearch
p4988
aVengag
p4989
aVkhan
p4990
aVmackintosh
p4991
aVinjuri
p4992
aVcertainli
p4993
aValmost
p4994
aVmassag
p4995
aVmagnitud
p4996
aVheroic
p4997
aVtaken
p4998
aVsupport5000
p4999
aVminor
p5000
aVpetersburg
p5001
aVdiod
p5002
aVfirstclass
p5003
aVisrael
p5004
aVhockin
p5005
aVsite
p5006
aVwouold
p5007
aVflag
p5008
aVhyperdisk
p5009
aVstick
p5010
aVbroke
p5011
aVoblivi
p5012
aVknown
p5013
aVbrownftmsuucp
p5014
aVvaluabl
p5015
aVcitizen
p5016
aVoutlin
p5017
aVvr
p5018
aVhistori
p5019
aVnebraska
p5020
aVnine
p5021
aVv
p5022
aVfundamentalist
p5023
aVareth
p5024
aVslp9kccusuedu
p5025
aVfresco
p5026
aVfirmli
p5027
aVsysnet
p5028
aVpartner
p5029
aVlibertarian
p5030
aVmn
p5031
aVcours
p5032
aVcourt
p5033
aVgoal
p5034
aVnonvolitil
p5035
aVrather
p5036
aVanoth
p5037
aVnonbolt
p5038
aVamerican
p5039
aVdivis
p5040
aV8002539693
p5041
aVlaserwrit
p5042
aVreject
p5043
aVidaho
p5044
aVschultz
p5045
aVshouldnt
p5046
aVokay
p5047
aVthreat
p5048
aValgebra
p5049
aVhuayong
p5050
aV610
p5051
aVsneak
p5052
aVreflect
p5053
aVfb
p5054
aVhubbard
p5055
aV_not_
p5056
aVfl
p5057
aVfo
p5058
aVa
p5059
aVshort
p5060
aVani
p5061
aVcaus
p5062
aVshade
p5063
aVscsi
p5064
aVdream
p5065
aVarmyissu
p5066
aVhelp
p5067
aVreservoir
p5068
aVeet
p5069
aVartwork
p5070
aVsoon
p5071
aVpseudorandom
p5072
aVheld
p5073
aVisnt
p5074
aVscientist
p5075
aVsteril
p5076
aVhell
p5077
aVbytesmayb
p5078
aVislam
p5079
aV50000
p5080
aVstyle
p5081
aVblast
p5082
aVdiskett
p5083
aVpray
p5084
aVcatalog
p5085
aVcomputerliter
p5086
aVstephen
p5087
aVargentina
p5088
aVsenat
p5089
aVoleo
p5090
aVfool
p5091
aVibsgicom
p5092
aVreturn
p5093
aVfood
p5094
aVsentenc
p5095
aVye
p5096
aVintelbas
p5097
aVcharismat
p5098
aVsomebodi
p5099
aVwouldv
p5100
aVys
p5101
aVchicago
p5102
aVbraindead
p5103
aVbryan
p5104
aVtzoq
p5105
aValgerian
p5106
aVanywer
p5107
aVrefresh
p5108
aVnoelpdorg
p5109
aVarticleid
p5110
aVcompris
p5111
aVceas
p5112
aVfulli
p5113
aVintervent
p5114
aVdisqualifi
p5115
aVweight
p5116
aVpcanywher
p5117
aVbrother
p5118
aVheavi
p5119
aVball
p5120
aVexpect
p5121
aVrokhlin
p5122
aVhorribl
p5123
aVperipher
p5124
aVbeyond
p5125
aVcomputrac
p5126
aVhostnam
p5127
aVsafeti
p5128
aVitem
p5129
aVinoutthru
p5130
aVrobert
p5131
aVpartli
p5132
aVhilt
p5133
aVpublish
p5134
aVnextstep
p5135
aVsustain
p5136
aVhill
p5137
aV7
p5138
aVass
p5139
aVmemoryquadra700instal
p5140
aVasq
p5141
aVfiber
p5142
aVpinstrip
p5143
aVadvanc
p5144
aVfriday
p5145
aVdiffer
p5146
aVpsize
p5147
aVreason
p5148
aVbase
p5149
aVask
p5150
aVasi
p5151
aVpursuad
p5152
aVlag
p5153
aVjew
p5154
aVthrown
p5155
aVlaunch
p5156
aVneurolog
p5157
aVappos
p5158
aVperhap
p5159
aVcircuit
p5160
aVundergo
p5161
aVfallen
p5162
aVassign
p5163
aVfeed
p5164
aVntutaiwan
p5165
aVmr
p5166
aVturan
p5167
aVobviou
p5168
aVfeel
p5169
aVfamou
p5170
aVelder
p5171
aVpgppublickeysjunkboxcciastateedu
p5172
aVpl8line
p5173
aVmiss
p5174
aVgpo
p5175
aVscript
p5176
aVinteract
p5177
aVstori
p5178
aVstation
p5179
aVscheme
p5180
aVstore
p5181
aVadhes
p5182
aVadher
p5183
aV184
p5184
aVwellspr
p5185
aVbehind
p5186
aVncr
p5187
aVasshol
p5188
aVglovehand
p5189
aV1918
p5190
aVvowlic
p5191
aVshifter
p5192
aVaeronaut
p5193
aV1915
p5194
aV1914
p5195
aVdiorama
p5196
aVdtk
p5197
aVking
p5198
aVkind
p5199
aVgrep
p5200
aVwhenev
p5201
aVremot
p5202
aVremov
p5203
aVdtg
p5204
aVi
p5205
aVnguen
p5206
aVgreg
p5207
aVdtr
p5208
aVtoward
p5209
aVdanc
p5210
aVweapon
p5211
aVnicddnmil
p5212
aVrandomli
p5213
aVcomrad
p5214
aVigor
p5215
aVwasnt
p5216
aVwell
p5217
aVphilli
p5218
aVxtest
p5219
aVdedic
p5220
aVnull
p5221
aVwhistleblow
p5222
aVkarl
p5223
aVoption
p5224
aVlid
p5225
aVlie
p5226
aVlib
p5227
aVwritercuphpcom
p5228
aVviolat
p5229
aVscotland
p5230
aVbackfir
p5231
aVhopelessli
p5232
aVdonor
p5233
aVnorma
p5234
aVicsuciedu
p5235
aVoffscreen
p5236
aVchoos
p5237
aVreach
p5238
aVkan
p5239
aVreact
p5240
aV75
p5241
aVsirtf
p5242
aV71
p5243
aV70
p5244
aVpediatr
p5245
aValpha
p5246
aVwhichev
p5247
aVamaz
p5248
aVx11r3
p5249
aV65
p5250
aVx11r4
p5251
aVdavidianbabbl
p5252
aVclear
p5253
aVwherebi
p5254
aVrosenkranzenetdeccom
p5255
aVgsx140
p5256
aVticketpric
p5257
aVtongu
p5258
aVnotch
p5259
aV8250
p5260
aVcrowcsrvuidahoedu
p5261
aV666
p5262
aV19930416
p5263
aVhaferman
p5264
aVcryptorel
p5265
aVunarm
p5266
aVfont
p5267
aVpenalti
p5268
aVooaood
p5269
aVcoerc
p5270
aVcopyright
p5271
aVduncan
p5272
aVparanoid
p5273
aVncd
p5274
aVparanoia
p5275
aVmailbas
p5276
aVelyclcamacuk
p5277
aVssdcssdcsterlingcom
p5278
aV7000year
p5279
aVhip
p5280
aVhit
p5281
aVprocommfw
p5282
aVhiv
p5283
aVengsdsuedu
p5284
aVfinanc
p5285
aV16m
p5286
aVmclaughlin
p5287
aVmfm
p5288
aVnativ
p5289
aVcote
p5290
aVhim
p5291
aVnaplp
p5292
aVdissap
p5293
aVprogun
p5294
aV824gc
p5295
aVtypetyp
p5296
aVeugen
p5297
aVstatist
p5298
aVswitzerland
p5299
aVx
p5300
aVxvertext
p5301
aVwrote
p5302
aVforego
p5303
aVart
p5304
aVmoeni
p5305
aVthoreddson
p5306
aVworkshift
p5307
aVfg1
p5308
aVdaversjcmentorgcom
p5309
aVdelug
p5310
aVdumb
p5311
aVare
p5312
aVclose
p5313
aVarm
p5314
aVdeir
p5315
aVdefin
p5316
aViccm
p5317
aVwow
p5318
aVparticip
p5319
aVlancast
p5320
aVwon
p5321
aVjasmin
p5322
aVpiss
p5323
aVdalla
p5324
aVbibl
p5325
aVnumer
p5326
aVgenet
p5327
aVsold
p5328
aVsole
p5329
aVoverkil
p5330
aVdistinguish
p5331
aVdecwindow
p5332
aVdisclaim
p5333
aVc
p5334
aVdtp
p5335
aVoversea
p5336
aVbandit
p5337
aVroman
p5338
aVcontext
p5339
aVmotorcycl
p5340
aVvpisu
p5341
aVbond
p5342
aV4dx266v
p5343
aVjeff
p5344
aVbellovin
p5345
aVcryptosystem
p5346
aVlake
p5347
aVoverbor
p5348
aVmednewsasuacadbitnet
p5349
aVtga
p5350
aVlinux
p5351
aVrave
p5352
aVmistak
p5353
aVperog
p5354
aVbridg
p5355
aVkaypro
p5356
aVps
p5357
aVforgiv
p5358
aVduo
p5359
aVarmori
p5360
aVterritori
p5361
aVdue
p5362
aVempti
p5363
aVpb
p5364
aVwhom
p5365
aVnaiman
p5366
aVtitti
p5367
aVdamn
p5368
aVwhoi
p5369
aVpd
p5370
aVturnon
p5371
aVwhoe
p5372
aVpn
p5373
aVpo
p5374
aVdame
p5375
aVawfulto
p5376
aVflight
p5377
aVianfrandoms
p5378
aValgeria
p5379
aV21228
p5380
aVuninform
p5381
aVcrack
p5382
aVslideshow
p5383
aVnetcom
p5384
aVspeedomet
p5385
aVcoordin
p5386
aV11000
p5387
aVmca
p5388
aVdemand
p5389
aVsubcommitte
p5390
aVhighest
p5391
aVstolen
p5392
aVlook
p5393
aVw4mb
p5394
aVcanadian
p5395
aVrope
p5396
aVwhile
p5397
aVsmart
p5398
aVbehavior
p5399
aVwhill
p5400
aVloos
p5401
aVsherzer
p5402
aVthemsevl
p5403
aVculpa
p5404
aVreadm
p5405
aVamfm
p5406
aVrip
p5407
aVmach32
p5408
aVroyalti
p5409
aVinterviewsstanfordedu
p5410
aVdemot
p5411
aVrig
p5412
aVrid
p5413
aVillinoi
p5414
aVcholer
p5415
aVgunshmmm
p5416
aVgrant
p5417
aVbelong
p5418
aVwierd
p5419
aVhighlyinterpret
p5420
aV9
p5421
aVconflict
p5422
aVhigher
p5423
aV892
p5424
aValyosha
p5425
aVimagin
p5426
aVoptim
p5427
aVwherea
p5428
aVinflat
p5429
aVexpressli
p5430
aV001
p5431
aVerikbidtunitno
p5432
aVuser
p5433
aVyeltsin
p5434
aVkurdish
p5435
aVusc
p5436
aVolder
p5437
aVlannertcliorzuniduesseldorfd
p5438
aVpoland
p5439
aV_________________________________________________________
p5440
aV4bit
p5441
aVreplyto
p5442
aVcheer
p5443
aVgunfir
p5444
aVphurchas
p5445
aVlowerrisk
p5446
aVsan
p5447
aVmacintosh
p5448
aVanybodi
p5449
aVweakest
p5450
aVcoup
p5451
aVemacetenetedu
p5452
aVburden
p5453
aVcollabor
p5454
aVmy_int_var
p5455
aVturkiy
p5456
aVelect
p5457
aVrawlin
p5458
aVtablet
p5459
aVk2
p5460
aVtheoret
p5461
aVcontractor
p5462
aVnotifi
p5463
aV13000
p5464
aVjerom
p5465
aVsubsequ
p5466
aVcomplaint
p5467
aVmarch
p5468
aVstein
p5469
aVdearli
p5470
aV676
p5471
aVxterm
p5472
aVconscript
p5473
aVchenwang
p5474
aVmoodi
p5475
aVroommat
p5476
aVmotorola
p5477
aVbrit
p5478
aVmarcu
p5479
aVcharacterist
p5480
aVoverthrown
p5481
aVcompsecuritymisc
p5482
aVbout
p5483
aVfinnish
p5484
aV9bit
p5485
aVconfront
p5486
aVsignal
p5487
aVcommunicationsnot
p5488
aVcollect
p5489
aVdistrust
p5490
aVpopular
p5491
aVadmittedli
p5492
aVpropagandist
p5493
aVsome
p5494
aVglobal
p5495
aVcg3
p5496
aVsurpris
p5497
aVcg4
p5498
aVsyndrom
p5499
aVmousecom
p5500
aVaffili
p5501
aVmailserv
p5502
aVdebri
p5503
aVseller
p5504
aVwaveform
p5505
aVhighvoltag
p5506
aVmhz
p5507
aVanna
p5508
aVpreviou
p5509
aVrun
p5510
aVburzynski
p5511
aVbooklet
p5512
aVreoccur
p5513
aVlose
p5514
aVrug
p5515
aVinfra
p5516
aVstep
p5517
aVwingcommand
p5518
aVuniessen
p5519
aV13meg
p5520
aVfirsthappi
p5521
aV32gfkkhcmuvmcsvcmichedu
p5522
aVfaith
p5523
aVwouldnt
p5524
aVupdat
p5525
aVordeal
p5526
aVmace
p5527
aVkruegergasuugarizonaedu
p5528
aVmilitia
p5529
aVide
p5530
aVgamma
p5531
aVplan
p5532
aVreduct
p5533
aVmiracl
p5534
aVofffffff
p5535
aVeaten
p5536
aVshonkwil
p5537
aVconquest
p5538
aVwithin
p5539
aVplotdoc
p5540
aVcsugradcsvtedu
p5541
aVslovak
p5542
aVholster
p5543
aVensur
p5544
aVartifici
p5545
aVpentagon
p5546
aV60ship
p5547
aVclementin
p5548
aVtriangl
p5549
aVmask
p5550
aVeducationallyenrich
p5551
aVquestion
p5552
aVforev
p5553
aVfast
p5554
aVsw4sw3
p5555
aVarithmet
p5556
aV38616mhz
p5557
aVfiles
p5558
aVuncalibr
p5559
aVlarri
p5560
aVabsequip
p5561
aVhousearchivedgrtpdgcom
p5562
aVheartach
p5563
aV16mx1
p5564
aVcloth
p5565
aVserversright
p5566
aVdule
p5567
aVwnt
p5568
aVdelta
p5569
aVupright
p5570
aVpwm
p5571
aVspecialti
p5572
aVinfo
p5573
aVthru
p5574
aVconsist
p5575
aVcaller
p5576
aVfullscal
p5577
aVsvenv
p5578
aVcontin
p5579
aVkuhn
p5580
aVxlastupd
p5581
aVnonusa
p5582
aVathena
p5583
aVsimilar
p5584
aVbell
p5585
aVtomographi
p5586
aVralli
p5587
aVcrari
p5588
aVgunpoint
p5589
aVlectur
p5590
aVdestruct
p5591
aVpdsvicar
p5592
aVgraham
p5593
aVpolygon
p5594
aVdefragg
p5595
aVpronounc
p5596
aVtitl
p5597
aVnah
p5598
aVnonanonym
p5599
aVafford
p5600
aVgre
p5601
aVnay
p5602
aVnice
p5603
aVdraw
p5604
aVclean
p5605
aV_only_
p5606
aVwrightlims01lercnasagov
p5607
aVmissil
p5608
aVpennant
p5609
aVwilliam
p5610
aVcliffnot
p5611
aVdrag
p5612
aVest
p5613
aVdmorf12zip
p5614
aVinflamm
p5615
aVsupris
p5616
aVsoundex
p5617
aVinfrequ
p5618
aVe
p5619
aVvice
p5620
aVorbit
p5621
aVbulletin
p5622
aVmd5a
p5623
aVdepth
p5624
aVnasa
p5625
aVforsal
p5626
aVscroll
p5627
aVpissedoff
p5628
aVnasm
p5629
aVexamin
p5630
aVgp
p5631
aVminer
p5632
aV71p
p5633
aVsteve
p5634
aVgb
p5635
aVedt
p5636
aVedu
p5637
aVgo
p5638
aVgm
p5639
aVgl
p5640
aVbenevol
p5641
aVridicul
p5642
aVesg
p5643
aVsimon
p5644
aVclipart
p5645
aVwizard
p5646
aVladner
p5647
aVfriendli
p5648
aVxpostedfrom
p5649
aVv12
p5650
aVshirak
p5651
aVoutgo
p5652
aVbreach
p5653
aVdishonestcorrupt
p5654
aVgino
p5655
aV712
p5656
aVwave
p5657
aVdaystar
p5658
aVelectron
p5659
aVcellular
p5660
aVtopmagnusacsohiostateedu
p5661
aVheavyduti
p5662
aVspoof
p5663
aV5band
p5664
aVrelev
p5665
aVrpk105
p5666
aVbutton
p5667
aVmichael
p5668
aVmousesyscom
p5669
aVdealt
p5670
aVscrabbl
p5671
aVsunos412
p5672
aVmm
p5673
aVpleas
p5674
aVsomeday
p5675
aVsmaller
p5676
aVloral
p5677
aVpornographi
p5678
aVlaodicea
p5679
aVcfb
p5680
aVhelicopt
p5681
aVemm386ex
p5682
aVnetwid
p5683
aVdownload
p5684
aVzhiguli
p5685
aVcompat
p5686
aVcompar
p5687
aVfine
p5688
aV64k
p5689
aVcelp
p5690
aVcell
p5691
aV19th
p5692
aVexperiment
p5693
aV_naive_
p5694
aVmidway1993apr6060213211
p5695
aVchose
p5696
aVprosecut
p5697
aVx386
p5698
aVcal
p5699
aVwinmark
p5700
aVfilmqual
p5701
aV140239132
p5702
aVmjsthe
p5703
aVbecom
p5704
aVtnycixcompulinkcouk
p5705
aVtoell
p5706
aVconvert
p5707
aVconvers
p5708
aVsurvivor
p5709
aVantiguncontrol
p5710
aVvacat
p5711
aVuptight
p5712
aVast
p5713
aVmilwauke
p5714
aV640
p5715
aVappletalk
p5716
aVtypic
p5717
aVchanc
p5718
aValthough
p5719
aVclark
p5720
aVdanger
p5721
aVapr
p5722
aVappli
p5723
aVapp
p5724
aVvolt
p5725
aVwit
p5726
aVmotor
p5727
aViraniraq
p5728
aVjamesbessett
p5729
aVcloud
p5730
aVuse
p5731
aVfee
p5732
aVmetaphor
p5733
aVvideogener
p5734
aVeyephon
p5735
aVhudson
p5736
aVgerm
p5737
aVfew
p5738
aVcovington
p5739
aVcamera
p5740
aVstage
p5741
aVselfmodifi
p5742
aVinet
p5743
aVcosmo
p5744
aVparliament
p5745
aVhewlettpackardsantarosasystmsdivrohnertparkca
p5746
aVwargam
p5747
aVmismatch
p5748
aVabout
p5749
aVsore
p5750
aVisraelit
p5751
aVcolumbu
p5752
aVmitsubishi
p5753
aVwomen
p5754
aVannoy
p5755
aVstatic
p5756
aVretriev
p5757
aVspi
p5758
aVnoncompar
p5759
aVride
p5760
aVincombat
p5761
aVsandberg
p5762
aVmeet
p5763
aVproof
p5764
aVcontrol
p5765
aVtap
p5766
aVcoincident
p5767
aVtax
p5768
aVtag
p5769
aVproprietari
p5770
aVsought
p5771
aVwonderful
p5772
aVserial
p5773
aVtimkimbacattcitrieduau
p5774
aVrape
p5775
aVlonni
p5776
aVsit
p5777
aVchevrolet
p5778
aVsix
p5779
aVoccur
p5780
aVsic
p5781
aVbrian
p5782
aVtkelderebce
p5783
aVinstead
p5784
aVvpic
p5785
aV212m
p5786
aVsin
p5787
aVinsurrect
p5788
aVtseng
p5789
aVmsdo
p5790
aVattend
p5791
aVbresenham
p5792
aVdjlewisualredu
p5793
aVhazard
p5794
aVelud
p5795
aVmen
p5796
aVresent
p5797
aVunscrupul
p5798
aVvillag
p5799
aVxremot
p5800
aVhonestli
p5801
aVmswindow
p5802
aVlight
p5803
aVpctool
p5804
aVscoop
p5805
aVencyclopedia
p5806
aVagenda
p5807
aVleast
p5808
aVshirtprotect
p5809
aVtyrann
p5810
aV133
p5811
aVown
p5812
aVtyrant
p5813
aVearlier
p5814
aVwrite
p5815
aVatclass
p5816
aVzterm
p5817
aVnewsgroup
p5818
aVvogllibrari
p5819
aVfidel
p5820
aVqicstream
p5821
aVmicrooft
p5822
aVpixel
p5823
aVfreeman
p5824
aVcrash
p5825
aVpure
p5826
aVorthodox
p5827
aVhandl
p5828
aVauto
p5829
aV13h
p5830
aVautomat
p5831
aVsuborbit
p5832
aVfront
p5833
aVinfecti
p5834
aV029
p5835
aVsuccessor
p5836
aVsomewher
p5837
aVedit
p5838
aVnfl
p5839
aVplayoff
p5840
aVtist
p5841
aVmode
p5842
aVinterview
p5843
aVtray
p5844
aV20000
p5845
aV700
p5846
aVmollusc
p5847
aV82
p5848
aVour
p5849
aV80
p5850
aV86
p5851
aV87
p5852
aVspecial
p5853
aVout
p5854
aVpanason
p5855
aVperforma
p5856
aVsentiment
p5857
aVenemi
p5858
aVarmor
p5859
aVmonash
p5860
aVreboot
p5861
aVautomag
p5862
aVcategori
p5863
aVrickel
p5864
aVvcr
p5865
aVsuitabl
p5866
aVamphibi
p5867
aVcalib
p5868
aVvesselin
p5869
aVecb
p5870
aV8m
p5871
aVwheelbas
p5872
aVmanipul
p5873
aVpartent
p5874
aV70n
p5875
aVect
p5876
aVwetwar
p5877
aVyork
p5878
aVusual
p5879
aVspeedstar
p5880
aVinterplanetari
p5881
aVetern
p5882
aVwaterloo
p5883
aVg
p5884
aVlone
p5885
aV1981
p5886
aVflorida
p5887
aVmembership
p5888
aVkeep
p5889
aVkeel
p5890
aVorganis
p5891
aVcurti
p5892
aVgeometri
p5893
aVaustin
p5894
aVorganiz
p5895
aVfootag
p5896
aVsew
p5897
aVairborn
p5898
aVchristoph
p5899
aVqualiti
p5900
aVecho
p5901
aVkoresh
p5902
aVcongo
p5903
aVbitch
p5904
aVgalaxy00
p5905
aVesun228
p5906
aVcustommad
p5907
aVprioriti
p5908
aVunknown
p5909
aVcapac
p5910
aVtheir
p5911
aV1500
p5912
aVmacwoof
p5913
aVtheiv
p5914
aVprivaci
p5915
aVgeneralpurpos
p5916
aVdrool
p5917
aVharmon
p5918
aVoccasionali
p5919
aVfinal
p5920
aVshell
p5921
aVrsi
p5922
aVmattingli
p5923
aVpunish
p5924
aVmethodolog
p5925
aVtransistor
p5926
aVrsa
p5927
aVrsb
p5928
aVhassl
p5929
aVtissu
p5930
aVmid1993
p5931
aVexactli
p5932
aVapologist
p5933
aVkbssun1tamuedu
p5934
aVenoughy
p5935
aVcowork
p5936
aVben
p5937
aVholland
p5938
aVprotocol
p5939
aV150k
p5940
aVlion
p5941
aVsmeal
p5942
aVsiemen
p5943
aVdubiou
p5944
aVbare
p5945
aVhadambcsc02govbcca
p5946
aV7400
p5947
aVbet
p5948
aVtommi
p5949
aVfunction
p5950
aVsp
p5951
aVesposito
p5952
aVclip
p5953
aV54
p5954
aVturbomodem
p5955
aVexplicit
p5956
aVbuy
p5957
aVtabl
p5958
aVneed
p5959
aVborder
p5960
aVcraftclarksonedu
p5961
aVscrew
p5962
aVbastard
p5963
aVafraid
p5964
aVrout
p5965
aVsi
p5966
aVvideoaid
p5967
aVunawar
p5968
aV250hoffmanseasgwuedu
p5969
aV40pin
p5970
aV8157273415
p5971
aVtactic
p5972
aV33913901394
p5973
aVso
p5974
aVdetector
p5975
aVmountaintop
p5976
aVsingl
p5977
aVsn
p5978
aVingl
p5979
aVtwomachin
p5980
aVcombat
p5981
aVscreenprint
p5982
aVcentri
p5983
aVwhi
p5984
aVdiscov
p5985
aVmuck
p5986
aVunmonitor
p5987
aVrigor
p5988
aVsb
p5989
aVarcan
p5990
aVhu
p5991
aVclass
p5992
aVstereo
p5993
aV08810
p5994
aVspaceflight
p5995
aVfatherslead
p5996
aVovermuch
p5997
aVinde
p5998
aVdeni
p5999
aVdannybpanixcom
p6000
aVse
p6001
aVdetermin
p6002
aVxavier
p6003
aVinexpens
p6004
aVaffair
p6005
aVfeal
p6006
aVscreen_numb
p6007
aVyaer
p6008
aV12h
p6009
aVfreshmen
p6010
aVsent
p6011
aVanyway
p6012
aVlivedin
p6013
aVottoman
p6014
aVmolest
p6015
aVpositiveor
p6016
aVishav
p6017
aVreader
p6018
aVha
p6019
aVlocat
p6020
aV6000
p6021
aVrecautosusenet
p6022
aVwinner
p6023
aVupstair
p6024
aVmanufactur
p6025
aVhochman
p6026
aVarabian
p6027
aVmicron
p6028
aVrabbi
p6029
aVinhabit
p6030
aVlocal
p6031
aVghhwangcsienctuedutw
p6032
aVmga
p6033
aVcube
p6034
aVcontribut
p6035
aVfansmor
p6036
aV121
p6037
aV125
p6038
aVwerent
p6039
aV128
p6040
aVaerodynam
p6041
aVhandgun
p6042
aVimsl
p6043
aVenabl
p6044
aVtobacco
p6045
aVscispac
p6046
aVgrayscal
p6047
aVqa
p6048
aVponderhtanabe734110579
p6049
aVahdshak
p6050
aVxew13
p6051
aVpartit
p6052
aVcontain
p6053
aVshi
p6054
aVgrab
p6055
aVgrad
p6056
aVdpi
p6057
aVview
p6058
aVj
p6059
aVcrashland
p6060
aVknowledg
p6061
aVimmor
p6062
aVyugoslavia
p6063
aVdistract
p6064
aVsolder
p6065
aVxbit
p6066
aVpeterson
p6067
aVcloser
p6068
aVstatu
p6069
aV_turn
p6070
aVlynnvax1mankatomsusedu
p6071
aVcorrectli
p6072
aVrecord
p6073
aVhomewood
p6074
aV655360
p6075
aVthumb
p6076
aVtend
p6077
aVxray
p6078
aVgenius
p6079
aVwritten
p6080
aV250csspabmailgwncslnistgov
p6081
aVviper
p6082
aVtyre
p6083
aVchemic
p6084
aVneither
p6085
aVbought
p6086
aVken
p6087
aVaddin
p6088
aVerotica
p6089
aVjoy
p6090
aVacceller
p6091
aVjob
p6092
aVentir
p6093
aVjoe
p6094
aVkey
p6095
aVotherwis
p6096
aVgoodluck
p6097
aVdisconnect
p6098
aVexar
p6099
aVencryp
p6100
aVencryt
p6101
aV16mb
p6102
aVadmin
p6103
aVarno
p6104
aVaqua
p6105
aVapril
p6106
aVadmit
p6107
aVastrocalc
p6108
aVatleast
p6109
aVcommitte
p6110
aVpassag
p6111
aVami
p6112
aVpubxr4
p6113
aVrtrace
p6114
aVsigpip
p6115
aVrpw
p6116
aVwall
p6117
aVcommer
p6118
aVarriv
p6119
aVwalk
p6120
aV______________________________________________________________________________
p6121
aVsolv
p6122
aVrpc
p6123
aVrespect
p6124
aVemm386
p6125
aVultratrivi
p6126
aVismbnlmnihgov
p6127
aVwithdrawl
p6128
aVquit
p6129
aVslowli
p6130
aVteach
p6131
aVdecent
p6132
aVghazali
p6133
aVbbc
p6134
aVcompos
p6135
aVamiga
p6136
aVchipset
p6137
aV20hz
p6138
aVint
p6139
aVbesid
p6140
aVtreat
p6141
aV300x225
p6142
aVdure
p6143
aVhernandez
p6144
aVfiftycalib
p6145
aVmike
p6146
aVliverpool
p6147
aVvc
p6148
aV83103
p6149
aVboth
p6150
aVpresenc
p6151
aVyeild
p6152
aVdisney
p6153
aVhmm
p6154
aVhmo
p6155
aVfactfind
p6156
aVcruel
p6157
aVpresent
p6158
aVcrappi
p6159
aVingredi
p6160
aVnovel
p6161
aVripem
p6162
aVcursor
p6163
aV1024x768x64k
p6164
aVerik
p6165
aVantigun
p6166
aVanecedot
p6167
aVobserv
p6168
aV20c
p6169
aVbolero
p6170
aVlayer
p6171
aVmotif
p6172
aVpcxview
p6173
aVdemo
p6174
aVneuron
p6175
aVfileshar
p6176
aVcompletedli
p6177
aV417100
p6178
aVhmmmmmmmmmmmmmmmmmmmmmmmmmmmmmmmmmmmmmmmmmmmmmmmm
p6179
aVmotiv
p6180
aVavi
p6181
aVdual
p6182
aVnonup
p6183
aVrevis
p6184
aVmotosport
p6185
aVscienc
p6186
aVwelcom
p6187
aVasant
p6188
aVparti
p6189
aVbegan
p6190
aVcross
p6191
aVmember
p6192
aVspeaker
p6193
aVnorthwest
p6194
aVlargest
p6195
aVinch
p6196
aV_he
p6197
aVprobabl
p6198
aVnonappl
p6199
aVdifficult
p6200
aVnightli
p6201
aV486dx
p6202
aVslave
p6203
aVabsorb
p6204
aVeffect
p6205
aVselfpromo
p6206
aViniti
p6207
aVstudent
p6208
aVdataglov
p6209
aVadcom
p6210
aVpheonix
p6211
aVmecl
p6212
aVama
p6213
aVmeca
p6214
aVjrmgnvifasufledu
p6215
aVoverwork
p6216
aVscissor
p6217
aVpart3
p6218
aVwelt
p6219
aVenglish
p6220
aVrifl
p6221
aVhrsessenti
p6222
aVleverri
p6223
aV44
p6224
aVcristi
p6225
aVrocket
p6226
aVoak
p6227
aVobtain
p6228
aVtcp
p6229
aV43
p6230
aVtcl
p6231
aVrebuildingreconfigur
p6232
aV40
p6233
aVheavili
p6234
aVincreasingli
p6235
aVskill
p6236
aVsimultan
p6237
aVse30
p6238
aVpanther
p6239
aVdrunk
p6240
aVsmith
p6241
aVfarid
p6242
aVdiscuss
p6243
aVncdp14691000330002451
p6244
aVstowel
p6245
aVother
p6246
aVought
p6247
aVwarrant
p6248
aVrememb
p6249
aVhypocrici
p6250
aVutah
p6251
aVmsbsqcom
p6252
aVmunich
p6253
aV261
p6254
aVbatteri
p6255
aVknow
p6256
aVmohawkcsutexasedu
p6257
aVpress
p6258
aVknox
p6259
aVhollow
p6260
aVdos5
p6261
aVloss
p6262
aVlincoln
p6263
aVlost
p6264
aVincred
p6265
aVmiami
p6266
aV4mb
p6267
aVnecessari
p6268
aVmartin
p6269
aVpropaganda
p6270
aVcandl
p6271
aVpage
p6272
aVcandi
p6273
aVexceed
p6274
aVdrop
p6275
aVglare
p6276
aVshea
p6277
aVchurch
p6278
aV986
p6279
aVstat
p6280
aVgerrit
p6281
aV115
p6282
aV114
p6283
aV117
p6284
aVgrowth
p6285
aVexport
p6286
aV110
p6287
aV113
p6288
aV112
p6289
aVhome
p6290
aVpeter
p6291
aV119
p6292
aV118
p6293
aVlibrari
p6294
aVautopost
p6295
aVborland
p6296
aVlead
p6297
aVoverlay
p6298
aVleak
p6299
aVkratz
p6300
aVanectdot
p6301
aVthank
p6302
aVoverlap
p6303
aV16450
p6304
aVleas
p6305
aVestim
p6306
aVleav
p6307
aVjoltgnuaimitedu
p6308
aV6419
p6309
aVsmyth
p6310
aVleader
p6311
aVpr
p6312
aVencourag
p6313
aVinvestig
p6314
aVworkgroup
p6315
aVjournal
p6316
aVenum
p6317
aVmitr
p6318
aVfacilit
p6319
aVoffset
p6320
aVtanab
p6321
aVopirg
p6322
aV040
p6323
aVndi
p6324
aVquarter
p6325
aVnoemailaddresseicnetnach
p6326
aVsumex
p6327
aVfreedom
p6328
aVbobkc2wzbubbleorg
p6329
aVrightthink
p6330
aVstamp
p6331
aVfear
p6332
aVswear
p6333
aVhpmvd069nsrhpcom
p6334
aVribcsclivacuk
p6335
aVdisabl
p6336
aVoverlook
p6337
aVxr2240
p6338
aVglenn
p6339
aVwashington
p6340
aVcostantli
p6341
aVwarranti
p6342
aVultrasound
p6343
aVmediaev
p6344
aVweather
p6345
aVbrush
p6346
aVbuick
p6347
aVcouldnt
p6348
aVscharfi
p6349
aVpointless
p6350
aVcb900
p6351
aVpc
p6352
aVtransfer
p6353
aVcomputervis
p6354
aVfeat
p6355
aVhammarbi
p6356
aVvax
p6357
aVappl
p6358
aVed
p6359
aVvar
p6360
aVdhor
p6361
aVindividu
p6362
aVvat
p6363
aV1024x768x256
p6364
aVnorth
p6365
aVhp
p6366
aVxerox
p6367
aVnwreader
p6368
aVescrow
p6369
aVastro
p6370
aVneutral
p6371
aVhi
p6372
aVgain
p6373
aVspuriou
p6374
aVthreaten
p6375
aVeas
p6376
aVear
p6377
aVeat
p6378
aVhd
p6379
aVhe
p6380
aV640kb
p6381
aVmade
p6382
aVunderstat
p6383
aVwhether
p6384
aVinjur
p6385
aVscientif
p6386
aVricketi
p6387
aVtroubl
p6388
aV727
p6389
aVbelow
p6390
aV25mhz
p6391
aVlimit
p6392
aVfaggot
p6393
aVmicrogenesi
p6394
aVdisplay
p6395
aVsignet
p6396
aVobstens
p6397
aVevalu
p6398
aVez
p6399
aViifx
p6400
aVmeaningless
p6401
aValesi
p6402
aVtwist
p6403
aV8bit
p6404
aVtclsipp
p6405
aVhaldr
p6406
aVeric
p6407
aVgizmo
p6408
aVdiego
p6409
aVdiplomat
p6410
aVimak
p6411
aVymp
p6412
aVboot
p6413
aVbook
p6414
aVfutur
p6415
aVsick
p6416
aVscif
p6417
aVb640
p6418
aVimag
p6419
aVbonehead
p6420
aVjunk
p6421
aVstar
p6422
aVjune
p6423
aVstay
p6424
aVstaf
p6425
aVrichardson
p6426
aVar007
p6427
aVwilliambeeubcca
p6428
aVhumbl
p6429
aVcliff
p6430
aVexperienc
p6431
aVsphinx
p6432
aVmassacr
p6433
aVsuhonen
p6434
aVatheist
p6435
aVreliabl
p6436
aVatheism
p6437
aVemerg
p6438
aVlabkaslsidhpcom
p6439
aV6132831095
p6440
aVnhlc
p6441
aVdecemb
p6442
aVsimpson
p6443
atp6444
Rp6445
.