(lp0
Vthe
p1
aVof
p2
aVcontrol
p3
aVonli
p4
aVindividu
p5
aVaccess
p6
aVgive
p7
aVwill
p8
aVnoth
p9
aVstate
p10
aVarmenian
p11
aVxsoviet
p12
aVtoday
p13
aVreject
p14
aVright
p15
aVand
p16
aVchip
p17
aVha
p18
aVkey
p19
aVby
p20
aVin
p21
aVs
p22
aVvietnam
p23
aVon
p24
aVbase
p25
aVcontract
p26
aVjust
p27
aVdo
p28
aVall
p29
aVget
p30
aVwe
p31
aVpay
p32
aVfor
p33
aVor
p34
aVdevelop
p35
aVfrom
p36
aVapprov
p37
aVother
p38
aVnot
p39
aVeveryth
p40
aVpossibl
p41
aVour
p42
aVif
p43
aVwould
p44
aVattent
p45
aVslaughter
p46
aVcivilian
p47
aVnone
p48
aVtroop
p49
aVwhen
p50
aV49931
p51
aVlittl
p52
aVas
p53
aVamerican
p54
aVstructur
p55
aVto
p56
aVunderstand
p57
aVus
p58
aVtalk
p59
aVinto
p60
aVleas
p61
aVyou
p62
aVani
p63
aVone
p64
aVscandal
p65
aVagenc
p66
aVit
p67
aVseem
p68
aVisra
p69
aValthough
p70
aVfeder
p71
aVexcept
p72
aVhold
p73
aVallow
p74
aVoffic
p75
aVhenc
p76
aVdemocraci
p77
aVabout
p78
aVgreec
p79
aVattempt
p80
aVinclud
p81
aVforeign
p82
aVprivat
p83
aVcomplaint
p84
aVover
p85
aVlarg
p86
aVwant
p87
aVbe
p88
aVabl
p89
aVthat
p90
aVheard
p91
aVis
p92
aVencod
p93
aVown
p94
aVtheir
p95
aVsuggest
p96
aVjim
p97
aVrosenkranz
p98
aVrosenkranzenetdeccom
p99
aVlive
p100
aVout
p101
aVbut
p102
aVbug
p103
aVwa
p104
aVcrazierand
p105
aVthey
p106
aVa
p107
aVitself
p108
aVcall
p109
aVaint
p110
aVchariti
p111
aVregul
p112
aVsubject
p113
aVturkish
p114
aVdavidianbabbl
p115
aVfeel
p116
aVcan
p117
aVsupposedli
p118
aVwar
p119
aVrethought
p120
aVthi
p121
aVsoon
p122
aVconceal
p123
aVi
p124
aVfail
p125
aVwith
p126
aVan
p127
aVsure
p128
aVprove
p129
aVcase
p130
aVbetween
p131
aV1915
p132
aVwilliam
p133
aVdecemb
p134
aVstarr
p135
aVparti
p136
aVlong
p137
aVbegan
p138
aVsystemat
p139
aVheroin
p140
aVcould
p141
aVadopt
p142
aVusa
p143
aVprobabl
p144
aVstop
p145
aVrepres
p146
aVindustri
p147
aVemit
p148
aVkept
p149
aVmedia
p150
aVat
p151
aVoutrag
p152
aVconsid
p153
aVexcess
p154
aVscharfi
p155
aVgiven
p156
aVoutsid
p157
aVoffer
p158
aVubiquit
p159
aVstrong
p160
aVanytim
p161
aV2
p162
aVdictat
p163
aVarrog
p164
aVfar
p165
aVpaperwork
p166
aVgoe
p167
aVnissan
p168
aVciti
p169
aVcame
p170
aVconnect
p171
aVotherwis
p172
aVprivileg
p173
aVself
p174
aVthem
p175
aVgrant
p176
aVreturn
p177
aVeveri
p178
aVtelephon
p179
aVcomput
p180
aVlocal
p181
aVplanner
p182
aVaqua
p183
aVargument
p184
aVsuch
p185
aVweapon
p186
aVslowli
p187
aVrestrict
p188
aVhave
p189
aVlike
p190
aVtell
p191
aVsimpl
p192
aVmust
p193
aVkeyword
p194
aVintern
p195
aVnonusa
p196
aVgovern
p197
aVbritish
p198
aVbecaus
p199
aVhad
p200
aVmuch
p201
aVgreater
p202
aVwhich
p203
aVform
p204
aVnecessari
p205
aVguarante
p206
aVcustom
p207
aVnasa
p208
aVcreat
p209
aVno
p210
aVmilitari
p211
aVwithin
p212
aVcompound
p213
aVtulkarm
p214
aVisrael
p215
aVoffici
p216
aVswallow
p217
aVstori
p218
aVwaco
p219
aVturkey
p220
aVannounc
p221
aVpeopl
p222
aVdeserv
p223
aVdont
p224
aVpart
p225
aVbefor
p226
aVmay
p227
aVrepresent
p228
aVchristian
p229
aVare
p230
aViscan
p231
aVquestion
p232
aVme
p233
aVreli
p234
aVsole
p235
aVperson
p236
aVdatabas
p237
aVels
p238
aVpromis
p239
aVmoney
p240
aVnatur
p241
aVline
p242
aVmade
p243
aVup
p244
aVchanc
p245
aVthought
p246
aVwhere
p247
aVwhat
p248
aVprice
p249
aVintervent
p250
aVsurest
p251
aVprotect
p252
aVhow
p253
aVspi
p254
aVtransffer
p255
aVfile
p256
aVyigal
p257
aVpit
p258
aVpolici
p259
aVagainst
p260
aVlack
p261
aVinstal
p262
aVback
p263
aVdoor
p264
aVmost
p265
aVsay
p266
aV96
p267
aVprovision
p268
aVb
p269
aVfulli
p270
aVendors
p271
aVcommun
p272
aVagent
p273
aVperhap
p274
aVdistrust
p275
aVshould
p276
aVexist
p277
aVart
p278
aVsooner
p279
aVlearn
p280
aVhelser
p281
aVinterest
p282
aVted
p283
aVunless
p284
aVsubsidis
p285
aVsome
p286
aVcare
p287
aVremov
p288
aVnor
p289
aVtri
p290
aVcours
p291
aVthen
p292
aVuse
p293
aVcapston
p294
aVmyk80
p295
aVreform
p296
aVgood
p297
aVfour
p298
aVkill
p299
aVsister
p300
aVamong
p301
aVsdio
p302
aVorigin
p303
aVavoid
p304
aVmight
p305
aVtime
p306
aVbad
p307
aVhopelessli
p308
aVarizona
p309
aVlebanes
p310
aVwarn
p311
aV1981
p312
aVreceiv
p313
aVthousand
p314
aVguilti
p315
aVwho
p316
aVdecid
p317
aVmurder
p318
aVhardwar
p319
aVvoic
p320
aVgear
p321
aVthere
p322
aVbenevol
p323
aVbatf
p324
aVcircumscrib
p325
aVpower
p326
aVkeep
p327
aVthose
p328
aVformat
p329
aVcoalit
p330
aVreligi
p331
aVam
p332
aVinform
p333
aVlikud
p334
aVleftist
p335
aVdoe
p336
aVwhi
p337
aVhelp
p338
aVgo
p339
aVafter
p340
aVgot
p341
aVaway
p342
aVsocieti
p343
aVsee
p344
aVfinnish
p345
aVhowev
p346
aVactiv
p347
aVpredominantli
p348
aVessenc
p349
aVmore
p350
aVthan
p351
aVsomeon
p352
aVplot
p353
aVetc
p354
aVeither
p355
aVadl
p356
aViron
p357
aVjustifi
p358
aVoccup
p359
aVprinc
p360
aVreplac
p361
aVpresid
p362
aVtrue
p363
aVcontinu
p364
aVmani
p365
aVelectron
p366
aVincreasingli
p367
aVfunction
p368
aVservic
p369
aVwast
p370
aVincred
p371
aVrule
p372
aVviolat
p373
aVplan
p374
aVask
p375
aVwhether
p376
aVcolonis
p377
aVfinal
p378
aVmonth
p379
aVprogram
p380
aVconsist
p381
aVnote
p382
aVpropos
p383
aVlimit
p384
aVprincipl
p385
aVliberti
p386
aVsafe
p387
aVu
p388
aVcompletedli
p389
aVthink
p390
aVstill
p391
aVgenuin
p392
aVpoint
p393
aVbudget
p394
aVmonoton
p395
aVbind
p396
aVrole
p397
aVopinion
p398
aValgeria
p399
aVside
p400
aVyour
p401
aVposit
p402
aVactual
p403
aVlegal
p404
aVdemocrat
p405
aVbeen
p406
aVinstead
p407
aVrabin
p408
aVclearli
p409
aVindic
p410
aVdrafte
p411
aVk_p
p412
aVuser
p413
aVwhole
p414
aVstragegi
p415
aVfear
p416
aVjone
p417
aValso
p418
aVlet
p419
aVstandard
p420
aVdidnt
p421
aVintend
p422
aVmexican
p423
aVknowledg
p424
aVnow
p425
aVencourag
p426
aVmassiv
p427
aVrequir
p428
aVsubsidi
p429
aVheh
p430
aValreadi
p431
aVgave
p432
aVequival
p433
aVfund
p434
aVholi
p435
aVshit
p436
aVtrust
p437
aVcant
p438
aVagre
p439
aVpeac
p440
aVafrican
p441
aVsouth
p442
aVinvolv
p443
aVknow
p444
aVconcern
p445
aVignor
p446
aVintrus
p447
aVgun
p448
aVmy
p449
aVsupport
p450
aVbest
p451
aVbreak
p452
aVbeliev
p453
aVhand
p454
aVjune
p455
aV131988
p456
aVstepanakert
p457
aVitalian
p458
aVspace
p459
aVfact
p460
aVwage
p461
aVbother
p462
aVput
p463
aVcover
p464
aVussr
p465
aVbodi
p466
aVsimilar
p467
aVwhistleblow
p468
aVabus
p469
aVchines
p470
aVconquest
p471
aVcommunist
p472
aVformer
p473
aVbaku
p474
aVlater
p475
aVparanoia
p476
aVrecent
p477
aVid
p478
aVlove
p479
aVuntil
p480
aVreason
p481
aVilleg
p482
aVassault
p483
aVexpens
p484
aVattack
p485
aVdetermin
p486
aVnever
p487
aVreleas
p488
aVsens
p489
aVprohibit
p490
aValtern
p491
aVnonescrow
p492
aVbranch
p493
aVreport
p494
aVinvestig
p495
aVbroke
p496
aVbusi
p497
aVeduc
p498
aViranian
p499
aVforc
p500
aVdrop
p501
aVlegitim
p502
aVtoppl
p503
aVarchibishop
p504
aVmakario
p505
aVsuck
p506
aVheartless
p507
aVbastard
p508
aVaustralian
p509
aVeg
p510
aVmoreov
p511
aVtecum
p512
aValway
p513
aVimmun
p514
aVpreviou
p515
aVpick
p516
aVtheori
p517
aVhere
p518
aVprovid
p519
aVrussian
p520
aVthird
p521
aVcut
p522
aVoff
p523
aVadvertis
p524
aVshow
p525
aVoppress
p526
aVfight
p527
aVconvinc
p528
aV1
p529
aVraod
p530
aVvagu
p531
aVsolid
p532
aVrisk
p533
aVinde
p534
aVbig
p535
aVdefin
p536
aVwork
p537
aVsever
p538
aVyear
p539
aVcollect
p540
aV__the
p541
aVtheyv
p542
aVbargain
p543
aVless
p544
aVtaxat
p545
aVjob
p546
aVfascist
p547
aVstupid
p548
aVerr
p549
aVfriend
p550
aVcitizen
p551
aVbout
p552
aVwade
p553
aVbogg
p554
aVaction
p555
aVstart
p556
aVphilosophi
p557
aVhi
p558
aVbelief
p559
aVwasnt
p560
aVfind
p561
aVrespons
p562
aVunmonitor
p563
aVpress
p564
aVcorp
p565
aVbalakisi
p566
aVthrough
p567
aVazerbaijani
p568
aValarm
p569
aVnew
p570
aVpal
p571
aVim
p572
aVinclin
p573
aVanoth
p574
aVrun
p575
aVcomplet
p576
aVamok
p577
aVdoesnt
p578
aVhowl
p579
aVinstantli
p580
aVway
p581
aVlaw
p582
aVoppos
p583
aVpolic
p584
aVcompos
p585
aVtaxandspend
p586
aVinstitution
p587
aVdepend
p588
aVvariou
p589
aVconduct
p590
aVregard
p591
aVviolenc
p592
aVescrow
p593
aVso
p594
aVarguement
p595
aVeconomi
p596
aVmove
p597
aVparticularli
p598
aVsuppli
p599
aVair
p600
aVgreek
p601
aVcome
p602
aVcapac
p603
aVcontractor
p604
aVireland
p605
aVstake
p606
aVovermuch
p607
aVsecur
p608
aVinvit
p609
aVconcept
p610
aVsnoop
p611
aVexampl
p612
aVauthor
p613
aVparticip
p614
aVtrade
p615
aVssf
p616
aVtogeth
p617
aVexcel
p618
aVdivers
p619
aVparliament
p620
aVfirst
p621
aVworld
p622
aVbeij
p623
aVmonitor
p624
aVcyberspac
p625
aVprioriti
p626
aVazerbaijan
p627
aVturan
p628
aVappeal
p629
aVazeri
p630
aVface
p631
aVthemselv
p632
aVsuppress
p633
aVfraud
p634
aVforgot
p635
aVwait
p636
aVtobacco
p637
aVraid
p638
aVtwo
p639
aVwear
p640
aVblack
p641
aVhistorian
p642
aVproven
p643
aVpolit
p644
aVarm
p645
aVleav
p646
aVheat
p647
aV15
p648
aVmillion
p649
aVtyranni
p650
aVt
p651
aVjefferson
p652
aVday
p653
aVargu
p654
aVmake
p655
aVwere
p656
aVafraid
p657
aVcar
p658
aVzhiguli
p659
aVemploye
p660
aVproperti
p661
aVarmor
p662
aVvehicl
p663
aVbrad
p664
aVassert
p665
aVnotori
p666
aVsloppi
p667
aVwonder
p668
aVgeorgian
p669
aVindepend
p670
aVenforc
p671
aVencrypt
p672
aVthoma
p673
aVpurchas
p674
aVlunar
p675
aVtake
p676
aVoutlaw
p677
aVtyrann
p678
aVgone
p679
aVmad
p680
aVpreregist
p681
aVautomat
p682
aVthu
p683
aVasid
p684
aVseek
p685
aVturn
p686
aVlast
p687
aVtrumpet
p688
aVhappi
p689
aVrepress
p690
aVoverthrow
p691
aVthreat
p692
aVcivil
p693
aVtrader
p694
aVdiffer
p695
aVdeni
p696
aVarmenia
p697
aVratio
p698
aVcostbenefit
p699
aVobvious
p700
aVarmi
p701
aVlaughter
p702
aVsenat
p703
aVhockey
p704
aVsecular
p705
aVwon
p706
aVfree
p707
aVvat
p708
aVimpos
p709
aVsale
p710
aVaddit
p711
aVcanadian
p712
aVpci
p713
aVsoftwar
p714
aVturk
p715
aVyoung
p716
aVmanag
p717
aVscrew
p718
aVwithout
p719
aVmedic
p720
aVsomemani
p721
aVabsolut
p722
aVtotalitarian
p723
aVsold
p724
aVrestaur
p725
aVtheater
p726
aVbuild
p727
aVavail
p728
aVthatcher
p729
aVargentina
p730
aVact
p731
aVpull
p732
aVjewish
p733
aVmovement
p734
aVrescu
p735
aVensur
p736
aVdie
p737
aVfrustrat
p738
aVsurveil
p739
aVsophist
p740
aVcurrent
p741
aVdown
p742
aVde
p743
aVsometh
p744
aVeasier
p745
aVencroach
p746
aVsave
p747
aVchildren
p748
aVlibertarian
p749
aVconfidenti
p750
aVrecord
p751
aVaccord
p752
aVrecogn
p753
aVcypriot
p754
aVunit
p755
aVproduc
p756
aVcure
p757
aVgodless
p758
aVmiller
p759
aVfirearm
p760
aVasshol
p761
aVcrimin
p762
aVneglig
p763
aVnobodi
p764
aVwellspr
p765
aVincreas
p766
aVshot
p767
aVant
p768
aVselfish
p769
aVoverthrew
p770
aVfault
p771
aVgermani
p772
aVpossess
p773
aVaccept
p774
aVrealli
p775
aVcouldnt
p776
aVwalk
p777
aVeven
p778
aVcrappi
p779
aVporn
p780
aVstar
p781
aVpavarotti
p782
aVjapanes
p783
aVveri
p784
aV_includes_
p785
aVadmittedli
p786
aVserial
p787
aVevil
p788
aVprosecut
p789
aValleg
p790
aVmimi
p791
aVhear
p792
aVpublish
p793
aVcopi
p794
aVentir
p795
aVdefend
p796
aVjudg
p797
aVwing
p798
aVattribut
p799
aVfailur
p800
aVhmmm
p801
aVtitti
p802
aVtough
p803
aVoverthrown
p804
aVexpect
p805
aVprecis
p806
aVexactli
p807
aVthough
p808
aVapologist
p809
aVfbi
p810
aVrespect
p811
aVgroup
p812
aVhe
p813
aVthemsevl
p814
aVzionist
p815
aVtax
p816
aVcommit
p817
aVatroc
p818
aVburn
p819
aVswedish
p820
aVnice
p821
aVrather
p822
aVnation
p823
aVwell
p824
aVretain
p825
aVfredom
p826
aVrulescontrol
p827
aVamount
p828
aVsteal
p829
aVdebri
p830
aVstaf
p831
aVattorney
p832
aVinvad
p833
aVcorrupt
p834
aVdata
p835
aVestablish
p836
aVfeloni
p837
aVwhose
p838
aVutil
p839
aVmind
p840
aVtehlerian
p841
aVthese
p842
aVbritain
p843
aVorder
p844
aVcote
p845
aVprevent
p846
aVmean
p847
aVhusband
p848
aVreinvent
p849
aVpass
p850
aVracist
p851
aVexclusionari
p852
aVcambodian
p853
aVrepeat
p854
aVsoviet
p855
aVunder
p856
aV70
p857
aVbanish
p858
aVnumber
p859
aVemploy
p860
aVhealth
p861
aVsdpa
p862
aVlisten
p863
aVrememb
p864
aVscientist
p865
aVhater
p866
aVpractic
p867
aVweird
p868
aVtwice
p869
aVmonopoli
p870
aVcellular
p871
aVeye
p872
aVswear
p873
aVhill
p874
aVcongress
p875
aVclassifi
p876
aVcannot
p877
aVdid
p878
aVdollar
p879
aVspend
p880
aVbail
p881
aVenorm
p882
aVthank
p883
aVfourteenth
p884
aVreduc
p885
aVburden
p886
aVtook
p887
aVdesign
p888
aVanyth
p889
aVsocial
p890
aVoverlook
p891
aVcorpor
p892
aVregardless
p893
aVfill
p894
aViv
p895
aVparent
p896
aVc
p897
aVmusic
p898
aVviolent
p899
aVdead
p900
aV86
p901
aVsubstanti
p902
aVdisassoci
p903
aVresist
p904
aVpressur
p905
aVever
p906
aVpardon
p907
aVsecret
p908
aVadmini
p909
aVbegin
p910
aVfurther
p911
aVfiction
p912
aVcrack
p913
aVweek
p914
aVfavor
p915
aVresearch
p916
aVopen
p917
aVdepart
p918
aVcoupl
p919
aVstatist
p920
aVlabor
p921
aVtrack
p922
aVlayoff
p923
aVduti
p924
aVaccount
p925
aVanecdot
p926
aVdelet
p927
aVyet
p928
aVeffici
p929
aVitali
p930
aVyeah
p931
aVsignalcruis
p932
aVmandat
p933
aVmajor
p934
aVrutgersremusrutgersedukaldi
p935
aVgeovern
p936
aVread
p937
aVcolleg
p938
aVaccredit
p939
aVlead
p940
aVprofessor
p941
aVwrap
p942
aVmarxhausen
p943
aVpaul
p944
aVtoo
p945
aVnebraska
p946
aVlincoln
p947
aVmainfram
p948
aVdenni
p949
aVrecommend
p950
aVarea
p951
aVbengurion
p952
aVmason
p953
aVgeorg
p954
aVemail
p955
aVprogramm
p956
aVassoci
p957
aVma
p958
aVutah
p959
aVpublic
p960
aVlibrari
p961
aVunalt
p962
aVreproduct
p963
aVparticular
p964
aVspeak
p965
aVhighli
p966
aVvlsi
p967
aVdistract
p968
aVive
p969
aVcalendar
p970
aVmathemat
p971
aVdept
p972
aVnotr
p973
aVdame
p974
aVidea
p975
aVtechnic
p976
aVwouldnt
p977
aVmunich
p978
aVbomb
p979
aVgeograph
p980
aVknown
p981
aVdistribut
p982
aVnetwork
p983
aVstuden
p984
aVnorwegian
p985
aVpoor
p986
aVshod
p987
aVstudent
p988
aVhightech
p989
aVneed
p990
aVweight
p991
aVgod
p992
aVcopenhagen
p993
aVdenmark
p994
aVfound
p995
aVsite
p996
aVcolumbia
p997
aVghazali
p998
aVfarul
p999
aVdormitori
p1000
aVrel
p1001
aVexercis
p1002
aVre
p1003
aVmathewmantiscouk
p1004
aVsepar
p1005
aVnurs
p1006
aVgraduat
p1007
aVpc
p1008
aVpediatr
p1009
aVneurolog
p1010
aVnear
p1011
aVbicycl
p1012
aVdure
p1013
aVdaytim
p1014
aVmellish
p1015
aVkeel
p1016
aVphd85ukackeeleseq1
p1017
aVstaff
p1018
aVjeff
p1019
aVprimarili
p1020
aVcollabor
p1021
aVaeronaut
p1022
aVgurion
p1023
aVben
p1024
aVadvic
p1025
aVhmo
p1026
aVie
p1027
aVhospit
p1028
aVnonprofit
p1029
aVfamili
p1030
aVestabish
p1031
aVhypocrici
p1032
aVquit
p1033
aVclaim
p1034
aVcathol
p1035
aVpoland
p1036
aVorgan
p1037
aVcalifornia
p1038
aVpronounc
p1039
aVstudi
p1040
aVdaili
p1041
aVdemonstr
p1042
aVmarriag
p1043
aVwrite
p1044
aVteach
p1045
aVworship
p1046
aVpastor
p1047
aVonc
p1048
aVbelong
p1049
aVdrew
p1050
aVanalog
p1051
aVletter
p1052
aVlaodicea
p1053
aVearli
p1054
aVvers
p1055
aVleader
p1056
aVperog
p1057
aVchurch
p1058
aVdiscipl
p1059
aVcheck
p1060
aVfundamentalist
p1061
aVwhile
p1062
aVchoos
p1063
aVmeet
p1064
aVsda
p1065
aVsundayat
p1066
aVattend
p1067
aVjoin
p1068
aVtorch
p1069
aVroll
p1070
aVcell
p1071
aVusual
p1072
aVpalm
p1073
aVatleast
p1074
aVsunday
p1075
aVmarch
p1076
aVgunpoint
p1077
aVmichael
p1078
aVhimself
p1079
aVcontradict
p1080
aVattitud
p1081
aVcount
p1082
aV70km
p1083
aVdon
p1084
aVhead
p1085
aVinstit
p1086
aVmodel
p1087
aVhistori
p1088
aVbrian
p1089
aVtongu
p1090
aV17
p1091
aVhate
p1092
aVstep
p1093
aVld
p1094
aVmere
p1095
aVcouncil
p1096
aVbishop
p1097
aVgb
p1098
aVword
p1099
aVroman
p1100
aVexcommun
p1101
aVen
p1102
aVmass
p1103
aVapostol
p1104
aVxian
p1105
aVhierarch
p1106
aVtitl
p1107
aVmobadan
p1108
aVwarehous
p1109
aVmassachusett
p1110
aVritual
p1111
aVtradit
p1112
aVmayb
p1113
aVschismat
p1114
aVchina
p1115
aVmember
p1116
aVreplyto
p1117
aVgchinssfengsuncom
p1118
aVrc
p1119
aVstrongest
p1120
aVregularli
p1121
aVzwart
p1122
aVfaculteit
p1123
aVprotest
p1124
aVtank
p1125
aVpresbyterian
p1126
aVdoctrin
p1127
aVhomosexu
p1128
aVher
p1129
aVmarri
p1130
aVshe
p1131
aVad
p1132
aVwent
p1133
aVsermon
p1134
aValong
p1135
aVcorinthian
p1136
aVpleas
p1137
aVmiss
p1138
aVchang
p1139
aVapost
p1140
aVrevel
p1141
aVwrote
p1142
aVfranki
p1143
aVperish
p1144
aVfoundat
p1145
aVhayesstwrisc1unisaacza
p1146
aVsteve
p1147
aVhay
p1148
aVlutheran
p1149
aVmyself
p1150
aVorthodox
p1151
aVled
p1152
aV30
p1153
aVkimbal
p1154
aVstrongli
p1155
aVmagnific
p1156
aVkind
p1157
aVrcc
p1158
aVmatter
p1159
aVpersecut
p1160
aV10
p1161
aV19
p1162
aVdescrib
p1163
aVindiana
p1164
aVelder
p1165
aVbear
p1166
aVtestimoni
p1167
aVhappen
p1168
aVreqir
p1169
aVspirit
p1170
aVhonor
p1171
aVarchitectur
p1172
aVisland
p1173
aVdamn
p1174
aVexperi
p1175
aVeach
p1176
aVfatherslead
p1177
aVquot
p1178
aVmormon
p1179
aVview
p1180
aVborn
p1181
aValmost
p1182
aVministri
p1183
aVsuperior
p1184
aVsynagogu
p1185
aVcrime
p1186
aVceremoni
p1187
aVcombin
p1188
aVchrist
p1189
aVrenounc
p1190
aVdoubt
p1191
aVceremonypubl
p1192
aVvowlic
p1193
aVlogic
p1194
aVyouth
p1195
aVcharismat
p1196
aVvisit
p1197
aVnetcom
p1198
aVbooklet
p1199
aVye
p1200
aVoften
p1201
aVdaughter
p1202
aVgay
p1203
aVfelt
p1204
aVcleric
p1205
aVforbid
p1206
aVfew
p1207
aVrespond
p1208
aVround
p1209
aVstick
p1210
aVloosen
p1211
aVgrip
p1212
aVlot
p1213
aVhigher
p1214
aVdamag
p1215
aVbuy
p1216
aVenough
p1217
aVremain
p1218
aVplay
p1219
aVinsist
p1220
aVlefthand
p1221
aVbrilliant
p1222
aVeasi
p1223
aVelderli
p1224
aVdrive
p1225
aVmanual
p1226
aVfollow
p1227
aVreligion
p1228
aVd
p1229
aVstruck
p1230
aVterror
p1231
aVprize
p1232
aVcash
p1233
aValot
p1234
aVcondemn
p1235
aVmanretard
p1236
aVwin
p1237
aVsame
p1238
aVmjsthe
p1239
aVtechniqu
p1240
aVdrug
p1241
aVcaus
p1242
aVtend
p1243
aVmuslim
p1244
aV25
p1245
aVrace
p1246
aVquack
p1247
aVshouldnt
p1248
aVwit
p1249
aV57x
p1250
aVbasebal
p1251
aVbat
p1252
aVnet
p1253
aVrelat
p1254
aVmine
p1255
aVsend
p1256
aVdrool
p1257
aVsuffer
p1258
aVchronic
p1259
aVcertain
p1260
aVsuspect
p1261
aV20
p1262
aVplenti
p1263
aVbite
p1264
aVgener
p1265
aVworthwhil
p1266
aVguard
p1267
aVthing
p1268
aVsafeti
p1269
aVassum
p1270
aVaffect
p1271
aVtruth
p1272
aVprevious
p1273
aVhim
p1274
aVgospel
p1275
aVnews
p1276
aVdavidian
p1277
aVlenient
p1278
aVagain
p1279
aVaround
p1280
aVshouldercal
p1281
aVname
p1282
aVdiscuss
p1283
aVcomplain
p1284
aVblame
p1285
aVmsg
p1286
aVseen
p1287
aVindigen
p1288
aVpark
p1289
aVprefer
p1290
aVsell
p1291
aV1914
p1292
aVsanctuari
p1293
aVenter
p1294
aVbike
p1295
aVchapel
p1296
aVquick
p1297
aVdividend
p1298
aVsick
p1299
aVpermiss
p1300
aVextrem
p1301
aVbehavior
p1302
aVscheme
p1303
aVtude
p1304
aVwave
p1305
aVpunish
p1306
aVpleasur
p1307
aVpurpos
p1308
aVdisappear
p1309
aVhundr
p1310
aVthrew
p1311
aVbillion
p1312
aVconclus
p1313
aVshower
p1314
aV_defined_
p1315
aVyouv
p1316
aVwrong
p1317
aVvisavi
p1318
aVdisplay
p1319
aVturkiy
p1320
aVbetter
p1321
aVprimit
p1322
aVtribe
p1323
aV40
p1324
aVspars
p1325
aVspeaker
p1326
aVsmart
p1327
aVcooper
p1328
aVheret
p1329
aVdownload
p1330
aVenabl
p1331
aVrighteous
p1332
aVvast
p1333
aVcrazi
p1334
aVqualifi
p1335
aVthin
p1336
aVgday
p1337
aVopco
p1338
aVnntppostinghost
p1339
aVmodern
p1340
aVlife
p1341
aVsavag
p1342
aVlockstep
p1343
aVsimpli
p1344
aVbring
p1345
aVproblem
p1346
aVlay
p1347
aVawar
p1348
aVwhenev
p1349
aVinsid
p1350
aVacadem
p1351
aVinteract
p1352
aVrock
p1353
aVsustain
p1354
aVnolong
p1355
aVincompatib
p1356
aVtouch
p1357
aVarmament
p1358
aVintel
p1359
aVappar
p1360
aVairlin
p1361
aVserver
p1362
aVanon
p1363
aV5
p1364
aVvlbide
p1365
aVhire
p1366
aVgunshmmm
p1367
aVsurvey
p1368
aVstricter
p1369
aVpalestinian
p1370
aVoccupi
p1371
aVusenet
p1372
aVvia
p1373
aVrevisionist
p1374
aVreach
p1375
aVaid
p1376
aVem
p1377
aVregular
p1378
aVoutput
p1379
aVmitsubishi
p1380
aVbunch
p1381
aVsound
p1382
aVishav
p1383
aVvolvo
p1384
aVdegan
p1385
aVharriss
p1386
aVtoni
p1387
aVupright
p1388
aVmoral
p1389
aVsin
p1390
aVcarri
p1391
aVhealthi
p1392
aV2000
p1393
aVmention
p1394
aVbenefit
p1395
aVnumer
p1396
aVheld
p1397
aVangl
p1398
aVdegre
p1399
aVhope
p1400
aVobviou
p1401
aVcost
p1402
aVfee
p1403
aVswimmer
p1404
aVcrypto
p1405
aVtypic
p1406
aV1000
p1407
aVparsli
p1408
aVsight
p1409
aVshort
p1410
aVearth
p1411
aVpscribe
p1412
aVinterpret
p1413
aVoper
p1414
aVillinoi
p1415
aVpuzzl
p1416
aVgti
p1417
aV14
p1418
aVcapit
p1419
aVorang
p1420
aVdriver
p1421
aV59
p1422
aVsuccess
p1423
aVsix
p1424
aVapparantli
p1425
aVnazi
p1426
aVchosen
p1427
aVisraelit
p1428
aVwhom
p1429
aVrich
p1430
aVjesu
p1431
aVanyon
p1432
aVtech
p1433
aVborland
p1434
aVshi
p1435
aVoverwork
p1436
aVantisemit
p1437
aVjew
p1438
aVserazumauucp
p1439
aVfriendli
p1440
aVrobert
p1441
aVemmon
p1442
aVharass
p1443
aVcow
p1444
aVpalac
p1445
aV107h34
p1446
aVlevel
p1447
aVcloud
p1448
aVliteratur
p1449
aVsentiment
p1450
aVapril
p1451
aV23
p1452
aVpredict
p1453
aVbought
p1454
aVgold
p1455
aVintimid
p1456
aVfunni
p1457
aVmedicin
p1458
aVobject
p1459
aVmarvel
p1460
aVresult
p1461
aVneg
p1462
aVconfirm
p1463
aVcard
p1464
aVcycl
p1465
aVwound
p1466
aVthigh
p1467
aVholster
p1468
aV1993
p1469
aVinan
p1470
aVistead
p1471
aVwindow
p1472
aVdiscov
p1473
aVos2
p1474
aVhell
p1475
aVtuff
p1476
aVboth
p1477
aVsinc
p1478
aVoption
p1479
aVunusu
p1480
aVexcit
p1481
aVflame
p1482
aVsimilarli
p1483
aVinnoc
p1484
aVleast
p1485
aVeffect
p1486
aVunauthoris
p1487
aVuncov
p1488
aVrussia
p1489
aVdeal
p1490
aVconfus
p1491
aVunnecessarili
p1492
aVwhove
p1493
aVrob
p1494
aVtragic
p1495
aVmeaningless
p1496
aVnecess
p1497
aVdisput
p1498
aVanswer
p1499
aVamaz
p1500
aVdisast
p1501
aVmigrain
p1502
aVevent
p1503
aVpuffi
p1504
aVbutcher
p1505
aVcanada
p1506
aVespn
p1507
aVleft
p1508
aVradar
p1509
aVdetector
p1510
aVaris
p1511
aVconvers
p1512
aVphone
p1513
aVrightthink
p1514
aVquarantin
p1515
aVharm
p1516
aVmeme
p1517
aVdizzi
p1518
aVserdar
p1519
aVblown
p1520
aVrant
p1521
aVplace
p1522
aVride
p1523
aVaccesss
p1524
aValiv
p1525
aVwish
p1526
aVsometim
p1527
aVcorrect
p1528
aVengag
p1529
aVmonopol
p1530
aVadd
p1531
aVcountri
p1532
aVtest
p1533
aVreact
p1534
aV50012
p1535
aVia
p1536
aVame
p1537
aVespeci
p1538
aV___
p1539
aV_
p1540
aVprogun
p1541
aVposter
p1542
aVcheap
p1543
aVunfortun
p1544
aVfool
p1545
aVaspi4do
p1546
aVdozen
p1547
aVvote
p1548
aVmotiv
p1549
aVjeez
p1550
aVeffort
p1551
aVdrag
p1552
aVfreedom
p1553
aVhistor
p1554
aVcontact
p1555
aVage
p1556
aVsurpris
p1557
aVsaid
p1558
aVjoslin
p1559
aVvalu
p1560
aVquantiti
p1561
aVvelapold
p1562
aVerik
p1563
aVconfid
p1564
aVfirmli
p1565
aVgotten
p1566
aVnotic
p1567
aVafhetzelnetcomcom
p1568
aVguidelin
p1569
aVrequest
p1570
aVnomad
p1571
aVland
p1572
aVmarket
p1573
aVsimplemayb
p1574
aVinsecur
p1575
aVpost
p1576
aVscienc
p1577
aVyeltsin
p1578
aV100
p1579
aVstrike
p1580
aVnine
p1581
aVk
p1582
aVpromin
p1583
aVintrospect
p1584
aVfluid
p1585
aVlighter
p1586
aVtold
p1587
aVvice
p1588
aVanyway
p1589
aV3
p1590
aVhit
p1591
aVguy
p1592
aVamplifi
p1593
aVliddelow
p1594
aVleg
p1595
aVpromot
p1596
aV45000
p1597
aVazerbadjan
p1598
aVkelbadjar
p1599
aVevacu
p1600
aVguess
p1601
aVquotat
p1602
aVbeleiv
p1603
aVgreat
p1604
aVgulp
p1605
aVprogress
p1606
aVaffili
p1607
aVmlb
p1608
aVshock
p1609
aVfood
p1610
aVjfelderlercnasagov
p1611
aVdrink
p1612
aVsugar
p1613
aVdivis
p1614
aVyork
p1615
aV100000
p1616
aVpopul
p1617
aVtemporarili
p1618
aVpavlidi
p1619
aVkurdish
p1620
aVdumb
p1621
aVmanipul
p1622
aVcup
p1623
aVstane
p1624
aVtoss
p1625
aVoctupi
p1626
aVtail
p1627
aVtype
p1628
aVlose
p1629
aVcryptosystem
p1630
aVcorrespond
p1631
aVfootag
p1632
aVtexan
p1633
aVcs
p1634
aVdealer
p1635
aVhang
p1636
aVmostli
p1637
aVdone
p1638
aVknife
p1639
aVstreet
p1640
aVdifficult
p1641
aV2030
p1642
aVversion
p1643
aVmassacr
p1644
aVcda90038ucf1vmbitnet
p1645
aVmachin
p1646
aVborder
p1647
aVporou
p1648
aVshoot
p1649
aVfaith
p1650
aVenviron
p1651
aVfast
p1652
aVfactor
p1653
aVstraight
p1654
aVproof
p1655
aVwhite
p1656
aV_only_
p1657
aVsort
p1658
aVakin
p1659
aVfanat
p1660
aVrepli
p1661
aVspecif
p1662
aVdanger
p1663
aV1940
p1664
aVunselfishli
p1665
aVbehind
p1666
aVpersuad
p1667
aVhard
p1668
aVinvent
p1669
aVsehari
p1670
aVdb
p1671
aVawfulto
p1672
aVetern
p1673
aVdeath
p1674
aVaccus
p1675
aVbound
p1676
aVidiot
p1677
aVtpg
p1678
aVdefinit
p1679
aVcontempt
p1680
aVinfect
p1681
aVparodi
p1682
aVnsa
p1683
aVmitr
p1684
aVmd5a
p1685
aVrefer
p1686
aV200
p1687
aVdalla
p1688
aVreal
p1689
aVsmoker
p1690
aVsmoke
p1691
aVeveryon
p1692
aVtire
p1693
aVhuh
p1694
aVroom
p1695
aVissu
p1696
aVfit
p1697
aVcategori
p1698
aVregist
p1699
aVdeliber
p1700
aVwoman
p1701
aVattract
p1702
aVnativ
p1703
aVconquer
p1704
aVkhan
p1705
aVstalin
p1706
aVunsympathet
p1707
aVdraw
p1708
aVpagan
p1709
aVlook
p1710
aVbudg
p1711
aVspoke
p1712
aVper
p1713
aVdemand
p1714
aVwest
p1715
aVanger
p1716
aVundermin
p1717
aVnhl
p1718
aVforev
p1719
aVfrench
p1720
aVdisagre
p1721
aVcrew
p1722
aVhizbollah
p1723
aVmilitia
p1724
aVreaction
p1725
aVpercentag
p1726
aVlarger
p1727
aV1800mullerloriafr
p1728
aVlie
p1729
aVremind
p1730
aVwither
p1731
aV986
p1732
aVmail
p1733
aVordinari
p1734
aVterm
p1735
aVxliter
p1736
aVbow
p1737
aVscrape
p1738
aVuncommon
p1739
aVwatch
p1740
aVsaturn
p1741
aVproject
p1742
aVltm1
p1743
aVscissor
p1744
aVsomewher
p1745
aViivx
p1746
aVstuff
p1747
aVlist
p1748
aVallerg
p1749
aVdonor
p1750
aVblue
p1751
aVbankrupt
p1752
aVrug
p1753
aVoneeigth
p1754
aVtherefor
p1755
aVcommand
p1756
aVprocess
p1757
aVstartup
p1758
aVrape
p1759
aVpiss
p1760
aVintellig
p1761
aVallegedli
p1762
aVhamper
p1763
aVindulg
p1764
aVrealis
p1765
aVdiseas
p1766
aVlate
p1767
aVhenrik
p1768
aVground
p1769
aVcheer
p1770
aVcraig
p1771
aVarab
p1772
aVlivedin
p1773
aVduncan
p1774
aV6132831095
p1775
aVfax
p1776
aVconscious
p1777
aV16
p1778
aVutter
p1779
aVassassin
p1780
aVshell
p1781
aVvillag
p1782
aVpenalti
p1783
aVwierd
p1784
aVverbal
p1785
aVlog
p1786
aVyell
p1787
aVcomment
p1788
aVusedheard
p1789
aVprior
p1790
aVannoy
p1791
aVrest
p1792
aVmanufactur
p1793
aVphysic
p1794
aVdisabl
p1795
aVgosh
p1796
aVstock
p1797
aVmix
p1798
aVshorter
p1799
aVmet
p1800
aVthrown
p1801
aVparticl
p1802
aVasthma
p1803
aVrush
p1804
aVimpris
p1805
aVncr
p1806
aVstruggl
p1807
aVgarbag
p1808
aVkid
p1809
aVfutur
p1810
aVwont
p1811
aV80
p1812
aVwelt
p1813
aVgag
p1814
aVlegisl
p1815
aVtap
p1816
aVgrandchildren
p1817
aVmassag
p1818
aVerc
p1819
aV4000
p1820
aVnorthwest
p1821
aVrhode
p1822
aV6
p1823
aVbrand
p1824
aVsumgait
p1825
aVtown
p1826
aVcolorado
p1827
aVunivers
p1828
aV125
p1829
aVperiod
p1830
aVyugoslavia
p1831
aVproper
p1832
aVbarri
p1833
aVbenowitz
p1834
aVsaw
p1835
aVgunfir
p1836
aVfakeri
p1837
aVdecent
p1838
aVcop
p1839
aVnationwid
p1840
aVinvest
p1841
aVpseudonym
p1842
aVaw
p1843
aVmasonri
p1844
aVinterven
p1845
aVbright
p1846
aVdecad
p1847
aVexchang
p1848
aVpod
p1849
aVplanet
p1850
aVmar
p1851
aV8
p1852
aVstand
p1853
aVthinkth
p1854
aVbrave
p1855
aVimpress
p1856
aVcalib
p1857
aVclinic
p1858
aVcharg
p1859
aVresourc
p1860
aVinhal
p1861
aVworkspac
p1862
aVanymor
p1863
aVwors
p1864
aVkudo
p1865
aVpov
p1866
aVmolest
p1867
aVhuman
p1868
aVdespis
p1869
aVschool
p1870
aVpotenti
p1871
aVabund
p1872
aVprophisi
p1873
aVfullil
p1874
aVscsi
p1875
aVundeni
p1876
aVmud
p1877
aVcamera
p1878
aVmom
p1879
aVafford
p1880
aVvarieti
p1881
aVcruel
p1882
aVsail
p1883
aVrealiz
p1884
aVchancellor
p1885
aVreich
p1886
aVisnt
p1887
aVbirth
p1888
aVnay
p1889
aVcrohn
p1890
aV700000
p1891
aVgaza
p1892
aVholland
p1893
aVkan
p1894
aVwonderful
p1895
aVunwis
p1896
aVabil
p1897
aVjason
p1898
aVunreason
p1899
aVhalf
p1900
aVhuddl
p1901
aVricketi
p1902
aVdepriv
p1903
aVlen
p1904
aVextent
p1905
aVinsur
p1906
aVimperi
p1907
aVtie
p1908
aVrope
p1909
aV286
p1910
aVill
p1911
aVinternet
p1912
aVtop
p1913
aVcisc
p1914
aVfun
p1915
aVer
p1916
aVmaintain
p1917
aVspecul
p1918
aVuninform
p1919
aVcomplex
p1920
aVfigur
p1921
aVthree
p1922
aVteam
p1923
aVequal
p1924
aV1135
p1925
aV1986
p1926
aVcompil
p1927
aVpictur
p1928
aVbayonet
p1929
aVcommonli
p1930
aVmisspel
p1931
aVok
p1932
aVeurop
p1933
aVwestern
p1934
aVtall
p1935
aVunto
p1936
aVsystem
p1937
aVtrash
p1938
aVgradual
p1939
aVnubu
p1940
aVapplic
p1941
aVedit
p1942
aVincur
p1943
aVappli
p1944
aV85
p1945
aVmonday
p1946
aVsorri
p1947
aVmorgan
p1948
aVtechnolog
p1949
aVdiscrimin
p1950
aVshown
p1951
aVdubiou
p1952
aVdistinctli
p1953
aVtopic
p1954
aVselect
p1955
aVinoc
p1956
aVcostantli
p1957
aVslam
p1958
aVhumor
p1959
aV38
p1960
aVanim
p1961
aVsmall
p1962
aVpete
p1963
aVsmith
p1964
aV9
p1965
aVminer
p1966
aVsun
p1967
aVherc
p1968
aVhardcod
p1969
aVdiscoveri
p1970
aVhorrer
p1971
aVvegetarian
p1972
aV_did_
p1973
aVsheesh
p1974
aVnontechn
p1975
aVhint
p1976
aVheaven
p1977
aVama
p1978
aV150k
p1979
aV204000
p1980
aVhonest
p1981
aVinfluenti
p1982
aVsit
p1983
aVpr
p1984
aVvolum
p1985
aVdeclar
p1986
aVmoon
p1987
aV3000
p1988
aVbmw
p1989
aVpeaceabl
p1990
aVassembl
p1991
aVimagin
p1992
aVgreg
p1993
aVarent
p1994
aVenoughy
p1995
aVknew
p1996
aVcaught
p1997
aVchampion
p1998
aVtheyd
p1999
aVcategor
p2000
aVscriptur
p2001
aVpartial
p2002
aVx
p2003
aVoblivi
p2004
aVserious
p2005
aVabdullah
p2006
aVscratch
p2007
aV20000
p2008
aVsentenc
p2009
aVspectrum
p2010
aVforget
p2011
aVdesir
p2012
aVprivaci
p2013
aVatheist
p2014
aVbridg
p2015
aVstir
p2016
aVinflict
p2017
aVsolut
p2018
aViran
p2019
aVwinbench
p2020
aVtravel
p2021
aVeconom
p2022
aV______________________________________________________________________________
p2023
aVmarc
p2024
aVnarrow
p2025
aVp
p2026
aV361
p2027
aVseventh
p2028
aVscispac
p2029
aVdoublepark
p2030
aVmessag
p2031
aVworth
p2032
aVdos5
p2033
aVcuriou
p2034
aVsadder
p2035
aVchain
p2036
aVfrighten
p2037
aVunthink
p2038
aVbecom
p2039
aVbui
p2040
aVmode
p2041
aVcenter
p2042
aVrang
p2043
aVnicknam
p2044
aVquarter
p2045
aVpresent
p2046
aVfought
p2047
aVaccid
p2048
aVconvict
p2049
aVappl
p2050
aV128
p2051
aVinquir
p2052
aVhonestli
p2053
aVago
p2054
aV31
p2055
aVmswindow
p2056
aVu28037uicvmuicedu
p2057
aVkratz
p2058
aVson
p2059
aVfouryearold
p2060
aVbreadtub
p2061
aVgreasi
p2062
aVamerica
p2063
aVperform
p2064
aVaverag
p2065
aVtoward
p2066
aVbleed
p2067
aVblind
p2068
aVkoresh
p2069
aVbasic
p2070
aVmild
p2071
aVagnostic
p2072
aV360
p2073
aVcook
p2074
aVserv
p2075
aVrais
p2076
aVwater
p2077
aV1394
p2078
aVmadman
p2079
aVroof
p2080
aVhadnt
p2081
aVpaid
p2082
aVsubstanc
p2083
aVsurviv
p2084
aVcrash
p2085
aVjose
p2086
aVsan
p2087
aVberkeley
p2088
aVpray
p2089
aVbrief
p2090
aVugli
p2091
aVpisssssssss
p2092
aVofffffff
p2093
aVfair
p2094
aVmideast
p2095
aVimag
p2096
aVwang
p2097
aVagrev
p2098
aVrod
p2099
aVanderson
p2100
aVn0nzo
p2101
aVsuppos
p2102
aVlitigi
p2103
aV_any_
p2104
aVfrequent
p2105
aVroughli
p2106
aVdvx
p2107
aVeveryday
p2108
aVsituat
p2109
aVmultipl
p2110
aVfli
p2111
aV2500
p2112
aVterrifi
p2113
aVsummar
p2114
aVthx
p2115
aVandi
p2116
aV589tax
p2117
aVsilicon
p2118
aVvalley
p2119
aVrate
p2120
aVangri
p2121
aVarticl
p2122
aVgrasp
p2123
aVdeaththreat
p2124
aVnineveh
p2125
aVproduct
p2126
aVevalu
p2127
aVset
p2128
aVos
p2129
aVwaterg
p2130
aVbiggest
p2131
aVknowleg
p2132
aVinspir
p2133
aVyourself
p2134
aVneighbor
p2135
aV200000
p2136
aVkt
p2137
aVlouisvil
p2138
aVkeith
p2139
aVrpw
p2140
aVimport
p2141
aVtemper
p2142
aVhot
p2143
aVtetri
p2144
aVakron
p2145
aVarabian
p2146
aVaghdam
p2147
aVdepress
p2148
aVsucces
p2149
aVrip
p2150
aVprochoic
p2151
aVspoken
p2152
aV27
p2153
aVstream
p2154
aVlather
p2155
aVcalmli
p2156
aVbrought
p2157
aVmelt
p2158
aVfaa
p2159
aVrocket
p2160
aVbesieg
p2161
aVhernandez
p2162
aVperciev
p2163
aVaa
p2164
aVsrc
p2165
aVrelev
p2166
aVstarv
p2167
aVsomalia
p2168
aVaddress
p2169
aVsy
p2170
aVeachoth
p2171
aVcontext
p2172
aVsuffici
p2173
aVtyrant
p2174
aVbooki
p2175
aVforward
p2176
aVscam
p2177
aVfurthermor
p2178
aVgame
p2179
aVport
p2180
aVdenomin
p2181
aVimpeach
p2182
aVhudson
p2183
aV57
p2184
aVhurt
p2185
aVviewyou
p2186
aVfictiti
p2187
aVinstruct
p2188
aVtermin
p2189
aVottawa
p2190
aVworri
p2191
aVscenario
p2192
aVwhill
p2193
aVinsult
p2194
aVfrown
p2195
aVupon
p2196
aVmess
p2197
aVskin
p2198
aVcircumst
p2199
aVautior
p2200
aV90
p2201
aVparanoid
p2202
aVunlik
p2203
aVsheepmind
p2204
aVexperienc
p2205
aVemot
p2206
aVcompatibilti
p2207
aVr3
p2208
aVxapplresdir
p2209
aVidentifi
p2210
aViniti
p2211
aVentitl
p2212
aVcompens
p2213
aVfiber
p2214
aVpill
p2215
aVpreambl
p2216
aVlinux
p2217
aVcypru
p2218
aVinsurrect
p2219
aVadvisedli
p2220
aVshea
p2221
aV184
p2222
aVsecond
p2223
aVpoolobsess
p2224
aVsaddam
p2225
aV50000
p2226
aVwangrrpiedu
p2227
aVmohawkcsutexasedu
p2228
aVcach
p2229
aVenclos
p2230
aV250
p2231
aV_many_
p2232
aVpixel
p2233
aV28
p2234
aVandysailstanfordedu
p2235
aVnormal
p2236
aVabov
p2237
aVsu
p2238
aVqualif
p2239
aVrexlex
p2240
aV_he
p2241
aV60
p2242
aVbm
p2243
aVintrins
p2244
aV_naive_
p2245
aVantiguncontrol
p2246
aVunselfish
p2247
aVtheyr
p2248
aVantigun
p2249
aVforgiv
p2250
aV11
p2251
aVlebanon
p2252
aVyoghurt
p2253
aVlongterm
p2254
aVundoubtedli
p2255
aVsuburb
p2256
aVdistinguish
p2257
aVshirtprotect
p2258
aVchest
p2259
aVinjuri
p2260
aVspecialti
p2261
aVbemisunderstood
p2262
aVsovereignti
p2263
aVwritten
p2264
aVmain
p2265
aVodd
p2266
aVtreat
p2267
aVdog
p2268
aVelect
p2269
aVwherea
p2270
aVold
p2271
aV12000
p2272
aVdomain
p2273
aVfractal
p2274
aVimpli
p2275
aVgenocid
p2276
aVazt
p2277
aValon
p2278
aVadvocaci
p2279
aVreconcil
p2280
aVought
p2281
aVfull
p2282
aVstrang
p2283
aVclass
p2284
aVroger
p2285
aVtv
p2286
aVmacus
p2287
aVweather
p2288
aVbelittl
p2289
aVstay
p2290
aVstll
p2291
aVdistinct
p2292
aVcarv
p2293
aVorganis
p2294
aVbit
p2295
aVwide
p2296
aVvari
p2297
aVsoil
p2298
aV106112
p2299
aV96102
p2300
aVmerci
p2301
aVexclud
p2302
aVrsb
p2303
aVtroubl
p2304
aVcamp
p2305
aVtripled
p2306
aVek1dk2ek1x
p2307
aVms
p2308
aVmyer
p2309
aVtoxic
p2310
aVfresh
p2311
aVsleep
p2312
aVhappili
p2313
aVoutlet
p2314
aVweirder
p2315
aV600000
p2316
aVnineteen
p2317
aVreuter
p2318
aVshare
p2319
aVgather
p2320
aVarmyissu
p2321
aVpermit
p2322
aVfyi
p2323
aVepistl
p2324
aV13
p2325
aVbreach
p2326
aVhealeth
p2327
aVsaint
p2328
aVinher
p2329
aVpopular
p2330
aVstat
p2331
aVpcxremot
p2332
aVwheelchair
p2333
aVrig
p2334
aVsoundblast
p2335
aVlotsa
p2336
aVarena
p2337
aVdiscours
p2338
aVilliter
p2339
aVilleduc
p2340
aVfive
p2341
aVmark
p2342
aVguthri
p2343
aVhci
p2344
aVbia
p2345
aV43
p2346
aVsucka
p2347
aVrefund
p2348
aVontario
p2349
aVsouthern
p2350
aVplayoff
p2351
aVsneak
p2352
aVoctopu
p2353
aVbefriend
p2354
aVspell
p2355
aVphysician
p2356
aVatf
p2357
aVadvis
p2358
aVhazard
p2359
aVslow
p2360
aVscribe
p2361
aVfraser
p2362
aVminor
p2363
aVsensit
p2364
aVgraphic
p2365
aVaustin
p2366
aVgateway
p2367
aVdx2
p2368
aVcompet
p2369
aV414
p2370
aVhiv
p2371
aVprepar
p2372
aVnewspap
p2373
aVsw
p2374
aVmb
p2375
aVfascin
p2376
aVnegoti
p2377
aVx113d
p2378
aVada
p2379
aVmislead
p2380
aVchildcar
p2381
aV0
p2382
aVsearch
p2383
aVbill
p2384
aVtexa
p2385
aV8002539693
p2386
aVhour
p2387
aVaccomplish
p2388
aVembodi
p2389
aVsteer
p2390
aVcatch
p2391
aVimmedi
p2392
aVeh
p2393
aVsomehow
p2394
aV41
p2395
aVla
p2396
aVeat
p2397
aVmountaintop
p2398
aVlight
p2399
aVcandl
p2400
aVcoach
p2401
aVwelfar
p2402
aVinconsequenti
p2403
aVsensibl
p2404
aVradic
p2405
aVelsewher
p2406
aVeight
p2407
aVest
p2408
aV1500
p2409
aVran
p2410
aVclayton
p2411
aVthingi
p2412
aVhockin
p2413
aVgrow
p2414
aVgibson
p2415
aVsad
p2416
aVdisk
p2417
aVrid
p2418
aVsignific
p2419
aV99
p2420
aVhmmmmmmmmmmmmmmmmmmmmmmmmmmmmmmmmmmmmmmmmmmmmmmmm
p2421
aVrode
p2422
aVcontin
p2423
aVtill
p2424
aVhall
p2425
aVtraffic
p2426
aVdissid
p2427
aVcomparison
p2428
aVcompar
p2429
aVfbibatf
p2430
aVdescript
p2431
aVmetaphor
p2432
aVclose
p2433
aVstrip
p2434
aVshift
p2435
aVmainten
p2436
aV204
p2437
aVwander
p2438
aVpegasu
p2439
aVcorrectli
p2440
aVceas
p2441
aVduo
p2442
aVhandgun
p2443
aVcelebr
p2444
aVrichardson
p2445
aVpoison
p2446
aVsocreligion
p2447
aVsing
p2448
aVdanc
p2449
aVimmor
p2450
aVjail
p2451
aVextra
p2452
aVandr
p2453
aVmeasleslik
p2454
aVspot
p2455
aVdrove
p2456
aVbuggi
p2457
aVnec
p2458
aVviciou
p2459
aVwarlik
p2460
aVcomputerliter
p2461
aVuptight
p2462
aVadvantag
p2463
aVpant
p2464
aVsnot
p2465
aVaccident
p2466
aVstray
p2467
aVapproach
p2468
aVyeild
p2469
aVlonger
p2470
aVmap
p2471
aVsanguinecholericmelencholicphlegmat
p2472
aVcprigcapcorg
p2473
aVregion
p2474
aVevid
p2475
aVthreaten
p2476
aVhumbl
p2477
aVmistak
p2478
aVsprung
p2479
aVscoreboard
p2480
aVcryptorel
p2481
aVdue
p2482
aVcollaps
p2483
aVdarren
p2484
aVq
p2485
aV7191991
p2486
aVhat
p2487
aVcontribut
p2488
aVmateri
p2489
aVopirg
p2490
aVorbit
p2491
aVconstantli
p2492
aVcallous
p2493
aVbait
p2494
aVappreci
p2495
aVvoltag
p2496
aVsubscrib
p2497
aVsignal
p2498
aVlifeischeap
p2499
aVterrorist
p2500
aVarrest
p2501
aVnapalm
p2502
aVdissap
p2503
aVstrubl
p2504
aVsupris
p2505
aVman
p2506
aVreservoir
p2507
aVunabl
p2508
aVeditorinchiefcopublish
p2509
aVpat
p2510
aVladner
p2511
aVray
p2512
aVdealt
p2513
aVauthent
p2514
aVprolong
p2515
aVspeech
p2516
aVaudio
p2517
aVtrain
p2518
aVhavent
p2519
aVpuni
p2520
aVcolumbu
p2521
aVthrow
p2522
aVdevil
p2523
aVtruli
p2524
aVsane
p2525
aValan
p2526
aVh
p2527
aVstein
p2528
aVanywher
p2529
aVislam
p2530
aVallot
p2531
aVsurvivor
p2532
aViki
p2533
aVinstitut
p2534
aVseat
p2535
aVdisqualifi
p2536
aVchose
p2537
aVupdat
p2538
aVmyopic
p2539
aVinterf
p2540
aVdixon
p2541
aVdetroit
p2542
aVponder
p2543
aVunarm
p2544
aVbaptiz
p2545
aVloos
p2546
aVdbm
p2547
aVvideo
p2548
aVprojector
p2549
aVo
p2550
aVtzoq
p2551
aVzero
p2552
aV133
p2553
aVquickli
p2554
aVsolv
p2555
aVcommuniqu
p2556
aVdupe
p2557
aVamd
p2558
aVban
p2559
aVaudienc
p2560
aVbibl
p2561
aVbesid
p2562
aVwheelbas
p2563
aV_know_
p2564
aVsue
p2565
aVboston
p2566
aVfront
p2567
aVrenegad
p2568
aVdenver
p2569
aVdispos
p2570
aVerror
p2571
aVidol
p2572
aVinterview
p2573
aVdirectli
p2574
aVcaller
p2575
aVevolutionari
p2576
aVjane
p2577
aVawait
p2578
aVdeliveri
p2579
aVamphotericin
p2580
aVsilli
p2581
aVration
p2582
aVdrl
p2583
aVbitch
p2584
aVbrit
p2585
aVgerman
p2586
aVwhoe
p2587
aVpartent
p2588
aVcast
p2589
aVballot
p2590
aVrepeal
p2591
aVtrinitarian
p2592
aVfals
p2593
aVtherapi
p2594
aVdecrypt
p2595
aVcode
p2596
aVscare
p2597
aVcliff
p2598
aVadcom
p2599
aVracism
p2600
aVdoen
p2601
aVolder
p2602
aVeaster
p2603
aVscientif
p2604
aVauto
p2605
aVstupidli
p2606
aVforth
p2607
aVcommon
p2608
aVbuyback
p2609
aVball
p2610
aVrsadsi
p2611
aVeaten
p2612
aVstolen
p2613
aVwake
p2614
aVnah
p2615
aVdoublecheck
p2616
aVvomit
p2617
aVonto
p2618
aVhelluva
p2619
aVcondit
p2620
aVkuhn
p2621
aV1970
p2622
aVgerald
p2623
aVenquir
p2624
aV7
p2625
aVkong
p2626
aVhong
p2627
aVsake
p2628
aVximenez
p2629
aVmisunderstand
p2630
aV51
p2631
aVjoe
p2632
aVsam
p2633
aVscath
p2634
aVexcus
p2635
aVobserv
p2636
aVsignificantli
p2637
aVmvs104psuvmpsuedu
p2638
aVpredispos
p2639
aVunderli
p2640
aVheart
p2641
aVpursuad
p2642
aVbureaucrat
p2643
aVpisga
p2644
aVanomali
p2645
aV500000000
p2646
aVcomfort
p2647
aVconvert
p2648
aVweekend
p2649
aVprochristian
p2650
aVshortsight
p2651
aVbarrel
p2652
aVend
p2653
aVbackplan
p2654
aVmiddl
p2655
aVunconvinc
p2656
aVslp9kccusuedu
p2657
aVfather
p2658
aVquinci
p2659
aVafternoon
p2660
aVresent
p2661
aVsaab
p2662
aV83103
p2663
aVlaid
p2664
aVtabl
p2665
aVunhappi
p2666
aVuk
p2667
aVhelmet
p2668
aVtini
p2669
aVred
p2670
aVdishonest
p2671
aVgoodfornoth
p2672
aVupgrad
p2673
aVbet
p2674
aVfranchis
p2675
aVmilwauke
p2676
aVparadis
p2677
aVscoop
p2678
aVuninvolv
p2679
aVftp
p2680
aVwellmind
p2681
aVundergo
p2682
aVnortheast
p2683
aVmotif
p2684
aVspecial
p2685
aVfigmonetcomcom
p2686
aV95
p2687
aVimpair
p2688
aVsent
p2689
aVexpressli
p2690
aVcross
p2691
aVpolitician
p2692
aVswitch
p2693
aVforum
p2694
aVdestruct
p2695
aVindian
p2696
aVcompani
p2697
aVmt
p2698
aVst
p2699
aVplayer
p2700
aVplane
p2701
aVpeacemak
p2702
aVstyle
p2703
aV18
p2704
aVsenior
p2705
aVbypass
p2706
aVhigh
p2707
aVpms001pmsfordcom
p2708
aVbook
p2709
aVhicksvil
p2710
aVadam
p2711
aV397
p2712
aVwomen
p2713
aVfreshman
p2714
aVstudentinternetbr4416aamericanedu
p2715
aVedu
p2716
aVcom
p2717
aVcommerci
p2718
aV1972
p2719
aVchevel
p2720
aVsuper
p2721
aVtriniti
p2722
aVjame
p2723
aVmisconcept
p2724
aVdublin
p2725
aVlesson
p2726
aVroommat
p2727
aVallergi
p2728
aVii
p2729
aVgrade
p2730
aV1012
p2731
aVeast
p2732
aVfootbal
p2733
aVec
p2734
aVretreat
p2735
aVwaddl
p2736
aVwaitlist
p2737
aVdearli
p2738
aVtag
p2739
aVmale
p2740
aVfreshmen
p2741
aVfemal
p2742
aV32gfkkhcmuvmcsvcmichedu
p2743
aVallstar
p2744
aVghastli
p2745
aVnfl
p2746
aVbowl
p2747
aVsic
p2748
aVlowerrisk
p2749
aVnewer
p2750
aVring
p2751
aVyank
p2752
aVmattingli
p2753
aVfallaci
p2754
aVopposit
p2755
aVleagu
p2756
aVwinner
p2757
aVtom
p2758
aV4
p2759
aV6th
p2760
aVmechan
p2761
aV366th
p2762
aVci
p2763
aVidacom
p2764
aVhewlettpackard
p2765
aV14203
p2766
aV4th
p2767
aVpatrick
p2768
aV____
p2769
aVatla
p2770
aVweak
p2771
aVossd
p2772
aV21
p2773
aVroad
p2774
aVsiemen
p2775
aVea
p2776
aVbare
p2777
aVconfer
p2778
aVfactfind
p2779
aVirwinn
p2780
aVthee
p2781
aVmaintech
p2782
aVvolt
p2783
aVdelta
p2784
aVprompt
p2785
aVballard
p2786
aVtalent
p2787
aV3rd
p2788
aVking
p2789
aVphilli
p2790
aVartilleri
p2791
aVtoronto
p2792
aVflorida
p2793
aVgm
p2794
aVchevrolet
p2795
aVcertainli
p2796
aVasign
p2797
aVdeityetern
p2798
aVhome
p2799
aVlewi
p2800
aVpitch
p2801
aVbull
p2802
aVcardin
p2803
aVahead
p2804
aVeuropean
p2805
aVfirsthappi
p2806
aVsummari
p2807
aVsmyth
p2808
aVnih
p2809
aVexploit
p2810
aVnext
p2811
aVcap
p2812
aVmca
p2813
aVtrophi
p2814
aVwinnipeg
p2815
aVatlanta
p2816
aVhammarbi
p2817
aVscore
p2818
aVsnow
p2819
aVpoorli
p2820
aVpittsburgh
p2821
aVibm
p2822
aVscoriat
p2823
aVsox
p2824
aVbottom
p2825
aVextravers
p2826
aVlink
p2827
aVsubmiss
p2828
aVdrbombaynetlinkctscom
p2829
aVfourth
p2830
aVdemot
p2831
aVwed
p2832
aV1canuck
p2833
aVvs
p2834
aV4jet
p2835
aVaura
p2836
aVlost
p2837
aVl
p2838
aVcentral
p2839
aVmultiplex
p2840
aVemg
p2841
aVnorri
p2842
aVsoldier
p2843
aVpresenc
p2844
aVscud
p2845
aVwiretap
p2846
aVkeyescrow
p2847
aVmykotronx
p2848
aVxnewsread
p2849
aVqa
p2850
aVnaysay
p2851
aVexpn
p2852
aVedt
p2853
aV170134
p2854
aV500
p2855
aVunrecogn
p2856
aVentiti
p2857
aVdanmckinnoncanremcom
p2858
aVmckinnon
p2859
aVdan
p2860
aVnon
p2861
aV204256
p2862
aV250csspabmailgwncslnistgov
p2863
aV221
p2864
aVfirstorg
p2865
aValgorithm
p2866
aVclipper
p2867
aVwellsfcau
p2868
aVbackfir
p2869
aVarticleid
p2870
aVprotocol
p2871
aVmicrosoft
p2872
aVclinton
p2873
aVrave
p2874
aVengin
p2875
aVrevers
p2876
aVsuccessor
p2877
aVdippold
p2878
aVbush
p2879
aVencryp
p2880
aVkadi
p2881
aVnist
p2882
aVsidestep
p2883
aV250denningcsgeorgetownedu
p2884
aV250hoffmanseasgwuedu
p2885
aVgilbert
p2886
aVjohn
p2887
aVskipjack
p2888
aVtoal
p2889
aVsubsequ
p2890
aVfame
p2891
aVottoman
p2892
aVcareer
p2893
aVbattalion
p2894
aVqassam
p2895
aVtransport
p2896
aVuniform
p2897
aVachiev
p2898
aVvictori
p2899
aVbunker
p2900
aVed
p2901
aVcoordin
p2902
aVenemi
p2903
aVleadership
p2904
aVnotwithstand
p2905
aVlocat
p2906
aVspacecraft
p2907
aVviewpoint
p2908
aVpozitsiya
p2909
aVapart
p2910
aVaspect
p2911
aVadvanc
p2912
aVblock
p2913
aVmol
p2914
aVsalyut
p2915
aVreactor
p2916
aVfullscal
p2917
aVexplicit
p2918
aVcoca
p2919
aVhama
p2920
aVtriangl
p2921
aVrevision
p2922
aVpointer
p2923
aVmil
p2924
aVgov
p2925
aV_____
p2926
aVfire
p2927
aVloss
p2928
aVrecipi
p2929
aVprowess
p2930
aVexpert
p2931
aVspec
p2932
aVnontradit
p2933
aVjunta
p2934
aVcombat
p2935
aVsourc
p2936
aVdeir
p2937
aVyassin
p2938
aVgizmo
p2939
aVprovoc
p2940
aVknox
p2941
aVsemiauto
p2942
aVmen
p2943
aVfarid
p2944
aVresettl
p2945
aVpair
p2946
aVairborn
p2947
aVboot
p2948
aVbelow
p2949
aVnotch
p2950
aVjammer
p2951
aVcivic
p2952
aVhelicopt
p2953
aVheavi
p2954
aVwarfar
p2955
aVequip
p2956
aVdefens
p2957
aVserbian
p2958
aVbosnia
p2959
aVsquash
p2960
aVmissil
p2961
aViraq
p2962
aVdestroy
p2963
aVdislik
p2964
aVkruegergasuugarizonaedu
p2965
aVpersian
p2966
aVadministr
p2967
aVpriesthood
p2968
aV9mm
p2969
aVammo
p2970
aVfmj
p2971
aVhillari
p2972
aVyalcin
p2973
aVonur
p2974
aVassist
p2975
aVhardli
p2976
aVburst
p2977
aValaa
p2978
aVzeineldin
p2979
aVfield
p2980
aVmissionari
p2981
aVescort
p2982
aVintercept
p2983
aVappear
p2984
aVembasi
p2985
aVlaunch
p2986
aVpersonwho
p2987
aVbehaviour
p2988
aVundesir
p2989
aVprocur
p2990
aVstrength
p2991
aVcommitte
p2992
aVstage
p2993
aVsecondhand
p2994
aVacquir
p2995
aVaircraft
p2996
aVfuck
p2997
aVfrank
p2998
aVcrari
p2999
aVreagan
p3000
aVgiant
p3001
aVconsult
p3002
aVallianc
p3003
aVmicrowav
p3004
aV1978
p3005
aV1982
p3006
aVtactic
p3007
aVterritori
p3008
aVarrang
p3009
aVint
p3010
aVsword
p3011
aVevolut
p3012
aVunauthor
p3013
aVflight
p3014
aVbosniaherzegovina
p3015
aVregim
p3016
aVprofession
p3017
aVfulltim
p3018
aVpersonnel
p3019
aVcourt
p3020
aVchief
p3021
aVioannu
p3022
aVpatricu
p3023
aVconscript
p3024
aVfighter
p3025
aVguerilla
p3026
aVwhatev
p3027
aVsirtf
p3028
aVassualt
p3029
aVmargin
p3030
aVbtw
p3031
aValgerian
p3032
aVcoup
p3033
aVvehicul
p3034
aVliabil
p3035
aV33
p3036
aVflamste
p3037
aVhous
p3038
aVdcx
p3039
aVirrit
p3040
aVschulman
p3041
aVadher
p3042
aVbeatti
p3043
aVotto
p3044
aV278
p3045
aVthereof
p3046
aVdespit
p3047
aVpoll
p3048
aVaerodynamicist
p3049
aVinfantryman
p3050
aVnonbolt
p3051
aVrifl
p3052
aVstore
p3053
aVbreifli
p3054
aVautopost
p3055
aVvision
p3056
aVdigit
p3057
aVscope
p3058
aVsecondbest
p3059
aVcalcul
p3060
aVvirtual
p3061
aVken
p3062
aVkenneth
p3063
aVgaze
p3064
aVlectur
p3065
aVjunk
p3066
aVbiz
p3067
aV800
p3068
aVcovington
p3069
aVpanason
p3070
aVinterfac
p3071
aVrpk105
p3072
aVhawk
p3073
aVx89olarte1gwwmichedu
p3074
aVlock
p3075
aV1999
p3076
aVmag
p3077
aVpencil
p3078
aVspeed
p3079
aVimmort
p3080
aVdirector
p3081
aVship
p3082
aVmicrocouri
p3083
aV074
p3084
aVdragon
p3085
aVvisual
p3086
aVxt
p3087
aVibmcompat
p3088
aVacer
p3089
aVlargest
p3090
aVparallel
p3091
aVgrep
p3092
aVbeep
p3093
aVhost
p3094
aVpcbase
p3095
aVbbc
p3096
aVhandset
p3097
aVfeed
p3098
aVonboard
p3099
aV4dx33v
p3100
aVstandalon
p3101
aVsimm
p3102
aV486dx
p3103
aVw4mb
p3104
aVram
p3105
aVcpu
p3106
aVdct
p3107
aVthru
p3108
aVreflect
p3109
aVnra
p3110
aVamigado
p3111
aVcontain
p3112
aVx11r4
p3113
aVsequenc
p3114
aVapr
p3115
aVshopper
p3116
aVexperiment
p3117
aValgebra
p3118
aVpage
p3119
aVmagazin
p3120
aV68070
p3121
aVi486
p3122
aVisa
p3123
aVhardcor
p3124
aVhacker
p3125
aVverifi
p3126
aVarriv
p3127
aVreview
p3128
aVmultitask
p3129
aVfacil
p3130
aVroutin
p3131
aVtheoret
p3132
aVmemori
p3133
aVpaper
p3134
aVxgod
p3135
aVconfigur
p3136
aVhav
p3137
aVbu
p3138
aVnois
p3139
aVtelnet
p3140
aVcsrcncslnistgov
p3141
aVcritic
p3142
aVrisc
p3143
aVseller
p3144
aVkg
p3145
aVsensor
p3146
aVbatteri
p3147
aVlaptop
p3148
aVmelodrama
p3149
aVrepair
p3150
aViie
p3151
aVio
p3152
aVpd
p3153
aVprocessor
p3154
aVdirect
p3155
aV386
p3156
aVseagat
p3157
aV20hz
p3158
aVtcpip
p3159
aVkerri
p3160
aVse
p3161
aVdonat
p3162
aVfreez
p3163
aVentri
p3164
aVbulletin
p3165
aVfaster
p3166
aV2nd
p3167
aV9bit
p3168
aVoptim
p3169
aVphurchas
p3170
aVboard
p3171
aVgmt
p3172
aV35
p3173
aVscrabbl
p3174
aV486sx25
p3175
aV105
p3176
aVlend
p3177
aV486dx33
p3178
aVguid
p3179
aVdel
p3180
aVfafter
p3181
aVaboudamceeclarksonedu
p3182
aVdx266
p3183
aV486
p3184
aVprintout
p3185
aVmodem
p3186
aV34
p3187
aVtool
p3188
aVdicken
p3189
aVvcr
p3190
aVtimespeeddist
p3191
aVstopwatch
p3192
aV486dx50
p3193
aVswim
p3194
aVirq
p3195
aVproperli
p3196
aVcorel
p3197
aVfilmqual
p3198
aVrender
p3199
aVminut
p3200
aVmotherboard
p3201
aVsupersport
p3202
aVw
p3203
aV120v
p3204
aVac
p3205
aVemmis
p3206
aVseiz
p3207
aVrobot
p3208
aVmysteri
p3209
aV200mhz
p3210
aVtomographi
p3211
aVlyme
p3212
aVwire
p3213
aVjami
p3214
aVcampu
p3215
aVthant
p3216
aVguru
p3217
aVsparcstat
p3218
aVpl5
p3219
aVrecognis
p3220
aVbullock
p3221
aVbroken
p3222
aVoff_
p3223
aV_turn
p3224
aV486dx266
p3225
aVdtr
p3226
aVd0
p3227
aVproprietari
p3228
aVfacilit
p3229
aVlayout
p3230
aVprint
p3231
aVsetup
p3232
aVworkstat
p3233
aVfix
p3234
aVfavourit
p3235
aV486dx266mhz
p3236
aVfilter
p3237
aVplug
p3238
aVrestart
p3239
aVretail
p3240
aVscreen
p3241
aVclip
p3242
aVantenna
p3243
aVcalculu
p3244
aVresolut
p3245
aVcatalog
p3246
aVslavic
p3247
aVtaught
p3248
aVmacintosh
p3249
aV66mhz
p3250
aVku
p3251
aVsi
p3252
aVnorton
p3253
aVslower
p3254
aVgeometri
p3255
aVcam
p3256
aVplatform
p3257
aVunix
p3258
aVoccur
p3259
aVx10
p3260
aVbuilt
p3261
aVshop
p3262
aVfavorit
p3263
aV08810
p3264
aVnj
p3265
aVfeatur
p3266
aVforsal
p3267
aVpiec
p3268
aVdimens
p3269
aVwiley
p3270
aVfullcolor
p3271
aVlobbyist
p3272
aVcryptograph
p3273
aVclone
p3274
aVcolor
p3275
aVquickdraw
p3276
aVmr
p3277
aVwimpi
p3278
aVbro
p3279
aV640x480x256
p3280
aVspinoff
p3281
aVelectr
p3282
aVandor
p3283
aVwider
p3284
aVgeek
p3285
aVvlb
p3286
aVmicron
p3287
aV525ix
p3288
aVdiff
p3289
aVedg
p3290
aVgawd
p3291
aVcompuadd
p3292
aVslideshow
p3293
aVexpand
p3294
aVmultiprocessor
p3295
aVs1
p3296
aVnorth
p3297
aVconcentr
p3298
aVcupc51cv1mll
p3299
aVaccur
p3300
aVconstruct
p3301
aVvital
p3302
aVtomigcapcorg
p3303
aVcult
p3304
aVnfid
p3305
aVncdp14691000330002451
p3306
aVshut
p3307
aVexit
p3308
aVdemo
p3309
aVmeg
p3310
aVcabl
p3311
aV60ship
p3312
aVritter
p3313
aVrichard
p3314
aVshuttl
p3315
aVsatellit
p3316
aVseti
p3317
aVgerrit
p3318
aVzhen
p3319
aVjian
p3320
aVzeo
p3321
aVgrowth
p3322
aVgrace
p3323
aVscif
p3324
aV64
p3325
aVcommodor
p3326
aV1541
p3327
aVprocedur
p3328
aVrs232
p3329
aVstorag
p3330
aVrutger
p3331
aVappolog
p3332
aV286i
p3333
aVkaypro
p3334
aVvideoaid
p3335
aVselfpromo
p3336
aVsimul
p3337
aVadc
p3338
aVhighspe
p3339
aVhip
p3340
aVmetronom
p3341
aVpgp
p3342
aV525550
p3343
aVboy
p3344
aVculprit
p3345
aVfaxmodem
p3346
aVcrosstalk
p3347
aVwinfax
p3348
aVdifficulti
p3349
aVreadabl
p3350
aVr
p3351
aVe
p3352
aVgenius
p3353
aV2800
p3354
aVgel
p3355
aVavocet
p3356
aVnonmilitari
p3357
aVmicroscopi
p3358
aVhicnet
p3359
aVnewslett
p3360
aVsilent
p3361
aVsigma
p3362
aVsingl
p3363
aVvendor
p3364
aVinput
p3365
aVkph2qonyxcsvirginiaedu
p3366
aVisasnasda
p3367
aV1189
p3368
aVyoshiro
p3369
aVautomobil
p3370
aVford
p3371
aVclear
p3372
aVaccommod
p3373
aV20th
p3374
aVdate
p3375
aVoverburden
p3376
aVj
p3377
aVgolden
p3378
aVt2000
p3379
aV6220
p3380
aVendometriosi
p3381
aVwargam
p3382
aVintroductori
p3383
aV150
p3384
aVoppinion
p3385
aVtutori
p3386
aVopel
p3387
aVbyte
p3388
aVten
p3389
aVdetect
p3390
aVmollusc
p3391
aVcontagiosem
p3392
aVupcom
p3393
aVshippinginsur
p3394
aVmediaev
p3395
aVsiggraph
p3396
aVtrickl
p3397
aVchemic
p3398
aVdetail
p3399
aVreput
p3400
aV4086885409
p3401
aVapto
p3402
aVbid
p3403
aVcompetit
p3404
aVvicepresid
p3405
aVcitibank
p3406
aVeditor
p3407
aVnewsgroup
p3408
aVinfo
p3409
aVfing
p3410
aVfirsthand
p3411
aVbackup
p3412
aVdevic
p3413
aVgreatli
p3414
aVfresco
p3415
aVaccuraci
p3416
aVomiss
p3417
aVessenti
p3418
aVtremor
p3419
aVformlul
p3420
aVdisciplin
p3421
aVconcret
p3422
aVcosmo
p3423
aV2238
p3424
aVcompat
p3425
aVticketpric
p3426
aVinsignia
p3427
aVaccumul
p3428
aVreloc
p3429
aVreliabl
p3430
aVobtain
p3431
aVismbnlmnihgov
p3432
aVeisa
p3433
aVphase
p3434
aVmagnitud
p3435
aVutzoosqmsb
p3436
aVmsbsqcom
p3437
aVacheiv
p3438
aV1024
p3439
aVstereoscop
p3440
aVtseng
p3441
aVet4000
p3442
aVdocument
p3443
aVralli
p3444
aVgari
p3445
aV8157273415
p3446
aVaustrailian
p3447
aVswitchset
p3448
aVstdin
p3449
aVexplan
p3450
aVfloppi
p3451
aVparallax
p3452
aVconflict
p3453
aVeffectsorigin
p3454
aVlankford
p3455
aVinjur
p3456
aVandrew
p3457
aVtaken
p3458
aVrefus
p3459
aVaim
p3460
aVsomebodi
p3461
aVvasili
p3462
aVinaccur
p3463
aVclarif
p3464
aVphiladelphia
p3465
aV9088341254
p3466
aVrutherford
p3467
aVchapter
p3468
aVpassport
p3469
aVuptothemo
p3470
aVdss
p3471
aVrandom
p3472
aVstamp
p3473
aV78727
p3474
aVleonard
p3475
aVden
p3476
aVreread
p3477
aVupto
p3478
aVooaood
p3479
aVcompletli
p3480
aVsafeguard
p3481
aVtekterm
p3482
aVedward
p3483
aVomnisci
p3484
aVusabl
p3485
aVglean
p3486
aVmoreless
p3487
aVhmm
p3488
aVhidden
p3489
aVflow
p3490
aVmagstrip
p3491
aVmailinglist
p3492
aVxavier
p3493
aVoutgo
p3494
aVsweden
p3495
aVmethod
p3496
aVbabi
p3497
aVsunris
p3498
aVkamterm
p3499
aVbiblic
p3500
aVpeculiar
p3501
aVrequisit
p3502
aVfatwa
p3503
aVnetbio
p3504
aVinstrutech
p3505
aVpgppublickeysjunkboxcciastateedu
p3506
aVgibbon
p3507
aVorganiz
p3508
aVu_c
p3509
aVtrend
p3510
aVhisher
p3511
aVworcest
p3512
aVnavyrel
p3513
aVwealth
p3514
aVperrin
p3515
aVdule
p3516
aV33913901394
p3517
aVtransmit
p3518
aVxdpyinfo
p3519
aV24bit
p3520
aVonlin
p3521
aVnewest
p3522
aVimplementaion
p3523
aVnetland
p3524
aVcobra
p3525
aVseizur
p3526
aVkayaakin
p3527
aVinfant
p3528
aVatt
p3529
aVimho
p3530
aVjusgement
p3531
aVcolour
p3532
aV24
p3533
aVhelppenetfi
p3534
aVhal
p3535
aVfinney
p3536
aVbackground
p3537
aVanybodi
p3538
aVdriv
p3539
aVpattern
p3540
aVshorten
p3541
aVplaintext
p3542
aVhuge
p3543
aVgadget
p3544
aVgoldmin
p3545
aVsummer
p3546
aVadmiss
p3547
aVcorrel
p3548
aVvalentin
p3549
aVsigh
p3550
aVvgalogovga
p3551
aVwinsock
p3552
aVstarnet
p3553
aVitem
p3554
aVrearrang
p3555
aVxthe
p3556
aVearlier
p3557
aVkiria
p3558
aVgia
p3559
aVecho
p3560
aVcardio
p3561
aVdopler
p3562
aVgretzki
p3563
aVdemograph
p3564
aVexport
p3565
aVtransmiss
p3566
aVmohammad
p3567
aValansari
p3568
aVradio
p3569
aVbopper2phxmcdmotcom
p3570
aVsecondari
p3571
aVquantit
p3572
aVextract
p3573
aVgrayscal
p3574
aVinc
p3575
aVpantilt
p3576
aVchronolog
p3577
aVfine
p3578
aVneuron
p3579
aVmicrostrip
p3580
aVcircuit
p3581
aVmembership
p3582
aVpostag
p3583
aVvaluabl
p3584
aVmac
p3585
aVcd
p3586
aVrectangl
p3587
aVexpos
p3588
aVghhwangcsienctuedutw
p3589
aV55
p3590
aVrenderman
p3591
aV10th
p3592
aValpo
p3593
aVsuhonen
p3594
aVmailserv
p3595
aVcmd
p3596
aVmsdo
p3597
aVbaud
p3598
aV2400
p3599
aVdavid
p3600
aVveal
p3601
aVinstrument
p3602
aVpeopleaccord
p3603
aVreveal
p3604
aVdyer
p3605
aVscimednutrit
p3606
aVdxf
p3607
aVforego
p3608
aVsubsystem
p3609
aVinch
p3610
aV0625
p3611
aVsignatur
p3612
aV22
p3613
aVgp
p3614
aVtranmit
p3615
aVviper
p3616
aVcougarecnuoknoredu
p3617
aVmike
p3618
aVmill
p3619
aVsection
p3620
aVmacro
p3621
aVvb
p3622
aVmotorcycl
p3623
aVaccordingli
p3624
aVhorror
p3625
aVsubstant
p3626
aVsb
p3627
aVine
p3628
aVcsutexasedu
p3629
aVdesk
p3630
aVsexual
p3631
aVscan
p3632
aVinsuffici
p3633
aVinquiri
p3634
aVecb
p3635
aVy
p3636
aVsign
p3637
aVbrain
p3638
aVrecmodelsrocket
p3639
aVswitchboard
p3640
aVhilt
p3641
aVacur
p3642
aVdissemin
p3643
aVhqsequsoraclecom
p3644
aVelicit
p3645
aVnguen
p3646
aVedwindlims01lercnasagov
p3647
aVinfra
p3648
aVencyclopaed
p3649
aVirrelev
p3650
aVscientolog
p3651
aVfivehundr
p3652
aVartist
p3653
aVestim
p3654
aV3031
p3655
aVarchi
p3656
aVsport
p3657
aVelmerfuddcsberkeleyedu
p3658
aVfansmor
p3659
aVjefferi
p3660
aVsnail
p3661
aV8006821776
p3662
aVwelcom
p3663
aVrockefel
p3664
aVscrambl
p3665
aVbitspixel
p3666
aVcampbel
p3667
aVca
p3668
aVstinsonbibdunledu
p3669
aVappropri
p3670
aVpacket
p3671
aVwestinghous
p3672
aVcondens
p3673
aVqualiti
p3674
aVpentagon
p3675
aVsought
p3676
aV7037582712
p3677
aVexpertis
p3678
aVimpart
p3679
aVpeter
p3680
aVavi
p3681
aVdisclos
p3682
aVburzynski
p3683
aVwelker
p3684
aVlicens
p3685
aVdisord
p3686
aVsteroid
p3687
aVoutdat
p3688
aVarcan
p3689
aVoverwhelm
p3690
aVcontent
p3691
aVsketchi
p3692
aVconduit
p3693
aVpilot
p3694
aVgoal
p3695
aVsnailmail
p3696
aVrsinternicnet
p3697
aVahmet
p3698
aVslightli
p3699
aVprimari
p3700
aVprophet
p3701
aVf
p3702
aVantineoplaston
p3703
aVrbi
p3704
aVoveral
p3705
aVtip
p3706
aVsteven
p3707
aVcredit
p3708
aVauthorartist
p3709
aVwouold
p3710
aVmodex
p3711
aVgl
p3712
aVsprite
p3713
aV45
p3714
aVsetback
p3715
aVstatu
p3716
aVsampl
p3717
aVlatex
p3718
aVplotdoc
p3719
aVhousehold
p3720
aVincom
p3721
aVsegal
p3722
aVthwe
p3723
aVear
p3724
aVnetwid
p3725
aVmotorola
p3726
aVmecl
p3727
aVsed
p3728
aVcomputrac
p3729
aVvolunt
p3730
aVrgb
p3731
aVvga
p3732
aVrelay
p3733
aVham
p3734
aVwiderang
p3735
aVheavili
p3736
aVlatest
p3737
aVaccessbu
p3738
aVej
p3739
aVwnt
p3740
aVplutonium
p3741
aVconvey
p3742
aVsolips
p3743
aVmicrosci
p3744
aVcompsyssgi
p3745
aVstillyou
p3746
aVfaq
p3747
aVexecut
p3748
aVcircul
p3749
aVrehash
p3750
aVspreadsheet
p3751
aVwriter
p3752
aVconcis
p3753
aVhousearchivedgrtpdgcom
p3754
aViam
p3755
aVwarrant
p3756
aVdesper
p3757
aVsubmit
p3758
aVhors
p3759
aV2122740646
p3760
aVemerg
p3761
aVparagraph
p3762
aVpreced
p3763
aVeller
p3764
aVhook
p3765
aVide
p3766
aVharddriv
p3767
aVdistort
p3768
aVweb
p3769
aVhey
p3770
aVunencod
p3771
aVengland
p3772
aVsyndrom
p3773
aVcompart
p3774
aVrandomli
p3775
aVbryan
p3776
aV178068
p3777
aVlatitud
p3778
aV6138031326
p3779
aVamigancupportalcom
p3780
aVpc1oandrewcmuedu
p3781
aVgpo
p3782
aVspreadintent
p3783
aVghicacyclop
p3784
aVdiagnost
p3785
aVripem
p3786
aVcandi
p3787
aVdehydr
p3788
aVpump
p3789
aVchri
p3790
aVblacksybasecom
p3791
aVwh
p3792
aVol
p3793
aVstatut
p3794
aVjustic
p3795
aV0183
p3796
aVnmea
p3797
aVdepth
p3798
aVeugen
p3799
aVrosen
p3800
aVviru
p3801
aV5221904
p3802
aVinstanc
p3803
aVreward
p3804
aVpinout
p3805
aVdoug
p3806
aVhubbard
p3807
aVspoof
p3808
aVparticipa
p3809
aV3d
p3810
aVar007
p3811
aVticket
p3812
aVsyllabi
p3813
aVtin
p3814
aVamberssdcsdharriscom
p3815
aVpl9
p3816
aVquadra
p3817
aVscsi1
p3818
aVco
p3819
aVpl85
p3820
aVmodifi
p3821
aVpl8
p3822
aVextern
p3823
aVpl6
p3824
aVsamsonkihno
p3825
aVulrichgalkitoppointd
p3826
aV203
p3827
aVcompress
p3828
aVisaiah
p3829
aV1412
p3830
aVna
p3831
aVdg
p3832
aVordeal
p3833
aVstripdown
p3834
aVphyserverphymtuedu
p3835
aV114
p3836
aVnoemailaddresseicnetnach
p3837
aVtmail
p3838
aVxmailer
p3839
aV113
p3840
aV1993apr1921104428763guinnessidbsuedu
p3841
aVconcid
p3842
aVmediat
p3843
aVnwreader
p3844
aV302
p3845
aVwrightlims01lercnasagov
p3846
aVlondon
p3847
aVwsai3duracuk
p3848
aVpatch
p3849
aVxroach
p3850
aVwibbl
p3851
aV121
p3852
aVbio
p3853
aVcg3
p3854
aVstimpycssitdumichedu
p3855
aVesun228
p3856
aVdov
p3857
aVseq1cckeeleacuk
p3858
aVliverpool
p3859
aVopenwindow
p3860
aVcardhumcsdundeeacuk
p3861
aVnestoriu
p3862
aVxview
p3863
aV140239132
p3864
aVsudaan
p3865
aVanalysi
p3866
aV530
p3867
aVacceler
p3868
aV3x
p3869
aVdownsiz
p3870
aVbuick
p3871
aVee02engrlatechedu
p3872
aVdaniel
p3873
aV1918
p3874
aVrelatif
p3875
aVaux
p3876
aVliter
p3877
aV36
p3878
aVidaho
p3879
aVmatthew
p3880
aVass
p3881
aVenglish
p3882
aVslavon
p3883
aVpassag
p3884
aVmtu
p3885
aVsolari
p3886
aVpl89
p3887
aVbruce
p3888
aVwsu
p3889
aVcliffnot
p3890
aV48
p3891
aVoh
p3892
aVjoesbarccvtedu
p3893
aVexb0405csdvaxcsdunsweduau
p3894
aV20c
p3895
aVsun3eeamelincoat
p3896
aVjo
p3897
aVbold
p3898
aVartifici
p3899
aVtruetyp
p3900
aVntutaiwan
p3901
aVmid1993
p3902
aVdual
p3903
aVairbag
p3904
aViccm
p3905
aVmovi
p3906
aVfinland
p3907
aVcapriccioso
p3908
aVguest
p3909
aVpl92
p3910
aVnil
p3911
aVvax
p3912
aVpcxview
p3913
aVncd
p3914
aVlouzi
p3915
aVdivin
p3916
aVyoull
p3917
aVvpic
p3918
aVjupitercseutoledoedu
p3919
aVastroocistempleedu
p3920
aVuniessen
p3921
aVrevis
p3922
aVafrica
p3923
aVnyc
p3924
aV820
p3925
aVmousecom
p3926
aVincorpor
p3927
aVcopier
p3928
aVbussard
p3929
aVfarnsworthhirsch
p3930
aVpl7
p3931
aVnoelpdorg
p3932
aVjamesbessett
p3933
aVplu
p3934
aV421
p3935
aVdeepak
p3936
aVnt
p3937
aVredirect
p3938
aVkazaknmsuedu
p3939
aVbeyond
p3940
aVwintrumpet
p3941
aVsalubri
p3942
aVrabbi
p3943
aVsarfati
p3944
aVanna
p3945
aVbuffer
p3946
aVjoltgnuaimitedu
p3947
aVrsa
p3948
aVcryptographi
p3949
aVsrsdmwtdmid
p3950
aVconstitut
p3951
aVoverbor
p3952
aVshaftdriven
p3953
aVcb900
p3954
aVportabl
p3955
aVansi
p3956
aVbeta
p3957
aVunsecur
p3958
aVxerox
p3959
aVmelbourn
p3960
aVimprov
p3961
aV252
p3962
aVghostscript
p3963
aVxpostedfrom
p3964
aVtelefind
p3965
aVobjectwindow
p3966
aVbc
p3967
aVxxx
p3968
aVarith
p3969
aVlogicclarksonedu
p3970
aVnth
p3971
aVcrypt
p3972
aV44
p3973
aVgordon
p3974
aVshrikeundacza
p3975
aVeprom
p3976
aVhc11
p3977
aVn020batamvm1tamuedu
p3978
aV32
p3979
aVimc10mednavymil
p3980
aVnovel
p3981
aVlauncher
p3982
aVgal
p3983
aV6000
p3984
aVhighlyinterpret
p3985
aVuxdlivacuk
p3986
aVtiff
p3987
aVimak
p3988
aVsingapor
p3989
aVstreamlin
p3990
aVaccessdigexnet
p3991
aVagassizcasundnodakedu
p3992
aVnoni
p3993
aVpriest
p3994
aV118
p3995
aVchoic
p3996
aVdraft
p3997
aVdynam
p3998
aVquattro
p3999
aVbraindead
p4000
aVlanguag
p4001
aVnoncolour
p4002
aVrework
p4003
aVjerom
p4004
aVcrimson
p4005
aVpl88
p4006
aV9098614048
p4007
aV101
p4008
aV001
p4009
aVsparc
p4010
aVsunos412
p4011
aVdirectori
p4012
aVpolyray
p4013
aVengsdsuedu
p4014
aVhello
p4015
aVasher
p4016
aVwhoi
p4017
aVderiv
p4018
aVbode
p4019
aVtechi
p4020
aVdaryl
p4021
aVminervacisyaleedu
p4022
aVminerva
p4023
aVmn
p4024
aVchuck
p4025
aVpicassoocistempleedu
p4026
aVantonio
p4027
aVchalleng
p4028
aVpaperback
p4029
aV1995
p4030
aVultratrivi
p4031
aVfo
p4032
aVelm
p4033
aVrecautosusenet
p4034
aVpl2
p4035
aVwinqvtnet
p4036
aVreali
p4037
aVsander
p4038
aVuart
p4039
aVmeca
p4040
aVrealiti
p4041
aVionoscmil
p4042
aVjrmgnvifasufledu
p4043
aVcompsourcesmisc
p4044
aValtoca
p4045
aVadob
p4046
aV115
p4047
aV26
p4048
aVbaio
p4049
aVscott
p4050
aVtwincom
p4051
aV550a
p4052
aVdesktop
p4053
aVlow
p4054
aV68000
p4055
aVfamou
p4056
aVseptuagint
p4057
aV115r
p4058
aV261
p4059
aVphoenix
p4060
aVroc
p4061
aVsolomontechnetsg
p4062
aVpandorasdsuedu
p4063
aVclx
p4064
aVeasilycompromis
p4065
aVjq
p4066
aVunx
p4067
aVindexstrchr
p4068
aV12
p4069
aVhpmvd069nsrhpcom
p4070
aV112
p4071
aVmamishev
p4072
aVcraftclarksonedu
p4073
aVbrent
p4074
aVradiuswar
p4075
aVcodifi
p4076
aVlogia
p4077
aVtext
p4078
aVfb
p4079
aVcontort
p4080
aVxnewspost
p4081
aV120r
p4082
aV1378113
p4083
aVhprndrosehpcom
p4084
aVmihir
p4085
aVexce
p4086
aVkaskebce
p4087
aVpl8line
p4088
aVsvenv
p4089
aVsl1sl2
p4090
aVsedan
p4091
aVpostoffice1pscedu
p4092
aV1989
p4093
aVhprpcdrosehpcom
p4094
aVwow
p4095
aVnn
p4096
aVlocalhostdialixozau
p4097
aV6419
p4098
aV040
p4099
aVdpi
p4100
aVsuborbit
p4101
aVsuitabl
p4102
aVasi
p4103
aV54
p4104
aVumar
p4105
aVaustralia
p4106
aVnextstep
p4107
aV32bit
p4108
aVfreecel
p4109
aVtwist
p4110
aVkeyboard
p4111
aVrn
p4112
aVlabkaslsidhpcom
p4113
aVpl810
p4114
aVjecwatsonibmcom
p4115
aVxkernel
p4116
aVrsi
p4117
aVwcl
p4118
aVrightrot
p4119
aVindistinguish
p4120
aVflyback
p4121
aVtesla
p4122
aVcoil
p4123
aVadipos
p4124
aVreader
p4125
aVquicktim
p4126
aVleninstalin
p4127
aVrtrace
p4128
aVlaboratori
p4129
aVcarriag
p4130
aVkxp1124
p4131
aVpem
p4132
aVsingleaxi
p4133
aVdisco
p4134
aVtriad
p4135
aVstephen
p4136
aV202
p4137
aV5426
p4138
aV4x
p4139
aVsuno
p4140
aVow
p4141
aVexar
p4142
aVxr2240
p4143
aV9000730
p4144
aVhp
p4145
aVxgrabsc
p4146
aVgouroud
p4147
aVloasilcitilillefr
p4148
aVsphinx
p4149
aVabsequip
p4150
aVab
p4151
aVpap
p4152
aVvogllibrari
p4153
aVdutch
p4154
aVheshcuphpcom
p4155
aVpl91
p4156
aVcurti
p4157
aV117r
p4158
aVworkshop
p4159
aV61
p4160
aVscss3clmsuedu
p4161
aVsplit
p4162
aVovers
p4163
aVdec
p4164
aVdesta
p4165
aVauitobnc
p4166
aV199293
p4167
aVborrow
p4168
aVthoreddson
p4169
aVrevamp
p4170
aVx11
p4171
aVpreliminari
p4172
aVpostscript
p4173
aVcaringforwristsp
p4174
aVcarpalinfo
p4175
aVmodel1
p4176
aVbladestackurctuenl
p4177
aV47
p4178
aVhpux
p4179
aVmultithread
p4180
aVtaloscsbuffaloedu
p4181
aVshonkwil
p4182
aVcompliant
p4183
aVcomp
p4184
aV350
p4185
aVathena
p4186
aVny
p4187
aVuniv
p4188
aVinvok
p4189
aVxterm
p4190
aVcoder
p4191
aVcelp
p4192
aVaaplayex
p4193
aV119
p4194
aVribcsclivacuk
p4195
aVpro
p4196
aVultra
p4197
aVadmit
p4198
aVsmartdrv
p4199
aVhsinchu
p4200
aVxcursor
p4201
aVxannounceexpolcsmitedu
p4202
aVgcc
p4203
aVpl11
p4204
aVmimevers
p4205
aVscotland
p4206
aVmein
p4207
aVkampf
p4208
aVatheism
p4209
aVintroduct
p4210
aVabstract
p4211
aVsanjay
p4212
aValpha
p4213
aVextens
p4214
aVvc
p4215
aVc7
p4216
aVindigo
p4217
aVnermalsantarosaedu
p4218
aVma_ind25blurtoswegoedu
p4219
aVhpux901
p4220
aVdave
p4221
aVbolero
p4222
aVdewi
p4223
aVmcarthyit
p4224
aV117
p4225
aVrc2
p4226
aVphil
p4227
aVpseudocolor
p4228
aV110
p4229
aVkelvin
p4230
aVascona
p4231
aVkarl
p4232
aVwidget
p4233
aVmismatch
p4234
aV53
p4235
aV129957234
p4236
aVftpccalmrogiedu
p4237
aVccalmrpubacegrxvgr209tarz
p4238
aViig
p4239
aVlaserwrit
p4240
aVrom
p4241
aV8bit
p4242
aVreadm
p4243
aV499c
p4244
aVwall
p4245
aVirish
p4246
aVswastica
p4247
aVdevguid
p4248
aVtali
p4249
aVmutil
p4250
aVpctool
p4251
aV71
p4252
aVc1381
p4253
aV46
p4254
aVjoseph
p4255
aVtommi
p4256
aVvariabl
p4257
aVcrowcsrvuidahoedu
p4258
aVokay
p4259
aVbennett
p4260
aVstudio
p4261
aVpropagandist
p4262
aVmalloc3
p4263
aVwritercuphpcom
p4264
aVhuayong
p4265
aVps
p4266
aVpegasus130393124328fp1dialin7uoregonedu
p4267
aVyea
p4268
aVvgalib
p4269
aVst002560brownvmbrownedu
p4270
aVswitzerland
p4271
aV1858
p4272
aVpin
p4273
aV52
p4274
aV68hc11
p4275
aVucrengr
p4276
aVhpmpec3ccuphpcom
p4277
aVssdcssdcsterlingcom
p4278
aVskip
p4279
aVimportantli
p4280
aVrevernmsuedu
p4281
aVentrop
p4282
aVbhutaninstmedtroniccom
p4283
aVmarchapril
p4284
aVkjenksgothamcityjscnasagov
p4285
aVcmo
p4286
aVic
p4287
aVtga
p4288
aVdx
p4289
aV50mhz
p4290
aVkent
p4291
aVee11engrlatechedu
p4292
aVgarnetmsencom
p4293
aVamphibi
p4294
aVsp
p4295
aVschwimwagen
p4296
aVdiorama
p4297
aVenhanc
p4298
aVx386
p4299
aVumbdr522zip
p4300
aVumbdrv
p4301
aVmem
p4302
aVcfb
p4303
aVnhlc
p4304
aVperforma
p4305
aV71p
p4306
aVeas
p4307
aVmallen
p4308
aVvm
p4309
aVsatan
p4310
aVorchid
p4311
aVudac
p4312
aVnasamsfc
p4313
aVaustralasian
p4314
aVohio
p4315
aVpikochemute
p4316
aVpostcript
p4317
aVmous
p4318
aVb63519studentcwruedu
p4319
aVchristoph
p4320
aVpinstrip
p4321
aVastro
p4322
aVeric
p4323
aV2x
p4324
aVsatisfactorili
p4325
aVmax641
p4326
aV1990
p4327
aValmanac
p4328
aVsnakecsuidahoedu
p4329
aVmalcolm
p4330
aVcrippl
p4331
aVmaster
p4332
aVp9000resdat
p4333
aVluck
p4334
aVpkunzip
p4335
aVtorx
p4336
aVprecompil
p4337
aVhp2xx
p4338
aVmsmail
p4339
aVamhux3amherstedu
p4340
aVprecarterphon
p4341
aVpcanywher
p4342
aVdean
p4343
aVys
p4344
aVsecondli
p4345
aV1992
p4346
aVaugust
p4347
aVkbssun1tamuedu
p4348
aVtray
p4349
aVcube
p4350
aVice
p4351
aVcharonctociticorpcom
p4352
aVideal
p4353
aVmhz
p4354
aVkaren
p4355
aVhewlettpackardsantarosasystmsdivrohnertparkca
p4356
aVxew13
p4357
aVcontenti
p4358
aV550
p4359
aVtex
p4360
aVmousesyscom
p4361
aVfstgds15tugrazacat
p4362
aVmax
p4363
aVhammercdchpcom
p4364
aVlarri
p4365
aVlab
p4366
aVspuriou
p4367
aVdocumentari
p4368
aVingl
p4369
aVresurrect
p4370
aVweakest
p4371
aVinadmiss
p4372
aVascertian
p4373
aVlion
p4374
aVseriou
p4375
aVinaccuraci
p4376
aVcompel
p4377
aVinevit
p4378
aVinfanticid
p4379
aVgamma
p4380
aVpuck
p4381
aVmarshal
p4382
aVpsalm
p4383
aVdispit
p4384
aVtrial
p4385
aVinfecti
p4386
aVextraordinari
p4387
aVexsmok
p4388
aVanecedot
p4389
aVreynold
p4390
aVworthless
p4391
aVpile
p4392
aVonewrit
p4393
aVtaint
p4394
aVah
p4395
aVguilt
p4396
aVancedot
p4397
aVweigh
p4398
aVfairli
p4399
aVyeast
p4400
aVluke
p4401
aVintact
p4402
aVatom
p4403
aVteenag
p4404
aVnixon
p4405
aVstole
p4406
aVanectdot
p4407
aVmount
p4408
aVneal
p4409
aVcia
p4410
aVopportun
p4411
aVabsorb
p4412
aVinhuman
p4413
aVbar
p4414
aVcontrari
p4415
aVcoerc
p4416
aVinflamm
p4417
aVpointless
p4418
aVdariu
p4419
aVintroduc
p4420
aVrawlin
p4421
aVarmori
p4422
aVfake
p4423
aVtheism
p4424
aVlybian
p4425
aVdecenso
p4426
aVsecessionist
p4427
aVyoud
p4428
aVcharl
p4429
aVfort
p4430
aVpreponder
p4431
aVbob
p4432
aVjournalist
p4433
aVrusch
p4434
aVchump
p4435
aVperfect
p4436
aVutopian
p4437
aVcite
p4438
aVarlo
p4439
aVslave
p4440
aVmari
p4441
aVassumpt
p4442
aV_the_lost_years_of_jesus_
p4443
aVnuclear
p4444
aVempir
p4445
aVcandida
p4446
aVreincarn
p4447
aVnhtsa
p4448
aVselim
p4449
aVstatement
p4450
aVpsycholog
p4451
aVcon
p4452
aVangel
p4453
aVlo
p4454
aVjavier
p4455
aVlopez
p4456
aV1971
p4457
aVescap
p4458
aVempti
p4459
aVhypothesi
p4460
aVatrophi
p4461
aVacut
p4462
aVsubcommitte
p4463
aVtome
p4464
aVretract
p4465
aVconspiraci
p4466
aVcondescend
p4467
aVshuld
p4468
aVglobal
p4469
aVwarm
p4470
aVroyc
p4471
aVexplain
p4472
aVreoccur
p4473
aVskeptic
p4474
aVstringent
p4475
aVpatient
p4476
aVv
p4477
aVcruelti
p4478
aVparol
p4479
aV2202
p4480
aVucc
p4481
aVampl
p4482
aVmisinform
p4483
aVfavour
p4484
aVton
p4485
aVdisprov
p4486
aVcanyon
p4487
aVtheist
p4488
aVshirak
p4489
aVbd
p4490
aVconclud
p4491
aVfaci
p4492
aVprima
p4493
aVpast
p4494
aVexposur
p4495
aVingredi
p4496
aVinfrequ
p4497
aVmerril
p4498
aVunquest
p4499
aV1923
p4500
aVjohnson
p4501
aVsubpoena
p4502
aVformal
p4503
aVmotor
p4504
aVcharacterist
p4505
aVahv
p4506
aVstretch
p4507
aVcircumstanci
p4508
aVquilti
p4509
aVincrimin
p4510
aVdivulg
p4511
aVfidel
p4512
aVelabor
p4513
aVshred
p4514
aVslightest
p4515
aVharmon
p4516
aVwouldv
p4517
aVtoken
p4518
aVsidiropoulo
p4519
aVmacedonian
p4520
aVstowel
p4521
aVm
p4522
aVmoodi
p4523
aVhammer
p4524
aVabfdefghiijklmmnohpp
p4525
aVbeal
p4526
aVpanther
p4527
aVhuizenga
p4528
aVdougla
p4529
aVtissu
p4530
aVfetal
p4531
aVfaggot
p4532
aVspous
p4533
aVrachtin
p4534
aVeberhart
p4535
aVaerospac
p4536
aVflyer
p4537
aVemrick
p4538
aVjay
p4539
aVsnider
p4540
aVmicrogenesi
p4541
aVsimultan
p4542
aVvolvovitz
p4543
aVnomin
p4544
aVcsugradcsvtedu
p4545
aVturgur
p4546
aVozal
p4547
aVfurst
p4548
aVnorma
p4549
aVdr
p4550
aVbaltimor
p4551
aVhebrew
p4552
aVmiami
p4553
aVcdtechnolog
p4554
aVelchibey
p4555
aVhochman
p4556
aVmather
p4557
aVmiracl
p4558
aVharvard
p4559
aVtimothi
p4560
aVupstair
p4561
aVquinn
p4562
aVmbi
p4563
aVmclaughlin
p4564
aVabc
p4565
aVgori
p4566
aVdecima
p4567
aVallen
p4568
aVgregg
p4569
aV1950
p4570
aVclub
p4571
aVfireston
p4572
aVhasnt
p4573
aVepa
p4574
aVbobbi
p4575
aVclark
p4576
aVsmeal
p4577
aVeleanor
p4578
aVwashington
p4579
aVfounder
p4580
aVsoftserv
p4581
aVbidzo
p4582
aVopenli
p4583
aVtriangul
p4584
aVcurv
p4585
aVbezier
p4586
aVpanel
p4587
aV64bit
p4588
aVshin
p4589
aVpatent
p4590
aVgenet
p4591
aVdestin
p4592
aVimplement
p4593
aVthine
p4594
aVpurdu
p4595
aVgiacalo
p4596
aVacm
p4597
aV524
p4598
aV80bit
p4599
aVunknown
p4600
aVgap
p4601
aVblackmag
p4602
aVcircl
p4603
aVbresenham
p4604
aVsabotag
p4605
aVgibberish
p4606
aVchenwang
p4607
aVshadow
p4608
aVtclsipp
p4609
aVtcl
p4610
aVendpoint
p4611
aVsnap
p4612
aVshear
p4613
aVexamin
p4614
aVlint
p4615
aVembed
p4616
aVautom
p4617
aVdecomposit
p4618
aVtrapezoid
p4619
aVpolygon_reduct
p4620
aVextend
p4621
aVwherebi
p4622
aVuntest
p4623
aVthumb
p4624
aVsore
p4625
aVencipher
p4626
aVfeal
p4627
aVeurocrypt
p4628
aV87
p4629
aVpolygon
p4630
aVconvex
p4631
aVconcav
p4632
aVvanheyningen
p4633
aVkaramankar
p4634
aVmoeni
p4635
aVvesselin
p4636
aVgillogli
p4637
aVmartin
p4638
aVflatten
p4639
aVvulner
p4640
aVrokhlin
p4641
aVdigest
p4642
aVeasili
p4643
aVbackdoor
p4644
aVreduct
p4645
aV128bit
p4646
aVdevis
p4647
aVencryt
p4648
aVtist
p4649
aVscien
p4650
aVinterrupt
p4651
aVch
p4652
aVturnon
p4653
aVtrivial
p4654
aVclock
p4655
aVdebug
p4656
aVamiga
p4657
aVadb
p4658
aVplotter
p4659
aVnull
p4660
aVsg7
p4661
aVfmsrl71pqf9oinn88
p4662
aVscsi2
p4663
aV_not_
p4664
aVpeic
p4665
aVb640
p4666
aV640x480
p4667
aVb752
p4668
aVsmaller
p4669
aVadhes
p4670
aVpackag
p4671
aVirq2
p4672
aVautomag
p4673
aVintegr
p4674
aVsector
p4675
aVmatch
p4676
aVpositiveor
p4677
aVcheaper
p4678
aVsgi
p4679
aV37
p4680
aVnetter
p4681
aVselfprotect
p4682
aVoverdr
p4683
aValittl
p4684
aVinit
p4685
aVwhack
p4686
aVcentri
p4687
aVpure
p4688
aVgrad
p4689
aVmarin
p4690
aVsupplier
p4691
aVbracket
p4692
aVrack
p4693
aVdgree
p4694
aVofftheshelf
p4695
aVident
p4696
aVprocommfw
p4697
aVconstraint
p4698
aVdjlewisualredu
p4699
aVcursor
p4700
aVdedic
p4701
aV170
p4702
aVpowerbook
p4703
aVpan
p4704
aVspaceflight
p4705
aVtranspond
p4706
aVvideogener
p4707
aVtruecolor
p4708
aVselfmodifi
p4709
aVoklahoma
p4710
aVfirmwar
p4711
aVcolormap
p4712
aVdsp
p4713
aVlayer
p4714
aVspecialpurpos
p4715
aV7000year
p4716
aVdisclaim
p4717
aV16bit
p4718
aVscroll
p4719
aV_________________________________________________________
p4720
aVtelecom
p4721
aVprinter
p4722
aVproblemsetc
p4723
aVstation
p4724
aVstone
p4725
aVrng
p4726
aVadaptor
p4727
aVzterm
p4728
aVhandshak
p4729
aVcancel
p4730
aVaviat
p4731
aVbottleneck
p4732
aVmaker
p4733
aVserval1993apr2015140512480
p4734
aVcom1
p4735
aVirq4
p4736
aVworkaround
p4737
aVsun4
p4738
aVhighend
p4739
aVgain
p4740
aVmomentum
p4741
aVdataglov
p4742
aVvpl
p4743
aVinexpens
p4744
aVarithmet
p4745
aVattende
p4746
aVaddin
p4747
aVgoldin
p4748
aVpram
p4749
aV24si
p4750
aVzoompan
p4751
aVcontributor
p4752
aVcoronahscuscedu
p4753
aVmoder
p4754
aVoem
p4755
aVcourtesi
p4756
aVapp
p4757
aVmetal
p4758
aVhobbi
p4759
aVdoc
p4760
aVadmin
p4761
aVsysnet
p4762
aV512
p4763
aV8918637
p4764
aVpager
p4765
aVblow
p4766
aVboe
p4767
aV727
p4768
aVprescrib
p4769
aVrout
p4770
aVmio
p4771
aVorient
p4772
aVctsrt
p4773
aVdiy
p4774
aVdiod
p4775
aVfaulti
p4776
aVfollowup
p4777
aVdtrrtsdtsct
p4778
aVlocaltalk
p4779
aVethernet
p4780
aVfinanci
p4781
aVagenda
p4782
aVbreakthrough
p4783
aVnonhardwar
p4784
aVahdshak
p4785
aV28800baud
p4786
aVserialis
p4787
aVoverhead
p4788
aVparadox
p4789
aVvintag
p4790
aVmid1960
p4791
aVguidanc
p4792
aVprematur
p4793
aVrecondit
p4794
aVfmsrl71pqep5inn88
p4795
aVpcxtatps2
p4796
aVconferenc
p4797
aVmit
p4798
aVhog
p4799
aVemm386
p4800
aVhassl
p4801
aVbundl
p4802
aVkit
p4803
aVscanningedit
p4804
aVocr
p4805
aVnoncommerci
p4806
aVantiviru
p4807
aVmathew
p4808
aVquicklink
p4809
aVunrecogniz
p4810
aVedb9140tamsuntamuedu
p4811
aVshape
p4812
aVjoystick
p4813
aV300
p4814
aVtomhmetricscom
p4815
aVhaapanen
p4816
aVmetric
p4817
aVwaterloo
p4818
aVfinger
p4819
aVconfront
p4820
aVduli
p4821
aVclipart
p4822
aVscreenprint
p4823
aVcloth
p4824
aVunregist
p4825
aVproterm
p4826
aVgolf
p4827
aVchessmast
p4828
aV2100
p4829
aVload
p4830
aV4mb
p4831
aV1024x758
p4832
aVrollov
p4833
aVunopen
p4834
aVcomm
p4835
aVdcd8
p4836
aVdelug
p4837
aVstratigi
p4838
aVconsol
p4839
aVwordperfect
p4840
aVusercontribut
p4841
aV892
p4842
aVftpcontribr5hpsrv
p4843
aVsymbol
p4844
aVmath
p4845
aVtotal
p4846
aVirq3
p4847
aVfortran
p4848
aVgraham
p4849
aVqicstream
p4850
aVdosbas
p4851
aVgate
p4852
aVibmpc
p4853
aV3193
p4854
aVemul
p4855
aVzinc
p4856
aVcview
p4857
aVliant
p4858
aVpeterson
p4859
aVsequit
p4860
aVcodebas
p4861
aVshelf
p4862
aVefficaci
p4863
aV30bo
p4864
aVep
p4865
aVhadambcsc02govbcca
p4866
aVfpuintens
p4867
aV610
p4868
aVendus
p4869
aVtransfer
p4870
aVheikki
p4871
aVhaldr
p4872
aVigor
p4873
aVxop
p4874
aVharddisk
p4875
aVnonappl
p4876
aVxwindow
p4877
aVdesqviewx
p4878
aVwizard
p4879
aVopengl
p4880
aVpublicdomain
p4881
aVsharewar
p4882
aVdiscount
p4883
aVsharewarefreewar
p4884
aVwsm
p4885
aVgraywork
p4886
aV400
p4887
aVtrajectori
p4888
aVrussel
p4889
aVbounc
p4890
aVint86
p4891
aVcomerci
p4892
aVnaplp
p4893
aVhub
p4894
aVprovideo
p4895
aVrumor
p4896
aVperipher
p4897
aVrecognit
p4898
aVslovak
p4899
aV68hc16
p4900
aVgoldsborough
p4901
aV_____________________________________________________________
p4902
aVpwm
p4903
aVenamor
p4904
aVtect
p4905
aVarno
p4906
aVbravo
p4907
aVreinstal
p4908
aVmulitmedia
p4909
aVbandit
p4910
aVcontrib
p4911
aVcopyright
p4912
aV42
p4913
aVradiu
p4914
aVspectromet
p4915
aVfirm
p4916
aVfaxcomm
p4917
aVbox
p4918
aVillmann
p4919
aVquarterdeck
p4920
aVcdrom
p4921
aVmitsumi
p4922
aVstereovideo
p4923
aVxbase
p4924
aV52win
p4925
aV12h
p4926
aV255
p4927
aVhyperdisk
p4928
aVmacwoof
p4929
aVencyrpt
p4930
aVigc
p4931
aVmainli
p4932
aVxinit
p4933
aVabort
p4934
aVtanab
p4935
aVponderhtanabe734110579
p4936
aVscanmat
p4937
aVansel
p4938
aVdigestif
p4939
aVvesa
p4940
aVschultz
p4941
aVschultzvnetibmcom
p4942
aVgnu
p4943
aVbergmann
p4944
aVpaint
p4945
aVaccessdata
p4946
aVincompat
p4947
aVfont
p4948
aVappleshar
p4949
aVxfilesearchpath
p4950
aVnswc
p4951
aVsumex
p4952
aVvar
p4953
aVmerkl
p4954
aVjpeg
p4955
aV6a
p4956
aVgoodluck
p4957
aVxlastupd
p4958
aV19930416
p4959
aVcryptophon
p4960
aVinspector
p4961
aV_dsr
p4962
aVphoto
p4963
aVunixxmotif
p4964
aVconserv
p4965
aVcapabl
p4966
aVpascal
p4967
aVsemipract
p4968
aV40bit
p4969
aV56
p4970
aVconcurr
p4971
aVprojectmanag
p4972
aVwwiv
p4973
aVbb
p4974
aVconsent
p4975
aVvirgin
p4976
aVexpends
p4977
aVheavyduti
p4978
aVfluxisralaskaedu
p4979
aVkermit
p4980
aVpirat
p4981
aVdisney
p4982
aVcoincident
p4983
aVcompressor
p4984
aVjumper
p4985
aVect
p4986
aVdhor
p4987
aVip
p4988
aVgre
p4989
aVhu
p4990
aV205
p4991
aVwindowsprintcaptur
p4992
aVmackintosh
p4993
aVcolleagu
p4994
aV0649
p4995
aV554
p4996
aVastrocalc
p4997
aVpdsvicar
p4998
aVdatri
p4999
aVdaversjcmentorgcom
p5000
aVrickel
p5001
aVmultimedia
p5002
aVvr
p5003
aVsco
p5004
aVstepwis
p5005
aVrefin
p5006
aVintelbas
p5007
aVcheapnasti
p5008
aViclud
p5009
aVsatisfaxt
p5010
aVlinear
p5011
aVmurashieamailbeckmancom
p5012
aVquicktrak
p5013
aVpcmacamiga
p5014
aVwise
p5015
aVpcatwich
p5016
aVgenoa
p5017
aVipxnetx
p5018
aVwindowsnt
p5019
aVtoell
p5020
aVhighpow
p5021
aVpic
p5022
aVjasmin
p5023
aVdiskwrit
p5024
aVneither
p5025
aVcraft
p5026
aVcodecraft
p5027
aV11000
p5028
aVphilosphi
p5029
aVir
p5030
aVsean
p5031
aVassign
p5032
aVscicrypt
p5033
aVmathsoft
p5034
aVbookstor
p5035
aVters
p5036
aVenjoy
p5037
aVdecod
p5038
aVprovis
p5039
aVrocketri
p5040
aVboca
p5041
aVcwi
p5042
aVclean
p5043
aVswiss
p5044
aVamino
p5045
aVunclassifi
p5046
aVherebi
p5047
aVbaggag
p5048
aVdiabet
p5049
aVanonim
p5050
aVoverview
p5051
aVbank
p5052
aVcurricula
p5053
aVbrush
p5054
aVbeg
p5055
aVspin
p5056
aVroesvaxoxfordacuk
p5057
aVfoul
p5058
aViraniraq
p5059
aVbellovin
p5060
aVcharact
p5061
aVowner
p5062
aVamateur
p5063
aVoccasion
p5064
aVfriedman
p5065
aVloui
p5066
aVsiegel
p5067
aVfrighteningli
p5068
aVduke
p5069
aVelyclcamacuk
p5070
aVlifeandor
p5071
aVinnov
p5072
aVsupport5000
p5073
aVshaki
p5074
aVw1
p5075
aVexceed
p5076
aVskill
p5077
aVexplos
p5078
aVexpositori
p5079
aVrefresh
p5080
aVliber
p5081
aVhumanist
p5082
aVexerpt
p5083
aVdebut
p5084
aVamanda
p5085
aVwalker
p5086
aVenrout
p5087
aVastronaut
p5088
aVregal
p5089
aVjournal
p5090
aVparamet
p5091
aV293
p5092
aVcomprehens
p5093
aVrobichaulambdamsfcnasagov
p5094
aVhurdl
p5095
aVnother
p5096
aVfred
p5097
aVhack
p5098
aVkansa
p5099
aVpartnership
p5100
aVdisclosur
p5101
aVegregi
p5102
aVati
p5103
aVsoni
p5104
aVnotifi
p5105
aVtheiv
p5106
aVmaldanado
p5107
aVlake
p5108
aVenum
p5109
aVmillionalso
p5110
aVbond
p5111
aVfinish
p5112
aVunscrupul
p5113
aVdoctor
p5114
aV230
p5115
aVbaerga
p5116
aVintegra
p5117
aVseason
p5118
aVeuro
p5119
aVuniqu
p5120
aVirrat
p5121
aVbean
p5122
aVstrikeout
p5123
aVmediocr
p5124
aVcloser
p5125
aVfg1
p5126
aVareth
p5127
aVrigor
p5128
aVhorsepow
p5129
aVfocus
p5130
aVjerald
p5131
aVhrsessenti
p5132
aVleadoff
p5133
aVpreformat
p5134
aVcharacter
p5135
aVfallen
p5136
aVsae
p5137
aVtemperatur
p5138
aVsn
p5139
aVdurat
p5140
aVcasualti
p5141
aVgraphit
p5142
aVxr500ii
p5143
aVtcp
p5144
aVflag
p5145
aVnamesphon
p5146
aVapproxmi
p5147
aV455khz
p5148
aVexact
p5149
aVhte
p5150
aVpennant
p5151
aVplanetari
p5152
aVttyl
p5153
aVmultiauthor
p5154
aVequat
p5155
aVaerodynam
p5156
aVmagic
p5157
aVcontridict
p5158
aVmel
p5159
aVsurpass
p5160
aVvictim
p5161
aVdifferend
p5162
aVpcf
p5163
aVnewcomb
p5164
aVleverri
p5165
aVoutyear
p5166
aVedgetacalcul
p5167
aVblood
p5168
aVlevequ
p5169
aVcontus
p5170
aVlonni
p5171
aVloach
p5172
aVunlimit
p5173
aVmobil
p5174
aVcrunch
p5175
aValtsecur
p5176
aVcompsecuritymisc
p5177
aVchicago
p5178
aVgnp
p5179
aVk1
p5180
aVk2
p5181
aVdod
p5182
aVbestow
p5183
aVbonehead
p5184
aVfan
p5185
aVprime
p5186
aVsandberg
p5187
aVrecal
p5188
aVseri
p5189
aVholocaust
p5190
aV301
p5191
aV104
p5192
aVuntouch
p5193
aVdeclin
p5194
aVchaotic
p5195
aVpseudorandom
p5196
aV1200
p5197
aV91
p5198
aVeli
p5199
aVspeedomet
p5200
aVinhabit
p5201
aV666
p5202
aVoffset
p5203
aVveteran
p5204
aVtomorrow
p5205
aVfloat
p5206
aVplate
p5207
aVfiles
p5208
aVyaer
p5209
aVmmle
p5210
aVobp
p5211
aVraw
p5212
aVsatisfi
p5213
aVridicul
p5214
aVinfield
p5215
aVhorribl
p5216
aVdiego
p5217
aVjack
p5218
aVsequenti
p5219
aVinflat
p5220
aVstrictli
p5221
aVnoncompar
p5222
aVdiscard
p5223
aVscorn
p5224
aVsecretli
p5225
aVfastcach
p5226
aVdaystar
p5227
aVoverwhelmingli
p5228
aVthirdlin
p5229
aVcompon
p5230
aV8250
p5231
aV16450
p5232
aVbeforehand
p5233
aVpissedoff
p5234
aVassi
p5235
aV4000seri
p5236
aVreinnerv
p5237
aVmuscl
p5238
aVflashi
p5239
aVeverybodi
p5240
aVretir
p5241
aVweve
p5242
aVapproxim
p5243
aVpunch
p5244
aVpresum
p5245
aVozon
p5246
aVdial
p5247
aVpatienc
p5248
aVforg
p5249
aVfirstclass
p5250
aVsignet
p5251
aV4516644
p5252
aVsupportbb
p5253
aVautofil
p5254
aV5pm10pm
p5255
aV712
p5256
aV676
p5257
aV13000
p5258
aVelud
p5259
aVstabl
p5260
aVwarranti
p5261
aVartwork
p5262
aV00
p5263
aVsulfit
p5264
aVslick
p5265
aVcrashland
p5266
aVmosfet
p5267
aVillustr
p5268
aVdxterm
p5269
aVztimer
p5270
aVwuarchiv
p5271
aVtour
p5272
aV22600
p5273
aV7400
p5274
aVinsert
p5275
aVpdr
p5276
aVgalaxi
p5277
aVtoolkit
p5278
aVbinari
p5279
aVez
p5280
aVsubroutin
p5281
aVseal
p5282
aVstatic
p5283
aVlib
p5284
aVtypefac
p5285
aVtypetyp
p5286
aVstimulu
p5287
aVinet
p5288
aVxvertext
p5289
aVbrownftmsuucp
p5290
aVvidiot
p5291
aVes
p5292
aVcern
p5293
aVmp
p5294
aVtrace
p5295
aVplcc
p5296
aVinterviewsstanfordedu
p5297
aVoverkil
p5298
aVdjgpp
p5299
aVsimtel20
p5300
aVcadcor
p5301
aVdiscredit
p5302
aVcustommad
p5303
aVdmodem
p5304
aVsheet
p5305
aVsrgp
p5306
aVcommer
p5307
aVlag
p5308
aVcad
p5309
aVtelescop
p5310
aVxray
p5311
aVbem
p5312
aVbugey
p5313
aVmonster
p5314
aVvort
p5315
aVdkbtrace
p5316
aVware
p5317
aVfreeshar
p5318
aVgraph
p5319
aVskate
p5320
aV2d
p5321
aVaust
p5322
aVreid
p5323
aVmorph
p5324
aVdmorf12zip
p5325
aVeducationallyenrich
p5326
aVwealthbuild
p5327
aVnaiman
p5328
aVhomewood
p5329
aVdtp
p5330
aVradios
p5331
aVlistserv
p5332
aVraytrac
p5333
aVasterixinescnpt
p5334
aVxrpc
p5335
aV50
p5336
aVpbmplu
p5337
aVarchiv
p5338
aVacross
p5339
aVdeterg
p5340
aVthrought
p5341
aVascii
p5342
aVadjust
p5343
aVvplot
p5344
aVsourcesit
p5345
aVimagemagick
p5346
aVcristi
p5347
aVclient
p5348
aV795
p5349
aVegan
p5350
aVsoftwarehardwar
p5351
aVencyclopedia
p5352
aVdayna
p5353
aVwscrawl
p5354
aVftpcicaindianaedu
p5355
aVdip
p5356
aVplastic
p5357
aVrectangular
p5358
aVreadi
p5359
aVgk
p5360
aVsoftengcsuwmedu
p5361
aVoleo
p5362
aVxy
p5363
aVrcs8pocwruedu
p5364
aVsyquest
p5365
aVfantast
p5366
aVclv
p5367
aVworkshift
p5368
aVstephanopoulo
p5369
aVdualinlin
p5370
aV40pin
p5371
aVspeedup
p5372
aVglenn
p5373
aVlai
p5374
aVsoftwareonli
p5375
aVxremot
p5376
aVresum
p5377
aVrepublican
p5378
aVkopek
p5379
aVcooki
p5380
aVppm
p5381
aVcompgraph
p5382
aVhandl
p5383
aVinterior
p5384
aVsunroof
p5385
aVcruis
p5386
aVtruck
p5387
aVnonup
p5388
aVvacat
p5389
aVmidway1993apr6060213211
p5390
aVinkjet
p5391
aVconnectix
p5392
aVbeefedup
p5393
aVbitgraypixel
p5394
aVprivatelydevelop
p5395
aVa2i
p5396
aVmuck
p5397
aVturner
p5398
aVphotograph
p5399
aVperus
p5400
aVasala
p5401
aVprogerman
p5402
aVnetwar
p5403
aVv326
p5404
aVcompuserv
p5405
aVhostnam
p5406
aVworkgroup
p5407
aVtablish
p5408
aVoversea
p5409
aVsnmp
p5410
aVtelecomm
p5411
aVskull
p5412
aVgui
p5413
aVmultilevel
p5414
aVsemd
p5415
aVnsu
p5416
aVtelecast
p5417
aVexpostfacto
p5418
aVscrutini
p5419
aVsimon
p5420
aVremot
p5421
aVg
p5422
aVpctcp
p5423
aVtelevis
p5424
aViri
p5425
aVcopierprint
p5426
aVdevot
p5427
aVrever
p5428
aVamend
p5429
aVerotica
p5430
aVcompgraphicsvisu
p5431
aVirregular
p5432
aVlaser
p5433
aVpipe
p5434
aVastronom
p5435
aVinetray
p5436
aVrayshad
p5437
aVymp
p5438
aVshutdowncrash
p5439
aVlan
p5440
aVappletalk
p5441
aVdcswitsendtnetcom
p5442
aVattach
p5443
aVembarras
p5444
aVexpress
p5445
aVpreemptiv
p5446
aVtimerdriven
p5447
aVaotc
p5448
aVbeam
p5449
aVnewsland
p5450
aVtwomachin
p5451
aVtunnel
p5452
aVwealthi
p5453
aVtopolog
p5454
aVcascad
p5455
aVsystemflinkdiscon
p5456
aVpartner
p5457
aVdisconnect
p5458
aVproisrael
p5459
aVworldwid
p5460
aVbuiltin
p5461
aVnonciph
p5462
aVga
p5463
aVmalaysia
p5464
aVyup
p5465
aVnightli
p5466
aV25kbyte
p5467
aVlocaltalkcompat
p5468
aVxyz
p5469
aVshoe
p5470
aVq2
p5471
aVpropel
p5472
aVxtra
p5473
aVseth
p5474
aVcoxial
p5475
aVwirethank
p5476
aVpool
p5477
aVprofess
p5478
aValuminum
p5479
aVfarzin
p5480
aVmokhtarian
p5481
aVinterplanetari
p5482
aVpassphras
p5483
aVconform
p5484
aV311
p5485
aV4fge
p5486
aVrs6000
p5487
aVstatewid
p5488
aVbj200
p5489
aVcanon
p5490
aVoak
p5491
aV2410
p5492
aVokidata
p5493
aV640x480x167mil
p5494
aVprotext
p5495
aVcica
p5496
aV1024x768x256
p5497
aVdiamond
p5498
aVknock
p5499
aVwood
p5500
aVpasseng
p5501
aVdrunk
p5502
aValert
p5503
aVwinjet
p5504
aVdiplomat
p5505
aVambul
p5506
aVraymak
p5507
aVbaylor
p5508
aVcga
p5509
aV244
p5510
aVvd
p5511
aVjeep
p5512
aVconro
p5513
aVmodul
p5514
aV1280x1024
p5515
aVcl
p5516
aV8900
p5517
aVlookout
p5518
aVknuckl
p5519
aVicf
p5520
aVfusion
p5521
aVseamless
p5522
aVwin31
p5523
aV800x600
p5524
aVhdt
p5525
aVmac23
p5526
aVwav
p5527
aVsoundex
p5528
aV1024x768x16
p5529
aVunivesa
p5530
aVsvga
p5531
aV256
p5532
aVbodeeeualbertaca
p5533
aVasw410
p5534
aVadaptec
p5535
aVmo
p5536
aVjames_jim_fraziercupportalcom
p5537
aVflash
p5538
aVintersect
p5539
aVclever
p5540
aVvariat
p5541
aVbrake
p5542
aVbeat
p5543
aVcholer
p5544
aVdualpag
p5545
aVcornerston
p5546
aVtkelderebce
p5547
aVpn48
p5548
aVgsx140
p5549
aVnowher
p5550
aVodbc
p5551
aVaix
p5552
aV1024x768x64k
p5553
aVcrucial
p5554
aVv12
p5555
aVspecifi
p5556
aVdownshift
p5557
aVgeniu
p5558
aVcjacksonadobecom
p5559
aVam2oandrewcmuedu
p5560
aVmcdiarmid
p5561
aVsophomor
p5562
aVgetaway
p5563
aVtang
p5564
aVgino
p5565
aVcab
p5566
aVbutton
p5567
aVwdctl
p5568
aVsuicid
p5569
aVmach32
p5570
aVwinchest
p5571
aV24x
p5572
aVspeedstar
p5573
aVbj10e
p5574
aVneat
p5575
aVmeaning
p5576
aVjosh
p5577
aVmearli
p5578
aV65k
p5579
aVmorn
p5580
aVwednesday
p5581
aVsomewhat
p5582
aVmsf
p5583
aVhair
p5584
aVsilver
p5585
aVsonofab
p5586
aVyeahsureth
p5587
aVrouhi
p5588
aVmg
p5589
aVguynn
p5590
aVrick
p5591
aVsoontob
p5592
aVmga
p5593
aV1600
p5594
aVgvga
p5595
aVtrident
p5596
aVshame
p5597
aVschedul
p5598
aVpreselect
p5599
aV8510
p5600
aVcitoh
p5601
aVver
p5602
aV768x1024
p5603
aVanywer
p5604
aVcrt
p5605
aVcyberman
p5606
aVtransistor
p5607
aV8xx
p5608
aVwandersman
p5609
aVsethnorth13acpubdukeedu
p5610
aVcv
p5611
aVpg1281
p5612
aVmatrox
p5613
aVbockamphphalle2ginformatiktumuenchend
p5614
aVelement
p5615
aVcircuitri
p5616
aVdeskjet
p5617
aVlaserjet
p5618
aVdi
p5619
aVda
p5620
aVaffair
p5621
aVmousesi
p5622
aVfx80
p5623
aVepson
p5624
aVp9000
p5625
aVweitek
p5626
aV5band
p5627
aVamfm
p5628
aVs3
p5629
aVlancast
p5630
aVoverlay
p5631
aVtotten
p5632
aVviewer
p5633
aVacc
p5634
aVse30
p5635
aVbonnieicsuciedu
p5636
aVcodepackag
p5637
aVturbo
p5638
aVaccelar
p5639
aVadapt
p5640
aVsrg3sirgrvgracecrinz
p5641
aVimageri
p5642
aVdisplayoutput
p5643
aVturboborland
p5644
aVret
p5645
aV8900cl
p5646
aV2m
p5647
aVxlib
p5648
aVbrenn
p5649
aVerikbidtunitno
p5650
aVsuperfast
p5651
aVyouknowwho
p5652
aVloral
p5653
aVacceller
p5654
aVcantuac533emcv7
p5655
aVactix
p5656
aVoutperform
p5657
aVwirefram
p5658
aVchipset
p5659
aV640x400
p5660
aVstudenttcumnedu
p5661
aVappos
p5662
aV13h
p5663
aVphig
p5664
aVapi
p5665
aVinreplyto
p5666
aVch41prismgatechedu
p5667
aV5e
p5668
aVwgt
p5669
aV320200256
p5670
aVxtbase
p5671
aVtranslat
p5672
aVonthefli
p5673
aV824gc
p5674
aVxxxdate
p5675
aVmon
p5676
aVnonam
p5677
aVdotprint
p5678
aVusc
p5679
aV2mb
p5680
aVicon
p5681
aVgif
p5682
aVappsoft
p5683
aVxserver
p5684
aVmidwayecnuoknoredu
p5685
aVroyalti
p5686
aVverison
p5687
aVpia
p5688
aVcompris
p5689
aVgx
p5690
aVinterleaf
p5691
aVcgm
p5692
aVvector
p5693
aVgrab
p5694
aVinclus
p5695
aVcommercialpd
p5696
aVvgasvga
p5697
aVthoroughli
p5698
aVwingcommand
p5699
aVcg6
p5700
aVrundown
p5701
aVvni
p5702
aVimsl
p5703
aVga5000
p5704
aVgpf
p5705
aVsuutari
p5706
aVscreendriv
p5707
aV75
p5708
aVsurprisingli
p5709
aVcomposit
p5710
aVelan
p5711
aV48bit
p5712
aVvisuallib
p5713
aV1mb
p5714
aVnewssoftwar
p5715
aVvaxvm
p5716
aVvnew
p5717
aVaga
p5718
aVextrasharp
p5719
aV640
p5720
aV480
p5721
aVfrankligheliumgasuugarizonaedu
p5722
aV2623a
p5723
aVhart
p5724
aVclay
p5725
aVgerm
p5726
aVbehs
p5727
aVtablet
p5728
aVflop1r5f7linnj71
p5729
aVbmp
p5730
aVintens
p5731
aVcommunicationsnot
p5732
aVivan
p5733
aVbach
p5734
aVibsgicom
p5735
aVpman
p5736
aVmono
p5737
aVunawar
p5738
aVquaddens
p5739
aVkc2wz
p5740
aVbillson
p5741
aVbobkc2wzbubbleorg
p5742
aVnail
p5743
aVmednewsasuacadbitnet
p5744
aVmednewsasuvminreasuedu
p5745
aVanonym
p5746
aVsbrogiitymnetcom
p5747
aVhoek
p5748
aVren
p5749
aVrenccwfccutexasedu
p5750
aVmcovingtaiugaedu
p5751
aVlaunchpaduncedu
p5752
aV15222280
p5753
aVjwhcitiumichedu
p5754
aVraymakerbcmtmcedu
p5755
aVgopath
p5756
aVffritzehpwbe007wadhpcom
p5757
aVnf
p5758
aVrcampbelweejordyphysicsmunca
p5759
aVxoa
p5760
aVdiscordian
p5761
aVstigaardmhd1moorheadmsusedu
p5762
aVfnord
p5763
aVepiskopo
p5764
aVdelliottdigexcom
p5765
aV21228
p5766
aVmd
p5767
aVroubenmathumbcedu
p5768
aVz
p5769
aVcitri
p5770
aVtimkimbacattcitrieduau
p5771
aVwalterraincom
p5772
aVpop
p5773
aV366383
p5774
aVzonkercmuedu
p5775
aVnonanonym
p5776
aVdat
p5777
aVpes3cunixfcccolumbiaedu
p5778
aVacademia
p5779
aVhaferman
p5780
aVhafermanicaenuiowaedu
p5781
aV__ian
p5782
aVwormtm
p5783
aVfeldman
p5784
aVianfrandoms
p5785
aVrepositori
p5786
aVnoon
p5787
aVkoon
p5788
aVktt3unixbtonacuk
p5789
aVgrass
p5790
aVsum
p5791
aVwithdrawl
p5792
aV92
p5793
aVdfmorganacshardingedu
p5794
aVsayr
p5795
aVshredder
p5796
aVshredderteleramapghpau
p5797
aVunemploy
p5798
aVdometucbehsanucedu
p5799
aVbitnet
p5800
aVslip
p5801
aVnowif
p5802
aVthroughput
p5803
aVprobulfapplelinkapplecom
p5804
aVapplelink
p5805
aVprobulfinformatiktumuenchend
p5806
aVlaureti
p5807
aVmario
p5808
aVlaurm00tohidmiusherbca
p5809
aV33710
p5810
aVfl
p5811
aVpetersburg
p5812
aVwefiiiaxionpalanpalantircom
p5813
aV8133840584
p5814
aVuucp
p5815
aVmace
p5816
aVdevnul
p5817
aVsmacenyxcsduedu
p5818
aVemacetenetedu
p5819
aVpornographi
p5820
aVinetg
p5821
aVmeasur
p5822
aV180
p5823
aVrow
p5824
aVcaptur
p5825
aVaudaci
p5826
aVmenu
p5827
aV140
p5828
aVpb
p5829
aVintermitt
p5830
aVpathet
p5831
aVlcd
p5832
aVagress
p5833
aVinferior
p5834
aVinvers
p5835
aVyuppi
p5836
aVreadconvertcropwhatnot
p5837
aVhdf
p5838
aVx11xutilh
p5839
aVxsizehint
p5840
aVoscilloscop
p5841
aVfactori
p5842
aVtulsa
p5843
aVoutlin
p5844
aVbacklight
p5845
aVheadphon
p5846
aVbethesda
p5847
aVsync
p5848
aVdrawingarea
p5849
aVmm
p5850
aV300x225
p5851
aVdp
p5852
aVsquar
p5853
aVprototyp
p5854
aVfilm
p5855
aVvram
p5856
aVracew
p5857
aVfriday
p5858
aVuncalibr
p5859
aVcalibr
p5860
aVdecwindow
p5861
aVcasino
p5862
aVtvtwm
p5863
aVlastrang
p5864
aVjartsu
p5865
aVmicrotek
p5866
aVhex
p5867
aVframe
p5868
aVsw6sw5
p5869
aVreserv
p5870
aV01
p5871
aVspatial
p5872
aVroot
p5873
aVipx
p5874
aVwilling
p5875
aVvisibl
p5876
aVdisrupt
p5877
aVrotat
p5878
aVflat
p5879
aVshade
p5880
aVmcgill
p5881
aVstain
p5882
aVscreenshot
p5883
aVbitmap
p5884
aVonscreen
p5885
aVpolar
p5886
aVpart3
p5887
aVscene
p5888
aVgreylevel
p5889
aV1248163264128
p5890
aVgeneralpurpos
p5891
aV1meg
p5892
aVtestinstrumentsmeterpowersupplyoscilloscopestorag
p5893
aVrpiwss5lqm
p5894
aVjuvenil
p5895
aVmacbas
p5896
aVchar
p5897
aVxargv
p5898
aV7423
p5899
aVunexpectedli
p5900
aV16m
p5901
aVcomputervis
p5902
aVige
p5903
aV400x400x8
p5904
aVdescriptor
p5905
aVcg4
p5906
aVmultiscreen
p5907
aVmultidisplay
p5908
aVvelaacsoaklandedu
p5909
aVpickup
p5910
aVtrackfrict
p5911
aVmicrooft
p5912
aVfose
p5913
aV60hz
p5914
aVtelepathi
p5915
aVwaveform
p5916
aVnasm
p5917
aVxsetwmnormalhint
p5918
aVpsize
p5919
aVpposit
p5920
aVxtwindowcanva
p5921
aVw_id
p5922
aVcanva
p5923
aVxtdisplaycanva
p5924
aVdefaultscreen
p5925
aV8plane
p5926
aVpsuedocolor
p5927
aVspigot
p5928
aVntsc
p5929
aVgd5426
p5930
aV3min
p5931
aVchould
p5932
aVsapouna
p5933
aVscript
p5934
aVheadmount
p5935
aVeyephon
p5936
aVglovehand
p5937
aVladi
p5938
aVbeauti
p5939
aVtube
p5940
aVtranspar
p5941
aVxbit
p5942
aVxv
p5943
aVsidebysid
p5944
aVoverlap
p5945
aVincandesc
p5946
aVtil311
p5947
aVchoicemak
p5948
aVeet
p5949
aVbacklit
p5950
aV20char
p5951
aVmidi
p5952
aVinoutthru
p5953
aVupdown
p5954
aVsystemcommand
p5955
aVmy_int_var
p5956
aVscreen_numb
p5957
aVega
p5958
aVblast
p5959
aVintent
p5960
aVtone
p5961
aVbearli
p5962
aVpatton
p5963
aV17000k
p5964
aV029
p5965
aVdot
p5966
aVctrlaltdel
p5967
aVfwi
p5968
aV1024x768
p5969
aVhighvoltag
p5970
aVhighest
p5971
aVcharmap
p5972
aVhollow
p5973
aVenvironment
p5974
aV135
p5975
aVhpcc01recmotorcycl
p5976
aVr5
p5977
aVterri
p5978
aVneglect
p5979
aVxnew
p5980
aVscreensdisplay
p5981
aVole
p5982
aVspss
p5983
aVsmtp
p5984
aVtooltalklik
p5985
aVmask
p5986
aVfatal
p5987
aVxm121
p5988
aVutexa
p5989
aVmailtonew
p5990
aVsun3
p5991
aVnetowrk
p5992
aVtechonolog
p5993
aVchicogo
p5994
aVxstuff
p5995
aVautomot
p5996
aV4bit
p5997
aVserversright
p5998
aVresid
p5999
aVpixmap
p6000
aVsomeday
p6001
aVmonochrom
p6002
aVrpc
p6003
aVmicro
p6004
aVxlite
p6005
aVr4
p6006
aVesg
p6007
aValloc
p6008
aVtboot
p6009
aVnntp
p6010
aVder
p6011
aVxtest
p6012
aVdecxtrap
p6013
aVkernel
p6014
aVvulgar
p6015
aVchristi
p6016
aVwhichev
p6017
aVhpcc01recsportbasebal
p6018
aVlannertcliorzuniduesseldorfd
p6019
aVxtermin
p6020
aVreportcheck
p6021
aVsize
p6022
aVordinarili
p6023
aV65535
p6024
aVgalaxy00
p6025
aVmisread
p6026
aViac
p6027
aVfileshar
p6028
aVtitledrag
p6029
aVsigpip
p6030
aVvpisu
p6031
aVhostname10
p6032
aVgist
p6033
aVrsaref
p6034
aVoverload
p6035
aVgs650
p6036
aV82
p6037
aVpulldown
p6038
aVximag
p6039
aVrepaint
p6040
aVyee
p6041
aVpropuls
p6042
aVicsuciedu
p6043
aVbombard
p6044
aVrebuildingreconfigur
p6045
aVband
p6046
aV8175654060
p6047
aVpo
p6048
aVasant
p6049
aVlistservmainemaineedu
p6050
aVzack
p6051
aVnicddnmil
p6052
aVxgrabserverdisplay
p6053
aVmedin
p6054
aVmmilitzoskidmoreedu
p6055
aVx11r3
p6056
aVncarucar
p6057
aVara
p6058
aVmailbas
p6059
aVmantiscouk
p6060
aVfocu
p6061
aVtific
p6062
aVsfu
p6063
aVfeasibl
p6064
aVbiolog
p6065
aVoop
p6066
aVobstens
p6067
aVsorta
p6068
aVfootpeg
p6069
aVvirginia
p6070
aVtoler
p6071
aVslack
p6072
aVgenom
p6073
aVbrutal
p6074
aVpad
p6075
aVtitan
p6076
aVdartmouth
p6077
aVstudentsw
p6078
aVinland
p6079
aVsteel
p6080
aVchemistri
p6081
aVanalys
p6082
aVseahuntimatcom
p6083
aVoil
p6084
aVexplor
p6085
aVmethodolog
p6086
aVsherzer
p6087
aVsharif
p6088
aVal
p6089
aVkmart
p6090
aVmarcu
p6091
aVsteril
p6092
aVlone
p6093
aVunpatent
p6094
aVcastleman
p6095
aV2830
p6096
aVrigidli
p6097
aVfeat
p6098
aVunderstat
p6099
aVbeth
p6100
aVracial
p6101
aVpartli
p6102
aVcsdvax1993apr150018133907
p6103
aVastroresearch
p6104
aVcomrad
p6105
aVfinanc
p6106
aVheroic
p6107
aVpractici
p6108
aVundoubt
p6109
aVinternship
p6110
aVuglvuvicca
p6111
aVribbon
p6112
aVdream
p6113
aVjoy
p6114
aVracer
p6115
aVmotosport
p6116
aVenthusiast
p6117
aVdriven
p6118
aVlid
p6119
aVski
p6120
aVkeyseach
p6121
aVbell
p6122
aVndi
p6123
aVbrett
p6124
aVbutler
p6125
aVpropaganda
p6126
aVnofre
p6127
aVfreemanwith
p6128
aVgreet
p6129
aV413
p6130
aVquick386
p6131
aV144
p6132
aVdepressingli
p6133
aVmarvin
p6134
aVtandi
p6135
aVkennehralogiccampclarksonedu
p6136
aVgoer
p6137
aVsew
p6138
aVsinger
p6139
aV5104896165
p6140
aV386sx16
p6141
aVast
p6142
aVrestor
p6143
aVbauder
p6144
aV4cylind
p6145
aVshifter
p6146
aVfreq
p6147
aVfpu
p6148
aVpubxr4
p6149
aVfreeman
p6150
aV417100
p6151
aVnonturbo
p6152
aVreboot
p6153
aVdamnabl
p6154
aVbrune
p6155
aVogp0180
p6156
aVpheonix
p6157
aVsimd
p6158
aV16384processor
p6159
aV25mhz
p6160
aVw100
p6161
aVsmell
p6162
aVwilliambeeubcca
p6163
aV6172532781
p6164
aV6176253972
p6165
aVobscur
p6166
aVcc
p6167
aVturbomodem
p6168
aVstereo
p6169
aV48633
p6170
aVheck
p6171
aVoccasionali
p6172
aVreson
p6173
aVmagnet
p6174
aVlocalbu
p6175
aVnight
p6176
aVasq
p6177
aVv130
p6178
aVkeysearch
p6179
aV386486
p6180
aV800x60016
p6181
aV1024x72816
p6182
aVloath
p6183
aVbullet
p6184
aVchopper
p6185
aVvend
p6186
aVpepsi
p6187
aVmatt
p6188
aVheali
p6189
aVthermographi
p6190
aVacsuiucedu
p6191
aV1281742521
p6192
aVstacker
p6193
aVsubmachin
p6194
aVfaxansw
p6195
aVplain
p6196
aVultrix
p6197
aVultrasound
p6198
aVcannon
p6199
aVwhim
p6200
aVyessir
p6201
aVrlogin
p6202
aV9600
p6203
aVdishonestcorrupt
p6204
aV16mhz
p6205
aVbeginnerinfo
p6206
aVdiskett
p6207
aVtnycixcompulinkcouk
p6208
aVbr1
p6209
aVdifferet
p6210
aV386sx
p6211
aV40mb
p6212
aVcaddi
p6213
aVexhaust
p6214
aVeveryplac
p6215
aVcda
p6216
aVreset
p6217
aVpartit
p6218
aVsoft
p6219
aVremorseless
p6220
aVsimpson
p6221
aV5200
p6222
aV2600
p6223
aVtyre
p6224
aVrocketpropel
p6225
aVmfm
p6226
aVlynnvax1mankatomsusedu
p6227
aVgotcha
p6228
aV5000200
p6229
aVdecstat
p6230
aVpi1arcumnedu
p6231
aV1376613011
p6232
aV926540837
p6233
aV7145868811
p6234
aVinfatu
p6235
aVblaster
p6236
aVmonash
p6237
aVatclass
p6238
aV32kb
p6239
aV38616mhz
p6240
aVproposit
p6241
aVglare
p6242
aVtopmagnusacsohiostateedu
p6243
aVriot
p6244
aVtune
p6245
aVcowork
p6246
aVmizzou1missouriedu
p6247
aVcal
p6248
aVzombi
p6249
aVwash
p6250
aVspect
p6251
aVlower
p6252
aVlc
p6253
aVesa
p6254
aVicesurfac
p6255
aVzamboni
p6256
aVderian
p6257
aVhatcher
p6258
aVgamemisconduct
p6259
aVfiftycalib
p6260
aVgit
p6261
aVdrum
p6262
aV200mb
p6263
aVheartach
p6264
aVacorn
p6265
aVpropoganda
p6266
aViifx
p6267
aVpleasant
p6268
aV4dx266v
p6269
aVpretti
p6270
aVhr16
p6271
aValesi
p6272
aVcaution
p6273
aVunexpect
p6274
aVinfinit
p6275
aVwetwar
p6276
aV13meg
p6277
aV38620mhz
p6278
aVdtk
p6279
aVwipe
p6280
aV4mg
p6281
aV700
p6282
aVmemoryquadra700instal
p6283
aVhomicid
p6284
aV592
p6285
aValyosha
p6286
aVbrother
p6287
aVlane
p6288
aViocard
p6289
aVbankpag
p6290
aVbacker
p6291
aV25k
p6292
aV8m
p6293
aV22k
p6294
aVkt32
p6295
aVconvent
p6296
aV640kb
p6297
aVupper
p6298
aV70n
p6299
aVami
p6300
aVpsuedostat
p6301
aVwerent
p6302
aVarbitrari
p6303
aVapertur
p6304
aVfoggi
p6305
aVxgetwindowproperti
p6306
aVinteg
p6307
aVqemm386max
p6308
aVhazi
p6309
aV19th
p6310
aVoffscreen
p6311
aVgobbl
p6312
aVnotabl
p6313
aVmurray
p6314
aVcraven
p6315
aVputimag
p6316
aVtragedi
p6317
aV16mb
p6318
aVeverex
p6319
aVsw4sw3
p6320
aVfade
p6321
aVlatch
p6322
aVoddbal
p6323
aV20mb
p6324
aVbytesmayb
p6325
aV4m
p6326
aVkb
p6327
aVpcat
p6328
aVpixrect
p6329
aVheadquart
p6330
aVramdriv
p6331
aVretriev
p6332
aVmagitron
p6333
aVdsg
p6334
aVstanford
p6335
aVemm386ex
p6336
aVomnipot
p6337
aVtammi
p6338
aVstablereli
p6339
aV6689k
p6340
aVparaphras
p6341
aVwp
p6342
aVcwindowssystemvgalogorl
p6343
aVfreed
p6344
aVlongword
p6345
aVjog
p6346
aVdannybpanixcom
p6347
aVleak
p6348
aVdram
p6349
aV16mx1
p6350
aV600
p6351
aVincombat
p6352
aVcongo
p6353
aVtoner
p6354
aV64k
p6355
aVearthjupit
p6356
aVuplink
p6357
aVprodig
p6358
aVdefragg
p6359
aVnonvolatil
p6360
aVv17v29v27ter
p6361
aVautoanswerautodi
p6362
aVwinmark
p6363
aV128k
p6364
aVpound
p6365
aVovercom
p6366
aVclosest
p6367
aV411
p6368
aVchannel
p6369
aV655360
p6370
aV579712
p6371
aVrep
p6372
aVsolder
p6373
aVframebuff
p6374
aVfilip
p6375
aVcreolnetcomcom
p6376
aV61x6752
p6377
aVpn
p6378
aV0k
p6379
aVstronger
p6380
aVpiggi
p6381
aVexpans
p6382
aVjbulfkpccom
p6383
aVtraumat
p6384
aVneutral
p6385
aV256k
p6386
aV212m
p6387
aVmaxtor
p6388
aVhd
p6389
aVmea
p6390
aVculpa
p6391
aVbrinton
p6392
aVbrintonicdteradynecom
p6393
aVmaximum
p6394
aV15n
p6395
aVintergalact
p6396
aVa0000affff
p6397
aVpfuetzner
p6398
aVvcpicompat
p6399
aVqemm386
p6400
aVsuperslot
p6401
aVmmu
p6402
aVconvini
p6403
aVrank
p6404
aVemough
p6405
aVdtg
p6406
aV2004
p6407
aVwong
p6408
aVpreset
p6409
aVchanger
p6410
aVmoment
p6411
aVfranklin
p6412
aV65
p6413
aVpb100
p6414
aVsegment
p6415
aVdistributor
p6416
aVclementin
p6417
aVsong
p6418
aVtuner
p6419
aVjohnnessiemccacuk
p6420
aVbusmast
p6421
aVlegend
p6422
aVslot
p6423
aVcoreleft
p6424
aVdevelpo
p6425
aValsoinvolv
p6426
aVterribl
p6427
aVmnemon
p6428
aVsciamanda
p6429
aVedinboro
p6430
aVnors
p6431
aVtranni
p6432
aVlossani
p6433
aV19m
p6434
aVdisc
p6435
aVnada
p6436
aVpig
p6437
aVvue
p6438
aVesposito
p6439
aVnonvolitil
p6440
aVnvm
p6441
aV49
p6442
aVdefacto
p6443
aVpetit
p6444
aVredress
p6445
aVleverag
p6446
aVtreatment
p6447
aVtinpot
p6448
aVhigherthanlist
p6449
aVcattalk
p6450
aVallsacr
p6451
aVcdtrocketswstratuscom
p6452
aVleftw
p6453
aVtraitor
p6454
aVtoadi
p6455
aVsocialist
p6456
aVminist
p6457
aVtruman
p6458
aV1975
p6459
aVownership
p6460
aVspokesperson
p6461
aVmedicinea
p6462
aVhighplac
p6463
aVpropols
p6464
aVcoverup
p6465
aVambush
p6466
aVunprovok
p6467
aVlobbi
p6468
aVexam
p6469
aVprovinci
p6470
aVtrueli
p6471
aVspindoctor
p6472
aVcensor
p6473
aVmalawi
p6474
aVrealist
p6475
aVtighten
p6476
aVstranglehold
p6477
aVdiem
p6478
aVfall
p6479
aVfox
p6480
aVcompunct
p6481
aVintrench
p6482
aVexsoviet
p6483
aVsuspici
p6484
aVjump
p6485
aVabandon
p6486
aVcoerciv
p6487
aVillegitim
p6488
aVbh
p6489
aVredistribut
p6490
aVnewsflash
p6491
aVnasti
p6492
aVboulder
p6493
aVcongreg
p6494
aVjudaiz
p6495
aVultim
p6496
aVnonjew
p6497
aVagreement
p6498
aVoutstand
p6499
aVbaptist
p6500
aVloyalti
p6501
aVkneejerk
p6502
aVconsequ
p6503
aVmartyr
p6504
aV197477
p6505
aVzinaida
p6506
aVadvantageth
p6507
aVindonesian
p6508
aVdiscourag
p6509
aVpole
p6510
aVkhartoum
p6511
aVbosnian
p6512
aVworker
p6513
aVbadli
p6514
aVfed
p6515
aVantichrist
p6516
aVadvoc
p6517
aVpoliceman
p6518
aVobey
p6519
aVplonk
p6520
aVspook
p6521
aVhallambak
p6522
aVexager
p6523
aVminim
p6524
aVwhoever
p6525
aVstuiii
p6526
aV_____________________________________________________________________
p6527
aVreestablish
p6528
aVodiou
p6529
aVweakth
p6530
aVincompet
p6531
aVdilemma
p6532
aVlibertarianstyl
p6533
aVcontemporari
p6534
aVtheft
p6535
aVmulroney
p6536
aVpour
p6537
aVdisinform
p6538
aVdecept
p6539
aVpiddli
p6540
aVconnot
p6541
aVdegener
p6542
aVion
p6543
aVbankrol
p6544
aVjudic
p6545
aVcramer
p6546
aVpowersav
p6547
aVsattelit
p6548
aVroyal
p6549
aVstojadinov
p6550
aVtheocrat
p6551
aVregrett
p6552
aVcoloni
p6553
aVthencurr
p6554
aVsquirt
p6555
aVsovereign
p6556
aVusag
p6557
aVimpati
p6558
aVprincip
p6559
aVnonoppres
p6560
aVslaveri
p6561
aVauthoritarian
p6562
aVprecid
p6563
aVlipread
p6564
aVmandatori
p6565
aVmenac
p6566
aVintrud
p6567
aVoverhaul
p6568
aVsheer
p6569
aVuae
p6570
aVinfrastructur
p6571
aVplant
p6572
aVinterim
p6573
aVdd
p6574
aVlacki
p6575
aVinteret
p6576
aVvete
p6577
aVwhitewash
p6578
aVciphertechnolog
p6579
aVfunctionari
p6580
aVstomp
p6581
aVoldhand
p6582
aVmaniac
p6583
aVlibrarian
p6584
aVuuuu
p6585
aV_________________________________________________________________________
p6586
aValtath
p6587
aVastronomi
p6588
aVincarn
p6589
aVmicrolab
p6590
aVtelaviv
p6591
aVinterlibrari
p6592
aVloan
p6593
aVeastern
p6594
aVossifi
p6595
aVtim
p6596
aVphdgraduat
p6597
aVdrawback
p6598
aVgrave
p6599
aVoccas
p6600
aVcor
p6601
aVopress
p6602
aV2013
p6603
aVhistoricli
p6604
aVpreachment
p6605
aVtrap
p6606
aVchristchurch
p6607
aVamongst
p6608
aVlexington
p6609
aVweiss
p6610
aVhalfbak
p6611
aVecclesiolog
p6612
aVpoliti
p6613
aVcenturi
p6614
aVsaudi
p6615
aV1960
p6616
aVdesacr
p6617
aVunequivoc
p6618
aVadult
p6619
aVquiet
p6620
aVliturg
p6621
aVunderstood
p6622
aVrochest
p6623
aVquietli
p6624
aVlavey
p6625
aVepiscop
p6626
aVvineyard
p6627
aVmediev
p6628
aVflourish
p6629
aVposthuman
p6630
aVmutant
p6631
aVoneselfth
p6632
aVlatin
p6633
aV34812
p6634
aVhostil
p6635
aVsci
p6636
aVmed
p6637
aVunreli
p6638
aVflee
p6639
aVjohnstoncyberiawinnet
p6640
aVeddi
p6641
aVbattl
p6642
aVs_132
p6643
aVnnrvm
p6644
aVoust
p6645
aVpassword
p6646
aVpseudohistor
p6647
aVbeje
p6648
aVpeke
p6649
aVricher
p6650
aVbore
p6651
aVmicrosofti
p6652
aVstroke
p6653
aVafterward
p6654
aVressurect
p6655
aVtribul
p6656
aVultraconserv
p6657
aVcoloradoedu
p6658
aVhomer
p6659
aVvega
p6660
aVfortifi
p6661
aVcamerastor
p6662
aVdeviant
p6663
aVbisexu
p6664
aVxhibit
p6665
aVhandicap
p6666
aVwisdom
p6667
aVballpark
p6668
aVhide
p6669
aVvandal
p6670
aVoneself
p6671
aVhoen
p6672
aVstress
p6673
aVzoloft
p6674
aVquran
p6675
aVneedlessli
p6676
aVplayerhard
p6677
aVchu
p6678
aVpyotr
p6679
aVpyotrhalcyoncom
p6680
aVgodthi
p6681
aVwellmean
p6682
aVraze
p6683
aVvillberg
p6684
aVeerikiastateedu
p6685
aVantifight
p6686
aVgirl
p6687
aVunfair
p6688
aV750000
p6689
aV999
p6690
aVdraperumccumichedu
p6691
aVdevkoresh
p6692
aVbasra
p6693
aVkuwait
p6694
aVkuri
p6695
aVbrowser
p6696
aVtextmod
p6697
aVstuck
p6698
aVadonai
p6699
aVnohitt
p6700
aVgonna
p6701
aVwife
p6702
aVencount
p6703
aVcamoflag
p6704
aVforti
p6705
aVtaker
p6706
aVeloqu
p6707
aVwholl
p6708
aVchevi
p6709
aVdumbest
p6710
aVbusinessbrian
p6711
aVslav
p6712
aVfolk
p6713
aVmiracul
p6714
aVjerri
p6715
aVquarrel
p6716
aVceresnj
p6717
aVrebuild
p6718
aVtortur
p6719
aVshitload
p6720
aVwhod
p6721
aV3do
p6722
aVatmospher
p6723
aVwrath
p6724
aVlightn
p6725
aVheschel
p6726
aV201
p6727
aVcoda
p6728
aVun
p6729
aVowe
p6730
aVusborn
p6731
aVcage
p6732
aVbionet
p6733
aVproblemat
p6734
aVwelder
p6735
aVwoodstov
p6736
aVkojian
p6737
aVchill
p6738
aVassur
p6739
aVmemet
p6740
aVloudli
p6741
aVproclaim
p6742
aVhamid
p6743
aVcoher
p6744
aVcurs
p6745
aVreadpost
p6746
aVshitless
p6747
aVforgotten
p6748
aVconveni
p6749
aVoverreact
p6750
aVfk
p6751
aVposs
p6752
aVmalic
p6753
aVbaffl
p6754
aVmg15prismgatechedu
p6755
aVcipher
p6756
aVgarrott
p6757
aVbreath
p6758
aVrh
p6759
aVoverflow
p6760
aVbradley
p6761
aVconsistantli
p6762
aVcrap
p6763
aVsettl
p6764
aVremap
p6765
aVswine
p6766
aVcoupld
p6767
aVpanturk
p6768
aVsrebrenica
p6769
aV1that
p6770
aVmisl
p6771
aVsatir
p6772
aVminnesota
p6773
aV6680
p6774
aVethnic
p6775
aVindirectli
p6776
aVcoin
p6777
aVjake
p6778
aVlivni
p6779
aVjakebony1bonycom
p6780
aVmorgu
p6781
aVgrotesqu
p6782
aVkhrist
p6783
aVkrusad
p6784
aVcrud
p6785
aVnagornokarabakh
p6786
aVcheapli
p6787
aVprejudg
p6788
aVclueless
p6789
aVfate
p6790
aVcoopt
p6791
aVumpir
p6792
aVshouldv
p6793
aVunrel
p6794
aVunjustifi
p6795
aVselfdefens
p6796
aV_i_
p6797
aVupset
p6798
aVdiss
p6799
aVwinfield
p6800
aVhenderson
p6801
aVgrandpar
p6802
aVcat
p6803
aVlegendari
p6804
aVcaltech
p6805
aVtarget
p6806
aVproaudio
p6807
aVfc
p6808
aVrecreat
p6809
aVdeport
p6810
aVmose
p6811
aVpercept
p6812
aVwield
p6813
aVbillboard
p6814
aVutmost
p6815
aVsuspicion
p6816
aVdiehard
p6817
aVpush
p6818
aVjudgement
p6819
aVdefici
p6820
aVfibromyalgia
p6821
aV210
p6822
aValiyev
p6823
aVthreequart
p6824
aVsex
p6825
aVjerk
p6826
aVomvi
p6827
aVboat
p6828
aVhatr
p6829
aVextreemist
p6830
aVbarter
p6831
aVhallamzeus02desyd
p6832
aV131
p6833
aVvault
p6834
aV178
p6835
aVstranger
p6836
aVdrope
p6837
aVdisgust
p6838
aVwhitey
p6839
aVherzog
p6840
aVbuck
p6841
aVnongod
p6842
aVethnik
p6843
aVelimin
p6844
aVcic
p6845
aVmoslem
p6846
aVreleasesom
p6847
aVlastest
p6848
aVamus
p6849
aVdeliver
p6850
aVkillinganintrud
p6851
aVgete
p6852
aVcool
p6853
aVmaplecircaufledu
p6854
aVslipon
p6855
aVdistress
p6856
aVmental
p6857
aVprone
p6858
aVphd
p6859
aVprim
p6860
aVancient
p6861
aVcurios
p6862
aVlesbian
p6863
aVprison
p6864
aVteammat
p6865
aVdough
p6866
aVdebat
p6867
aVmeng
p6868
aV35000
p6869
aVdivid
p6870
aVsuit
p6871
aVlatter
p6872
aVrecruit
p6873
aVtalkpoliticsgun
p6874
aVextermin
p6875
aV10000
p6876
aV950
p6877
aVclassic
p6878
aVredicul
p6879
aV_persude_
p6880
aVedition_
p6881
aVrevolut
p6882
aVobstruct
p6883
aVforcibl
p6884
aVtaiz
p6885
aVhappend
p6886
aVmemor
p6887
aVcryptolog
p6888
aVqueri
p6889
aVthemself
p6890
aVarthur
p6891
aVhan
p6892
aVsociopath
p6893
aVmustnt
p6894
aVcord
p6895
aVfilzek
p6896
aVr2d2
p6897
aVdiphenhydramin
p6898
aVdeliri
p6899
aVaddict
p6900
aVeightysomeodd
p6901
aVprogay
p6902
aVrecsportsidiot
p6903
aVhostag
p6904
aVspheroid
p6905
aVapprocah
p6906
aVenergi
p6907
aVcleans
p6908
aVcring
p6909
aVbrainwash
p6910
aVatlant
p6911
aVfaro
p6912
aV701
p6913
aVcroatian
p6914
aVflower
p6915
aVsurround
p6916
aVpff
p6917
aVfist
p6918
aVbulk
p6919
aVron
p6920
aVpsychot
p6921
aVtb
p6922
aVandolina
p6923
aVbuffalo
p6924
aVut
p6925
aV0025
p6926
aVvitamin
p6927
aVheata
p6928
aVeyewit
p6929
aVprevail
p6930
aVadmir
p6931
aVphrase
p6932
aVenvis
p6933
aVafaik
p6934
aVwsj
p6935
aVphill
p6936
aV12step
p6937
aVmi
p6938
aVrj3
p6939
aVhumour
p6940
aVbarbarian
p6941
aVdefenseless
p6942
aVpuram
p6943
aVhostiam
p6944
aVsanctam
p6945
aVkorean
p6946
aVhighway
p6947
aVnifti
p6948
aVceil
p6949
aVthread
p6950
aVcontend
p6951
aVpreacher
p6952
aVdotmatrix
p6953
aVimagewrit
p6954
aVblockad
p6955
aV_user_
p6956
aVera
p6957
aVsacco
p6958
aVperspect
p6959
aVee
p6960
aVlieand
p6961
aVrelationship
p6962
aVconfisc
p6963
aVhangn
p6964
aVdiffent
p6965
aVhomeless
p6966
aVapolog
p6967
aVsatur
p6968
aVstaci
p6969
aVrealm
p6970
aVremark
p6971
aVselfidentifi
p6972
aVbahrain
p6973
aVimmol
p6974
aVeager
p6975
aVcorner
p6976
aVrda
p6977
aVblueston
p6978
aVappend
p6979
aVlengthi
p6980
aVexplod
p6981
aVeasiest
p6982
aVturkic
p6983
aVwidespread
p6984
aVsocbi
p6985
aVate
p6986
aVspite
p6987
aVnowaday
p6988
aVcarl
p6989
aVmaybeespn
p6990
aVintermiss
p6991
aVgiddi
p6992
aVtout
p6993
aVfloor
p6994
aVliaison
p6995
aVwebb
p6996
aVcompromis
p6997
aVvoluntarilli
p6998
aVaddi
p6999
aVindign
p7000
aVmarti
p7001
aVfond
p7002
aVurg
p7003
aVserb
p7004
aVwestesc60xqf59rnetcomcom
p7005
aVgsxr750
p7006
aVscrewup
p7007
aVanomal
p7008
aV818
p7009
aV449
p7010
aVdissatisfi
p7011
aVdiscern
p7012
aVsubvert
p7013
aVdorothi
p7014
aVhg
p7015
aVhealer
p7016
aVamun
p7017
aVgovt
p7018
aVanatolia
p7019
aVcultur
p7020
aVcollegu
p7021
aVundiscrimin
p7022
aVwillmersdorf
p7023
aVv8
p7024
aVmulticultur
p7025
aVphilosoph
p7026
aVbasketbal
p7027
aVroster
p7028
aVhampshir
p7029
aVkriger
p7030
aVagkneuralhampshireedu
p7031
aVsuprem
p7032
aVyeaer
p7033
aVcampus
p7034
aVroyinternetbr4416aamericanedupcspoor
p7035
aVwoudl
p7036
aVpreclud
p7037
aVlearnt
p7038
aVdest
p7039
aVot
p7040
aVinfantri
p7041
aV162
p7042
aVappleu
p7043
aVenvisag
p7044
aVtrip
p7045
aVplexu
p7046
aVrei
p7047
aVhamilton
p7048
aVluxuri
p7049
aVinfin
p7050
aVdc
p7051
aVarama
p7052
aVtougher
p7053
aVxto
p7054
aVgehret
p7055
aVmarktstrass
p7056
aVw8944
p7057
aVusl
p7058
aVshowdown
p7059
aVusmc
p7060
aVnorway
p7061
aVsaturday
p7062
aVvara
p7063
aVsubtext
p7064
aVanalyz
p7065
aVreverseengin
p7066
aVpublicli
p7067
aVkelsey
p7068
aVgolan
p7069
aVabsent
p7070
aVcrook
p7071
aVsternlight
p7072
aVhabu
p7073
aVmeanwhil
p7074
aVshove
p7075
aVtypo
p7076
aVreser
p7077
aVauthorit
p7078
aVdoberman
p7079
aVsizabl
p7080
aVbend
p7081
aVmiscegen
p7082
aVcrow
p7083
aVmacarthur
p7084
aVwwi
p7085
aVunilater
p7086
aVanc
p7087
aVmk
p7088
aVscarri
p7089
aVmujanov
p7090
aVpredica
p7091
aVworsen
p7092
aVspecialis
p7093
aVfrancoi
p7094
aVparamilitari
p7095
aVhussein
p7096
aVbarrack
p7097
aVdecis
p7098
aVtactician
p7099
aVcampaign
p7100
aVhandheld
p7101
aVthermal
p7102
aVscanner
p7103
aVyehuda
p7104
aVlapidot
p7105
aVenrich
p7106
aVdir
p7107
aVwrt
p7108
aVhaganah
p7109
aVrecours
p7110
aVbalkan
p7111
aVadventur
p7112
aVfirepow
p7113
aVbombay
p7114
aVmarathon
p7115
aVbarium
p7116
aVvastli
p7117
aVexempt
p7118
aVtempest
p7119
aVdrill
p7120
aV1980
p7121
aVwwii
p7122
aVfortun
p7123
aVlift
p7124
aVtsto
p7125
aVairbreath
p7126
aV_using_
p7127
aVvocod
p7128
aVhitech
p7129
aV3864486
p7130
aVinard
p7131
aVfreak
p7132
aVnoop
p7133
aVconfist
p7134
aVfanci
p7135
aValgorythim
p7136
aVkasprzak
p7137
aVrpi
p7138
aVtroy
p7139
aVinadequ
p7140
aVjersey
p7141
aVz80base
p7142
aVmexico
p7143
aVcruce
p7144
aVheatsink
p7145
aVweatherbe
p7146
aVincid
p7147
aVdisect
p7148
aVnotebook
p7149
aVnemesi
p7150
aV3300sl
p7151
aVtoshiba
p7152
aV80386sl
p7153
aV360dpi
p7154
aV80486
p7155
aVdx33
p7156
aVmildmann
p7157
aVmacwharehous
p7158
aVpoxi
p7159
aVundergradu
p7160
aVnoticebl
p7161
aVentertain
p7162
aVcompaq
p7163
aVthomasrcpqhoucompaqcom
p7164
aVmaya
p7165
aVformerli
p7166
aVriver
p7167
aVbackward
p7168
aVkodak
p7169
aVcaretak
p7170
aVmistaken
p7171
aVtechnologyand
p7172
aVtechnologyha
p7173
aVpovray
p7174
aVture
p7175
aVlowcost
p7176
aVburglari
p7177
aVownus
p7178
aVmailord
p7179
aVrkummerphillipeduau
p7180
aVmileag
p7181
aVhomebrew
p7182
aVhinder
p7183
aVdomin
p7184
aVjwhitwbst845exeroxcom
p7185
aVemiss
p7186
aVsurg
p7187
aVprotector
p7188
aVtimexsinclar
p7189
aVtape
p7190
aVmacibm
p7191
aVtransmitrec
p7192
aV450
p7193
aVautonom
p7194
aVshowm
p7195
aVcompusa
p7196
aVcomic
p7197
aVlaserpostscriptinkjetcolordot
p7198
aVmacibmpcsunamigaatarinextoth
p7199
aVobor
p7200
aVpaperpaid
p7201
aVitll
p7202
aVocclus
p7203
aVtextbook
p7204
aVtm
p7205
aVresel
p7206
aVtelecommun
p7207
aVreachabl
p7208
aVarco
p7209
aVnickelucsindianaedu
p7210
aVmatjazgamsijssi
p7211
aVdear
p7212
aVneil
p7213
aVgandler
p7214
aVnanao
p7215
aVthomassunshinekodakcom
p7216
aVldr
p7217
aVvet
p7218
aVgrate
p7219
aVregistr
p7220
aVjeann
p7221
aV607
p7222
aVsurgeri
p7223
aVkubota
p7224
aVtc1
p7225
aV66
p7226
aVjonathan
p7227
aVrag
p7228
aVpolaroid
p7229
aVpearlstein
p7230
aVibmer
p7231
aVfranco
p7232
aVdecisio
p7233
aVwu
p7234
aVvowel
p7235
aVspanish
p7236
aVprobal
p7237
aVtremend
p7238
aVzyxel
p7239
aVinvalu
p7240
aVflux
p7241
aVgut
p7242
aVaiaa
p7243
aVopamp
p7244
aVpanix
p7245
aVresinfo
p7246
aV_other_
p7247
aVellips
p7248
aVmethamphetamin
p7249
aVdeciph
p7250
aVyield
p7251
aVrhknow
p7252
aVimpuls
p7253
aVgoh
p7254
aVendocrinolog
p7255
aVdx3150
p7256
aVdx399
p7257
aVmc
p7258
aVimplic
p7259
aVinadvert
p7260
aVelectromagnet
p7261
aVrental
p7262
aVscheifler
p7263
aVcitat
p7264
aVkennedycanaver
p7265
aVknesset
p7266
aVsherri
p7267
aVuncorrobor
p7268
aVdefeat
p7269
aVbrunoli
p7270
aVdensiti
p7271
aVkinsey
p7272
aV209900
p7273
aVbeverli
p7274
aVrutin
p7275
aV567
p7276
aVclutchhit
p7277
aVregret
p7278
aVumbil
p7279
aVhernia
p7280
aVxyzzygnuaimitedu
p7281
aVbrook
p7282
aVendeavour
p7283
aVaisun3aiugaedu
p7284
aVex
p7285
aVcongruent
p7286
aVundo
p7287
aVtheyll
p7288
aVastrophysicist
p7289
aVcookamunga
p7290
aVventur
p7291
aVodwyer
p7292
aVdosag
p7293
aVillumin
p7294
aVmisus
p7295
aVunbias
p7296
aVacceleromet
p7297
aVcopper
p7298
aVbracelet
p7299
aVchaum
p7300
aVnichol
p7301
aVuseabl
p7302
aV230we
p7303
aVink
p7304
aVida
p7305
aVsociolog
p7306
aVparametricvari
p7307
aVfactual
p7308
aVtrewesday
p7309
aVstephan
p7310
aVisaac
p7311
aV1900quotem
p7312
aVincorrect
p7313
aValphanumer
p7314
aVbecam
p7315
aVpoke
p7316
aVbats
p7317
aVxpm
p7318
aVflaw
p7319
aVfootnot
p7320
aVb1
p7321
aVnewsgroupstyp
p7322
aVmailbox
p7323
aVala
p7324
aVfinger1
p7325
aVname_find
p7326
aVhouston
p7327
aVuimx
p7328
aVcipriani
p7329
aVlvciprianiattcom
p7330
aVhomestartupp
p7331
aVcandid
p7332
aVxdisclaim
p7333
aVnyx
p7334
aVuptod
p7335
aVmadceltcwisunomahaedu
p7336
aVdecript
p7337
aVgover
p7338
aV_no_
p7339
aVrivet
p7340
aVbusinessresid
p7341
aVredesign
p7342
aVjenner
p7343
aVbrochur
p7344
aVreproduc
p7345
aVlawmast
p7346
aVntu
p7347
aVframework
p7348
aVreadsdisplaysmanipul
p7349
aV72
p7350
aVfdisk
p7351
aVncsu
p7352
aVodiesantarosaedu
p7353
aVcnd
p7354
aVniv
p7355
aVtartarusuwaeduau
p7356
aVcyborgkaurivuwacnz
p7357
aVmgr
p7358
aVspeedi
p7359
aVdukebarmcdukeedu
p7360
aVtrakker
p7361
aV16v
p7362
aVammunit
p7363
aVteleus
p7364
aVv205
p7365
aVolwm
p7366
aVmeant
p7367
aVduckyilsnwuedu
p7368
aVapollo
p7369
aVaix32
p7370
aVwilfredhansencscmuedu
p7371
aVpl21
p7372
aVcontentlength
p7373
aVphang
p7374
aVtia
p7375
aVjmsparclarcnasagov
p7376
aV_the
p7377
aVeasytoread
p7378
aVdesk240
p7379
aVzip
p7380
aV5x
p7381
aVsharwar
p7382
aVdelphinoscmil
p7383
aVkelli
p7384
aVmonolithccemoryedu
p7385
aVpcdriver
p7386
aVerron
p7387
aVflexibl
p7388
aVvcd
p7389
aVsiniaticu
p7390
aVaustria
p7391
aV80523
p7392
aVhershelealfdeccom
p7393
aVgatekeep
p7394
aVmegamax
p7395
aVfroever
p7396
aVallan
p7397
aVgeoff
p7398
aVmk38p73
p7399
aV39
p7400
aVzebe
p7401
aVcheek
p7402
aVweeknight
p7403
aVxw
p7404
aVahl
p7405
aVilyess
p7406
aVdowload
p7407
aVaccolad
p7408
aVstratego
p7409
aVmilton
p7410
aV29
p7411
aVwonko
p7412
aVmat
p7413
aVstartrek
p7414
aVafterdark
p7415
aVnonloc
p7416
aVsmalltalk
p7417
aVdigitalk
p7418
aVmehdhwcca
p7419
aV8005320600
p7420
aVvl
p7421
aVb64743studentcwruedu
p7422
aVchad
p7423
aVcentr
p7424
aVgoedel
p7425
aVontolog
p7426
aVsfisantafeed
p7427
aVobsolet
p7428
aVrummelplatzunimannheimd
p7429
aV217
p7430
aVxfig
p7431
aVdopenwin
p7432
aVjoel
p7433
aVsciencessdsuedu
p7434
aVperhaph
p7435
aValsoget
p7436
aVdta
p7437
aVrx
p7438
aVglasgow
p7439
aV317
p7440
aVaccessnetaxscom
p7441
aVhardcopi
p7442
aVrauno
p7443
aVswanesddlneccom
p7444
aVsaner
p7445
aVsharon
p7446
aVvaleri
p7447
aVpl241235
p7448
aVnoncrypto
p7449
aV_deltree_
p7450
aVqvtnet
p7451
aVscanman
p7452
aVscreenplay
p7453
aV111
p7454
aV88
p7455
aVnextsrvcasmuohioedu
p7456
aVfreewar
p7457
aVtx
p7458
aVveikko
p7459
aVmakela
p7460
aVjumboreadtasccom
p7461
aValwin
p7462
aVoptic_nervembvlabwpafbafmil
p7463
aVnope
p7464
aVdick
p7465
aVkaul
p7466
aVstephenorchiducscedu
p7467
aVprocomm
p7468
aVcadgatechedu
p7469
aVjulian
p7470
aVpublicaccessunixsystem
p7471
aVreal3d
p7472
aVappropiatli
p7473
aVxrlogin
p7474
aV193
p7475
aVgaryschuett
p7476
aVfacist
p7477
aVchile
p7478
aVv28
p7479
aVpars
p7480
aVcereskingstonacuk
p7481
aVflorian
p7482
aVacoust
p7483
aVrem
p7484
aVvbrun200dll
p7485
aVphotoshop
p7486
aV_your_
p7487
aVsaturnsdsuedu
p7488
aVgphig
p7489
aV351m
p7490
aVchameleon
p7491
aVdrawn
p7492
aV323
p7493
aVwind
p7494
aVterrainimag
p7495
aVnuclearpow
p7496
aVscaleddown
p7497
aV601
p7498
aVfeather
p7499
aVsmooth
p7500
aV2550
p7501
aVgoytcsclivacuk
p7502
aVgeospher
p7503
aVretribut
p7504
aVenlighten
p7505
aV168
p7506
aVhst
p7507
aV77
p7508
aVcrosspost
p7509
aVthnx
p7510
aVremco
p7511
aVjornakubnl
p7512
aVcyano
p7513
aV103
p7514
aV052192
p7515
aVhash
p7516
aVsnefru
p7517
aVlowresolut
p7518
aVandrea
p7519
aVnihimag
p7520
aV148
p7521
aVcarinahkscom
p7522
aVhighschool
p7523
aVrand
p7524
aVlocalhost
p7525
aVproton
p7526
aVvi
p7527
aVpablo
p7528
aVusrlibx11xdmxsess
p7529
aVmanrat
p7530
aVsanjuansantafeed
p7531
aVgxv
p7532
aVbattincyclopsiucfindianaedu
p7533
aVconsortium
p7534
aVmunnariozau
p7535
aVsussex
p7536
aVpk115050wvnvmswvnetedu
p7537
aVmonthli
p7538
aVbal1mcdukeedu
p7539
aVpl94
p7540
aVabstc
p7541
aVtryth
p7542
aVcindi
p7543
aVucssun1sdsuedu
p7544
aVxscope
p7545
aV62678
p7546
aV3240
p7547
aVlucid
p7548
aVgnuemac
p7549
aVmnp5
p7550
aVmintakasdsuedu
p7551
aVkevinlstel
p7552
aVwagon
p7553
aV525i
p7554
aVcopyr
p7555
aV83
p7556
aVupload
p7557
aVtheolog
p7558
aVorthodoxi
p7559
aVduxdundeeacuk
p7560
aVossheedu
p7561
aVonward
p7562
aVdigitis
p7563
aV322
p7564
aVfabl
p7565
aVpbm
p7566
aVeditedmodifi
p7567
aVgopher
p7568
aVhawaii
p7569
aVv09
p7570
aVhpstcsmerosehpcom
p7571
aVwor
p7572
aVlawrenc
p7573
aVvoyag
p7574
aVaurora
p7575
aV48650dx
p7576
aVgrenad
p7577
aVprostititut
p7578
aVprayer
p7579
aVamericanprotest
p7580
aVarun
p7581
aVgunshot
p7582
aVoscil
p7583
aVinsect
p7584
aVmosqu
p7585
aVballstrik
p7586
aVgarner
p7587
aVstutter
p7588
aVconspectu
p7589
aVmound
p7590
aVsouthofthebord
p7591
aVoxford
p7592
aVhole
p7593
aVmatern
p7594
aVedta
p7595
aVchelat
p7596
aVdisconfirmatori
p7597
aVdiscontinu
p7598
aVoccuredserum
p7599
aVabsenc
p7600
aVvanish
p7601
aVprosecutor
p7602
aVnecessarili
p7603
aVpreserv
p7604
aVar
p7605
aVincontrovert
p7606
aVcontradictori
p7607
aVrex
p7608
aVwhatsoev
p7609
aVinfluenc
p7610
aVbelessedbygod
p7611
aVcoincid
p7612
aVchoke
p7613
aVowieneramu
p7614
aVdisturb
p7615
aVprepoder
p7616
aVabscensesp
p7617
aVoregon
p7618
aVpunjabi
p7619
aVnicon
p7620
aVcredibl
p7621
aVbeed
p7622
aVgrb
p7623
aVindict
p7624
aVmyth
p7625
aVspout
p7626
aVmeagerest
p7627
aVrefut
p7628
aVrecov
p7629
aVhistolog
p7630
aVbiochem
p7631
aVliver
p7632
aVbaptism
p7633
aVwaaaaaaaaah
p7634
aVranger
p7635
aVsecreci
p7636
aVcomplic
p7637
aVorigni
p7638
aVspectra
p7639
aVivker
p7640
aVgem
p7641
aVconsider
p7642
aVcircumstanti
p7643
aVflushabl
p7644
aVpervers
p7645
aV29447562971p00261psilinkcom
p7646
aVaward
p7647
aVbeehiv
p7648
aVcosmolog
p7649
aVsurfac
p7650
aVbrahma
p7651
aVskarda
p7652
aV1985
p7653
aVmccandlish
p7654
aVivica
p7655
aVresign
p7656
aVgideon
p7657
aVkaunda
p7658
aVzambia
p7659
aVaiu
p7660
aVcomeback
p7661
aVbryen
p7662
aVmoa
p7663
aVcosic
p7664
aVrump
p7665
aVscolnick
p7666
aVmerck
p7667
aVinexperienc
p7668
aVliket
p7669
aVanticip
p7670
aVcleartext
p7671
aVunsound
p7672
aVmessagedigest
p7673
aVmd5
p7674
aVchecksum
p7675
aVasm
p7676
aVpainter
p7677
aVbsp
p7678
aVtree
p7679
aVcrank
p7680
aVprogrammi
p7681
aVnea
p7682
aVabroad
p7683
aVquantiz
p7684
aVinprincipl
p7685
aVkhafr
p7686
aVfailsaf
p7687
aVmelnick
p7688
aVzeroknowledg
p7689
aVchime
p7690
aV1988
p7691
aVzoom
p7692
aVtesterand
p7693
aVimposs
p7694
aVvgawonderxl24
p7695
aVnoncommun
p7696
aVstring
p7697
aVmodemfax
p7698
aVluci
p7699
aVwilson
p7700
aVecosauru
p7701
aVmint
p7702
aVretrain
p7703
aVreschedul
p7704
aVsimplifi
p7705
aVacquisit
p7706
aV144m
p7707
aV144mb
p7708
aVtextur
p7709
aVbeacon
p7710
aVpeak
p7711
aVsmallscal
p7712
aVdigitalanalog
p7713
aVjcl
p7714
aVdependend
p7715
aVmultiplatform
p7716
aVterminolog
p7717
aVwp51
p7718
aVrecertifi
p7719
aVfasten
p7720
aVbecasu
p7721
aVtxd
p7722
aVneural
p7723
aVlongdist
p7724
aVcdrd
p7725
aVxplane
p7726
aVincrement
p7727
aVjb
p7728
aVprofit
p7729
aVaccessori
p7730
aVuniversit
p7731
aV45342
p7732
aVmiamisburg
p7733
aV513
p7734
aV8657250
p7735
aVprepackag
p7736
aVjupit
p7737
aVwm
p7738
aVhummingbird
p7739
aVcdtv
p7740
aVconondrum
p7741
aVsegacd
p7742
aVhandconvert
p7743
aVncdware
p7744
aVslauson
p7745
aV430
p7746
aVlcii
p7747
aVnaval
p7748
aVpostgradu
p7749
aVachitectur
p7750
aVhercul
p7751
aVencryptor
p7752
aVbraindamag
p7753
aVstd_disclaimerh
p7754
aVleffler
p7755
aVlibtiff
p7756
aVdialton
p7757
aVoldtim
p7758
aVrot
p7759
aVk4bnccbnewshattcom
p7760
aVkoontz
p7761
aVbattel
p7762
aVpowercard
p7763
aVsnafu
p7764
aVlightwav
p7765
aVlightwavelightwave3d
p7766
aVbulgarian
p7767
aV38733mhz
p7768
aVcoprocessor
p7769
aVdosent
p7770
aVanalysisnutritionist
p7771
aVburner
p7772
aVeeprom
p7773
aVreceivesend
p7774
aVloader
p7775
aVadpro
p7776
aVccuumanitobaca
p7777
aVstreamer
p7778
aVgenealog
p7779
aV4xx
p7780
aVlitig
p7781
aVtherebi
p7782
aVwmanual
p7783
aVplc
p7784
aVpraxi
p7785
aVcrosstalkwinfax
p7786
aV195
p7787
aVkuehmann
p7788
aVezscsi
p7789
aVmatlab
p7790
aVkiller
p7791
aV4522547
p7792
aV619
p7793
aVgmbh
p7794
aVtel
p7795
aV494513909413
p7796
aVeponaphysicsucgi
p7797
aVcontribxephem
p7798
aV14020313
p7799
aVbute
p7800
aVlilley
p7801
aVpertin
p7802
aVtransplant
p7803
aVv71
p7804
aVarchaic
p7805
aVv3
p7806
aVdoj
p7807
aVsaver
p7808
aVgxong
p7809
aVcxjijaux
p7810
aVprintmonitor
p7811
aVpain
p7812
aVmonstrou
p7813
aVeplain
p7814
aVaixps2
p7815
aVtheorist
p7816
aVcapitalist
p7817
aVhmri
p7818
aVwindowmotif
p7819
aV10a
p7820
aVelbel
p7821
aV12meg
p7822
aV525
p7823
aVandwellsicourlawyersony
p7824
aVitsillegaltocopythi
p7825
aVsunsoft
p7826
aVpoweruppowerdown
p7827
aVnewsprint
p7828
aVsunpic
p7829
aVfoundri
p7830
aVquiz
p7831
aVrapier
p7832
aVdcd
p7833
aVri
p7834
aVvt100
p7835
aVmodemrom
p7836
aVphillip
p7837
aVkindli
p7838
aVbootp
p7839
aVfamiliar
p7840
aVevalulatetest
p7841
aVav
p7842
aVbogu
p7843
aVnorad
p7844
aVretrospect
p7845
aVwinsong
p7846
aVwincak
p7847
aVrenam
p7848
aVshipment
p7849
aVnewish
p7850
aVbeckman
p7851
aVsoandso
p7852
aVporneia
p7853
aVchatter
p7854
aVesp
p7855
aVtriumph
p7856
aVthirtysix
p7857
aVsession
p7858
aVbreadthtak
p7859
aVdsiuscrpac
p7860
aVithaca
p7861
aV2d3d
p7862
aVpace
p7863
aVelit
p7864
aVlangley
p7865
aVtechreportslarcnasagov
p7866
aV128155358
p7867
aVpubtechreportslarc
p7868
aVwhereabout
p7869
aVtrick
p7870
aVvisualist
p7871
aVhyperson
p7872
aVsponsor
p7873
aVpayload
p7874
aV395
p7875
aVmodernstyl
p7876
aVcrest
p7877
aV1991
p7878
aVseper
p7879
aVsignifi
p7880
aVghost
p7881
aV294
p7882
aVtask
p7883
aVportray
p7884
aV7fff
p7885
aVpri
p7886
aVelia
p7887
aVmilion
p7888
aV_then_
p7889
aVsvr4
p7890
aVresembl
p7891
aVtorqu
p7892
aVuseless
p7893
aVfuel
p7894
aVbent
p7895
aVbrag
p7896
aV5000
p7897
aVoffbas
p7898
aVsc428
p7899
aVparenthesi
p7900
aVsuperscript
p7901
aVgruschow
p7902
aVenrol
p7903
aVnelson
p7904
aV1957
p7905
aVunharm
p7906
aVorign
p7907
aVtigger
p7908
aVleukocyt
p7909
aVclh
p7910
aVlargeer
p7911
aVtoll
p7912
aViraqi
p7913
aVharder
p7914
aVhic
p7915
aVsuburban
p7916
aVrefuge
p7917
aVgross
p7918
aVmemo
p7919
aVsadli
p7920
aVmlv
p7921
aVpositionadjust
p7922
aVlst
p7923
aVhandwritten
p7924
aVneopaint
p7925
aVv11
p7926
aVnyquil
p7927
aVplush
p7928
aVrf
p7929
aVpuff
p7930
aVcreator
p7931
aVtt
p7932
aVwinter
p7933
aVdik
p7934
aV912976
p7935
aVprocessor6000
p7936
aVvip
p7937
aVlowtech
p7938
aVlotu
p7939
aVmathematica
p7940
aVmultilater
p7941
aVtauru
p7942
aVbroll
p7943
aVxor
p7944
aVxsendeventtar
p7945
aVwicked
p7946
aVzink
p7947
aV60e
p7948
aVmounter
p7949
aVprep
p7950
aV240
p7951
aVsega
p7952
aVmicroc
p7953
aVvolat
p7954
aVomni
p7955
aVavion
p7956
aVpopup
p7957
aVrgbroadnetupscom
p7958
aVmirror
p7959
aVultrascsi
p7960
aVultrastor
p7961
aVunwil
p7962
aVfork
p7963
aVearl
p7964
aVswingarm
p7965
aVgestur
p7966
aVdelux
p7967
aVgrey
p7968
aVminivac
p7969
aVlandsberg
p7970
aVf2c
p7971
aVmanufactor
p7972
aVgift
p7973
aVwatchdogtm
p7974
aVinlin
p7975
aV7pin
p7976
aVrun18zip
p7977
aVdebugg
p7978
aVevan
p7979
aVorig
p7980
aVfullthrottl
p7981
aVcray
p7982
aVhighbandwidth
p7983
aVnamelik
p7984
aVhypermedia
p7985
aVhypertext
p7986
aVpreemptionchannel
p7987
aVpointpoint
p7988
aVbenchmark
p7989
aVsupercomput
p7990
aVaccross
p7991
aVyucki
p7992
aVneedless
p7993
aVtruss
p7994
aVbruin
p7995
aV58
p7996
aVsig
p7997
aVwholesal
p7998
aVhesh
p7999
aVcnn
p8000
aV3270
p8001
aVrouter
p8002
aVadminist
p8003
aVemac
p8004
aVetiquett
p8005
aVwet
p8006
aVinstabl
p8007
aVrexecd
p8008
aVdaemon
p8009
aVallpass
p8010
aVtricki
p8011
aVcracker
p8012
aVbroadcast
p8013
aVsimpler
p8014
aVevolv
p8015
aVwierdo
p8016
aVloopback
p8017
aVpierr
p8018
aVverpeaux
p8019
aVdmtsemtlam
p8020
aVwfw
p8021
aVdeaf
p8022
aVscielectron
p8023
aVgeni
p8024
aVshutdown
p8025
aVboundri
p8026
aVfeedback
p8027
aVrdbm
p8028
aVwreck
p8029
aVls
p8030
aVshelley1r6k3hinnq5t
p8031
aVrewrit
p8032
aV500c
p8033
aVcamaro
p8034
aVdeskwrit
p8035
aVwalsh
p8036
aVxga2
p8037
aVwaltcsmsstateedu
p8038
aVwideo
p8039
aV640x480x32k
p8040
aValdu
p8041
aVv31
p8042
aVstove
p8043
aVcrywyr
p8044
aVbdc
p8045
aVinde7wvrosieuhedu
p8046
aVnearli
p8047
aVemm
p8048
aVcheat
p8049
aVswii
p8050
aVpcspeaker
p8051
aVmach
p8052
aVwinpktcom
p8053
aV318i
p8054
aV8pin
p8055
aVlogitech
p8056
aV62
p8057
aV16mbyte
p8058
aVadlib
p8059
aVaspi2do
p8060
aVaspi
p8061
aVralf
p8062
aVsamplevis
p8063
aVsmdipeavey
p8064
aVdpmspsx
p8065
aV640x400x16
p8066
aVdefault
p8067
aVmodif
p8068
aV3c503
p8069
aVwd90c31
p8070
aVquietwrit
p8071
aVbockamphphalle3ainformatiktumuenchend
p8072
aVlittlefield
p8073
aVhibbitt
p8074
aVoak77
p8075
aVaheadv5000
p8076
aVati18800
p8077
aVriskier
p8078
aVmater
p8079
aVet4000w32
p8080
aV10mpixelsec
p8081
aVinstitutt
p8082
aVstbpowergraph
p8083
aV101key
p8084
aVprintscr
p8085
aVns1c72u68h6i
p8086
aVne2000
p8087
aVcolorimage5
p8088
aVdenali
p8089
aVkenaidenali
p8090
aV555
p8091
aVthreedimension
p8092
aVexamplesdemosproject
p8093
aVsirosh
p8094
aVnovic
p8095
aVrelativli
p8096
aVrs1rrzunikoelnd
p8097
aVket01
p8098
aVstealth
p8099
aV30052
p8100
aVslide
p8101
aVtelecommut
p8102
aVdistant
p8103
aVtektron
p8104
aVvaneveri
p8105
aVx11r5
p8106
aVcirclesellipsesetc
p8107
aVcdg
p8108
aVsampler
p8109
aVmadden
p8110
aVtek4010
p8111
aV24pdqsi
p8112
aVfd
p8113
aVcolumn
p8114
aVcdc
p8115
aVcrackleitdadelaideeduau
p8116
aV1993apr2411415619354jarviscsritorontoedu
p8117
aVcompac
p8118
aVdell
p8119
aV3103766224
p8120
aVursa
p8121
aVdatatext
p8122
aVinformationi
p8123
aVvlbu
p8124
aVphotocopypcxwindow
p8125
aVtifftargagifjpegpictpostscriptfax
p8126
aV8bit16bit24bit
p8127
aVchunk
p8128
aVxgl
p8129
aVwizbang
p8130
aVautocad
p8131
aVogicse53715
p8132
aVpex
p8133
aV12180
p8134
aVwisebcsrpiedu
p8135
aVgtoalpizzaboxdemoncouk
p8136
aVanonymousftp
p8137
aVemsworthandrewcmuedu
p8138
aV12824540
p8139
aVviktorolesovaivalt
p8140
aV3702
p8141
aVmvac23thomasudeledu
p8142
aVthomasmvac23udeledu
p8143
aVgauguin
p8144
aVoo
p8145
aV__
p8146
aVgunawan
p8147
aVgunawanenvmsaeasasuedu
p8148
aVgunawanenuxhbeasasuedu
p8149
aVgunawanenuxvaeasasuedu
p8150
aVyavorski
p8151
aVyavoivyparamaxcom
p8152
aVnexrad
p8153
aVsauer
p8154
aVdugganecsumassedu
p8155
aVed0118pedptofordcom
p8156
aVhoughton
p8157
aVwhoughtodianacairduedu
p8158
aVcnew
p8159
aVcompuerv
p8160
aVdonccognoscom
p8161
aVcognosdonc
p8162
aVmsachsux1csouiucedu
p8163
aVagronomyuiuc
p8164
aVusdaar
p8165
aVs108
p8166
aVfijmacsutwentenl
p8167
aV7500
p8168
aVae
p8169
aVyolo2utkvxutkedu
p8170
aVyoloutkvx
p8171
aVvancouv
p8172
aVlindholmucsubcca
p8173
aVv6t
p8174
aV1z2
p8175
aVmicrosystem
p8176
aVwa4fib
p8177
aVjackbmddcommmotcom
p8178
aV8593764
p8179
aV415
p8180
aVmeg_arnoldqmsricom
p8181
aVscratchley
p8182
aVscratchscecarletonca
p8183
aVwaim
p8184
aVleong
p8185
aV______________________________________
p8186
aVengp2008nusunixnussg
p8187
aVbeethovencscolostateedu
p8188
aVrfc1281
p8189
aVrecsporthockey
p8190
aVvoicemail
p8191
aV4541
p8192
aVamaranthvelaacsoaklandedu
p8193
aVmllaiojscnasagov
p8194
aVussnail
p8195
aVlockhe
p8196
aVu129008sparc20ncuedutw
p8197
aV167
p8198
aVunix00
p8199
aV600x400
p8200
aVrealtim
p8201
aVlik
p8202
aVshuffl
p8203
aVstrokewrit
p8204
aVisol
p8205
aVioerror
p8206
aV0x0069
p8207
aVpseudo
p8208
aVwallpap
p8209
aVow3
p8210
aVliterari
p8211
aVportion
p8212
aV640x480x32768
p8213
aVfirepower
p8214
aViicx
p8215
aVloop
p8216
aV25664
p8217
aVhitachi
p8218
aVrestrictionlimit
p8219
aV9130037golumrivcsueduau
p8220
aVkeirnan
p8221
aVlinuxxfree86
p8222
aVgreyscal
p8223
aVedgelit
p8224
aVps2
p8225
aV15digit
p8226
aVrubber
p8227
aVbw
p8228
aVxbitmap
p8229
aVxwd
p8230
aVhostname0
p8231
aVxloadimag
p8232
aVxli
p8233
aVxvisualinfo
p8234
aVtheme
p8235
aVexceedw
p8236
aVnx03mikukyedu
p8237
aVopenlook
p8238
aVnode
p8239
aV16001700
p8240
aVtextmathgraph
p8241
aVtextmath
p8242
aVplasma
p8243
aVglobe
p8244
aVlogin
p8245
aVportrait
p8246
aViisi
p8247
aVvain
p8248
aVviolet
p8249
aVmaclean
p8250
aVdialix
p8251
aVbrows
p8252
aVbrainpow
p8253
aVcreationist
p8254
aVhormon
p8255
aVwrongdo
p8256
aVbravado
p8257
aVoi
p8258
aVosfmotif
p8259
aVcaroten
p8260
aVabsorpt
p8261
aVusrlibx11xdevic
p8262
aVglanc
p8263
aVdoubl
p8264
aVthrir
p8265
aVdramat
p8266
aVfluoresc
p8267
aVuserfriendli
p8268
aVpagedriven
p8269
aVmultiplenot
p8270
aVncsl
p8271
aVmailgwncslnistgov
p8272
aVmailgwncsl
p8273
aV129648199
p8274
aVsiggraphorg
p8275
aV220
p8276
aV612
p8277
aVtue
p8278
aVpalett
p8279
aVcrayton
p8280
aV286a
p8281
aVmitserverdixwindowc
p8282
aVq700
p8283
aVyanoffcsd4csduwmedu
p8284
aVhr
p8285
aVgraem
p8286
aVether
p8287
aVhierarchi
p8288
aVidl
p8289
aVgsfc
p8290
aVcci
p8291
aVxdec
p8292
aV5000205
p8293
aVxxxxx00
p8294
aV10058
p8295
aVxopendisplayremote0
p8296
aVpookiecrdgecom
p8297
aVresolv
p8298
aVmotifbc
p8299
aVwinhelp
p8300
aVscanlin
p8301
aVhpcc01compdcommodem
p8302
aVwfworkgroup
p8303
aVhatzi
p8304
aV25000
p8305
aVop
p8306
aVqmodem
p8307
aVtype1
p8308
aVhostboomboxmicroumnedu
p8309
aVport70
p8310
aVmishna
p8311
aV520
p8312
aV510
p8313
aV7350
p8314
aVprimal
p8315
aVrectifi
p8316
aVsetasid
p8317
aVsbir
p8318
aVschemat
p8319
aVlyle
p8320
aVmattoccom
p8321
aVvgaq
p8322
aV5257350
p8323
aVmadison
p8324
aVwisconsin
p8325
aVassess
p8326
aVadequ
p8327
aVogata
p8328
aVhp286
p8329
aVjam
p8330
aV20mhz
p8331
aVstoredoubl
p8332
aVstateoftheart
p8333
aVjealou
p8334
aVtad
p8335
aVflaki
p8336
aVyearwood
p8337
aVbradoptilinkcom
p8338
aVredisplay
p8339
aViii
p8340
aVmidland
p8341
aVblank
p8342
aVbatch
p8343
aVcoffe
p8344
aVwd100227x
p8345
aVwinprinter800
p8346
aVflush
p8347
aVcol
p8348
aV120ksec
p8349
aVsub
p8350
aVgup
p8351
aVuuencod
p8352
aVnewlin
p8353
aVhypercard
p8354
aVstack
p8355
aVturbocharg
p8356
aVkhachikian
p8357
aV3c507
p8358
aVpredat
p8359
aVpekkataipalehutfi
p8360
aVthankx
p8361
aVmultifind
p8362
aVgunsrad
p8363
aValter
p8364
aVreleiv
p8365
aVnetcomput
p8366
aV48666
p8367
aVcrystal
p8368
aV486d2lp
p8369
aVjeffrey
p8370
aVcohen
p8371
aVflavour
p8372
aVhandi
p8373
aV50mm
p8374
aVgodzilla
p8375
aVsetenv
p8376
aVphoneansw
p8377
aVcombo
p8378
aVcrawl
p8379
aVpackard
p8380
aVhewlett
p8381
aVtrackbal
p8382
aVwindowsstack
p8383
aVbyteord
p8384
aVkarma
p8385
aVmulti
p8386
aValto
p8387
aVmoondog
p8388
aVeventu
p8389
aVvrm
p8390
aVmindless
p8391
aV260046
p8392
aV013
p8393
aV0120
p8394
aV13706
p8395
aV540
p8396
aVninja
p8397
aVstun
p8398
aVcypher
p8399
aVcassett
p8400
aV28610
p8401
aVnintendo
p8402
aVbal
p8403
aVbrigham
p8404
aVdisadvantag
p8405
aVxprogram
p8406
aVindirect
p8407
aVheavierthanair
p8408
aV_least_
p8409
aVflown
p8410
aVfrequenc
p8411
aVunisi
p8412
aVsophisticatedsp
p8413
aVconsultantmicroumnedu
p8414
aV134841324
p8415
aVferriera
p8416
aVkeenan
p8417
aV4779429
p8418
aVhybrid
p8419
aVzenith
p8420
aVm60
p8421
aV223
p8422
aVar15
p8423
aVseventiesi
p8424
aVsubstrat
p8425
aVbecau
p8426
aVinterleav
p8427
aVnemon
p8428
aV28meg
p8429
aVi860
p8430
aV512k361m362m36
p8431
aV8k
p8432
aVreconfigur
p8433
aVreadout
p8434
aV6bit
p8435
aVadress
p8436
aVconfig
p8437
aVinstallationsetup
p8438
aV256kb
p8439
aVinterappl
p8440
aVoverwrit
p8441
aVbiberdorf
p8442
aVchronicl
p8443
aVworst
p8444
aVlithium
p8445
aVsoftfont
p8446
aVcart
p8447
aVpalmsnycanvabitnet
p8448
aVinterupt
p8449
aVyale
p8450
aVquantum
p8451
aVprodriv
p8452
aVevergrow
p8453
aVclimax
p8454
aVloca
p8455
aV80column
p8456
aVenuff
p8457
aV6300
p8458
aVg5g
p8459
aVnoem
p8460
aVbewar
p8461
aVreciev
p8462
aVnightmar
p8463
aVextendend
p8464
aVmegabyt
p8465
aVuncompress
p8466
aV30kb
p8467
aVdyumaplecircaufledu
p8468
aVswapfil
p8469
aVcoexist
p8470
aV8mb
p8471
aVbasi
p8472
aVanatom
p8473
aVpolanyi
p8474
aVshall
p8475
aVdim
p8476
aVneuropsycholog
p8477
aVeras
p8478
aVmatrix
p8479
aVacess
p8480
aVbootup
p8481
aVnoninterlac
p8482
aV1bit
p8483
aV720x280
p8484
aVps6600
p8485
aVswap
p8486
aVmittleman
p8487
aVsullivan
p8488
aVpragramm
p8489
aVlinearli
p8490
aVacces
p8491
aVvcpi
p8492
aVcisko
p8493
aVfermi
p8494
a.